Archive member included because of file (symbol)

/d/3202c/prj/app/demo/dvbc/jade_demo_new_geeya/mcf_data_broadcast_3202c//release/lib//libgycas.a(gycas_api.o)
                              cdca/win_smc_info.o (GYCA_IsSonCard)
/d/3202c/prj/app/demo/dvbc/jade_demo_new_geeya/mcf_data_broadcast_3202c//release/lib//libgycas.a(gycas_ecm.o)
                              /d/3202c/prj/app/demo/dvbc/jade_demo_new_geeya/mcf_data_broadcast_3202c//release/lib//libgycas.a(gycas_api.o) (GYCAS_ClearIppvInfo)
/d/3202c/prj/app/demo/dvbc/jade_demo_new_geeya/mcf_data_broadcast_3202c//release/lib//libgycas.a(gycas_mgr.o)
                              /d/3202c/prj/app/demo/dvbc/jade_demo_new_geeya/mcf_data_broadcast_3202c//release/lib//libgycas.a(gycas_api.o) (CHCAMTaskStatus)
/d/3202c/prj/app/demo/dvbc/jade_demo_new_geeya/mcf_data_broadcast_3202c//release/lib//libgycas.a(gycas_mmm.o)
                              /d/3202c/prj/app/demo/dvbc/jade_demo_new_geeya/mcf_data_broadcast_3202c//release/lib//libgycas.a(gycas_mgr.o) (GYCAS_MMM_Initialize)
/d/3202c/prj/app/demo/dvbc/jade_demo_new_geeya/mcf_data_broadcast_3202c//release/lib//libgycas.a(gycas_smc.o)
                              /d/3202c/prj/app/demo/dvbc/jade_demo_new_geeya/mcf_data_broadcast_3202c//release/lib//libgycas.a(gycas_ecm.o) (bWritedEntitleFlag)
/d/3202c/prj/app/demo/dvbc/jade_demo_new_geeya/mcf_data_broadcast_3202c//release/lib//libgycas.a(gycas_smc_drv.o)
                              /d/3202c/prj/app/demo/dvbc/jade_demo_new_geeya/mcf_data_broadcast_3202c//release/lib//libgycas.a(gycas_api.o) (GYCAS_SmcDrv_WriteRecordFile)
/d/3202c/prj/app/demo/dvbc/jade_demo_new_geeya/mcf_data_broadcast_3202c//release/lib//libgycas.a(gycas_smc_hal.o)
                              /d/3202c/prj/app/demo/dvbc/jade_demo_new_geeya/mcf_data_broadcast_3202c//release/lib//libgycas.a(gycas_api.o) (GYCardContent)
/d/3202c/prj/app/demo/dvbc/jade_demo_new_geeya/mcf_data_broadcast_3202c//release/lib//libgycas.a(gycas_utl.o)
                              /d/3202c/prj/app/demo/dvbc/jade_demo_new_geeya/mcf_data_broadcast_3202c//release/lib//libgycas.a(gycas_ecm.o) (GYCAS_CRC32Calculate)
/d/3202c/prj/app/demo/dvbc/jade_demo_new_geeya/mcf_data_broadcast_3202c//release/lib//libgycas.a(gycas_vm.o)
                              /d/3202c/prj/app/demo/dvbc/jade_demo_new_geeya/mcf_data_broadcast_3202c//release/lib//libgycas.a(gycas_ecm.o) (GYCAS_VmDesBlocks)
/d/3202c/prj/app/demo/dvbc/jade_demo_new_geeya/mcf_data_broadcast_3202c//release/lib//libgycas.a(gycas_crc.o)
                              /d/3202c/prj/app/demo/dvbc/jade_demo_new_geeya/mcf_data_broadcast_3202c//release/lib//libgycas.a(gycas_utl.o) (GYCAS_CRCInitialize)
/d/3202c/prj/app/demo/dvbc/jade_demo_new_geeya/mcf_data_broadcast_3202c//release/lib//libgycas.a(gycas_des.o)
                              /d/3202c/prj/app/demo/dvbc/jade_demo_new_geeya/mcf_data_broadcast_3202c//release/lib//libgycas.a(gycas_smc_drv.o) (GYCAS_des_key)
/d/3202c/prj/app/demo/dvbc/jade_demo_new_geeya/mcf_data_broadcast_3202c//release/lib//libgycas.a(gycas_emm.o)
                              /d/3202c/prj/app/demo/dvbc/jade_demo_new_geeya/mcf_data_broadcast_3202c//release/lib//libgycas.a(gycas_mgr.o) (GYCAS_EMM_Initialize)
/d/3202c//sdk/libmlzo.a(slzo.o)
                              osd_rsc.o (unlzo)
/d/3202c/prj/app/demo/dvbc/jade_demo_new_geeya/mcf_data_broadcast_3202c//release/lib//liball.a(i2c_gpio.o)
                              board_config.o (i2c_gpio_attach)
/d/3202c/prj/app/demo/dvbc/jade_demo_new_geeya/mcf_data_broadcast_3202c//release/lib//liball.a(i2c_scb.o)
                              board_config.o (i2c_scb_attach)
/d/3202c/prj/app/demo/dvbc/jade_demo_new_geeya/mcf_data_broadcast_3202c//release/lib//liball.a(sci_16550uart.o)
                              root.o (sci_16550uart_attach)
/d/3202c/prj/app/demo/dvbc/jade_demo_new_geeya/mcf_data_broadcast_3202c//release/lib//liball.a(hld_dev.o)
                              root.o (dev_get_by_name)
/d/3202c/prj/app/demo/dvbc/jade_demo_new_geeya/mcf_data_broadcast_3202c//release/lib//liball.a(deca.o)
                              root.o (deca_open)
/d/3202c/prj/app/demo/dvbc/jade_demo_new_geeya/mcf_data_broadcast_3202c//release/lib//liball.a(decv.o)
                              root.o (vdec_open)
/d/3202c/prj/app/demo/dvbc/jade_demo_new_geeya/mcf_data_broadcast_3202c//release/lib//liball.a(dmx.o)
                              root.o (dmx_open)
/d/3202c/prj/app/demo/dvbc/jade_demo_new_geeya/mcf_data_broadcast_3202c//release/lib//liball.a(ge.o)
                              single_pic_ad/ad_pic_gfx.o (ge_lock)
/d/3202c/prj/app/demo/dvbc/jade_demo_new_geeya/mcf_data_broadcast_3202c//release/lib//liball.a(nim.o)
                              root.o (nim_open)
/d/3202c/prj/app/demo/dvbc/jade_demo_new_geeya/mcf_data_broadcast_3202c//release/lib//liball.a(osddrv.o)
                              cdca/win_osdmsg.o (OSDDrv_Open)
/d/3202c/prj/app/demo/dvbc/jade_demo_new_geeya/mcf_data_broadcast_3202c//release/lib//liball.a(pan.o)
                              root.o (pan_open)
/d/3202c/prj/app/demo/dvbc/jade_demo_new_geeya/mcf_data_broadcast_3202c//release/lib//liball.a(snd.o)
                              root.o (snd_open)
/d/3202c/prj/app/demo/dvbc/jade_demo_new_geeya/mcf_data_broadcast_3202c//release/lib//liball.a(sto.o)
                              root.o (sto_open)
/d/3202c/prj/app/demo/dvbc/jade_demo_new_geeya/mcf_data_broadcast_3202c//release/lib//liball.a(vpo.o)
                              root.o (vpo_open)
/d/3202c/prj/app/demo/dvbc/jade_demo_new_geeya/mcf_data_broadcast_3202c//release/lib//liball.a(lib_ash.o)
                              copper_common/stb_hwinfo.o (lib_ash_shell)
/d/3202c/prj/app/demo/dvbc/jade_demo_new_geeya/mcf_data_broadcast_3202c//release/lib//liball.a(lib_ashcmd.o)
                              /d/3202c/prj/app/demo/dvbc/jade_demo_new_geeya/mcf_data_broadcast_3202c//release/lib//liball.a(lib_ash.o) (lib_ash_command)
/d/3202c/prj/app/demo/dvbc/jade_demo_new_geeya/mcf_data_broadcast_3202c//release/lib//liball.a(Packet.o)
                              copper_common/stb_hwinfo.o (packet_receive)
/d/3202c/prj/app/demo/dvbc/jade_demo_new_geeya/mcf_data_broadcast_3202c//release/lib//liball.a(gif.o)
                              single_pic_ad/ad_pic_gif.o (gif_init)
/d/3202c/prj/app/demo/dvbc/jade_demo_new_geeya/mcf_data_broadcast_3202c//release/lib//liball.a(gif_main.o)
                              /d/3202c/prj/app/demo/dvbc/jade_demo_new_geeya/mcf_data_broadcast_3202c//release/lib//liball.a(gif.o) (gif_main_init)
/d/3202c/prj/app/demo/dvbc/jade_demo_new_geeya/mcf_data_broadcast_3202c//release/lib//liball.a(gif_out_ge.o)
                              /d/3202c/prj/app/demo/dvbc/jade_demo_new_geeya/mcf_data_broadcast_3202c//release/lib//liball.a(gif_main.o) (gif_out_init_ge)
/d/3202c/prj/app/demo/dvbc/jade_demo_new_geeya/mcf_data_broadcast_3202c//release/lib//liball.a(gif_sync.o)
                              /d/3202c/prj/app/demo/dvbc/jade_demo_new_geeya/mcf_data_broadcast_3202c//release/lib//liball.a(gif_main.o) (gif_sync_alloc)
/d/3202c/prj/app/demo/dvbc/jade_demo_new_geeya/mcf_data_broadcast_3202c//release/lib//liball.a(imagedec.o)
                              single_pic_ad/ad_pic_img.o (imagedec_init)
/d/3202c/prj/app/demo/dvbc/jade_demo_new_geeya/mcf_data_broadcast_3202c//release/lib//liball.a(imagedec_bmp_decoder.o)
                              /d/3202c/prj/app/demo/dvbc/jade_demo_new_geeya/mcf_data_broadcast_3202c//release/lib//liball.a(imagedec.o) (imagedec_bmp_init)
/d/3202c/prj/app/demo/dvbc/jade_demo_new_geeya/mcf_data_broadcast_3202c//release/lib//liball.a(imagedec_covs.o)
                              /d/3202c/prj/app/demo/dvbc/jade_demo_new_geeya/mcf_data_broadcast_3202c//release/lib//liball.a(imagedec_bmp_decoder.o) (jh_mem_cpy)
/d/3202c/prj/app/demo/dvbc/jade_demo_new_geeya/mcf_data_broadcast_3202c//release/lib//liball.a(imagedec_main.o)
                              /d/3202c/prj/app/demo/dvbc/jade_demo_new_geeya/mcf_data_broadcast_3202c//release/lib//liball.a(imagedec_bmp_decoder.o) (prep_in_buffer)
/d/3202c/prj/app/demo/dvbc/jade_demo_new_geeya/mcf_data_broadcast_3202c//release/lib//liball.a(imagedec_osd.o)
                              single_pic_ad/ad_pic_img.o (imagedec_osd_init)
/d/3202c/prj/app/demo/dvbc/jade_demo_new_geeya/mcf_data_broadcast_3202c//release/lib//liball.a(imagedec_show.o)
                              /d/3202c/prj/app/demo/dvbc/jade_demo_new_geeya/mcf_data_broadcast_3202c//release/lib//liball.a(imagedec.o) (img_show_opn)
/d/3202c/prj/app/demo/dvbc/jade_demo_new_geeya/mcf_data_broadcast_3202c//release/lib//liball.a(imagedec_sub.o)
                              /d/3202c/prj/app/demo/dvbc/jade_demo_new_geeya/mcf_data_broadcast_3202c//release/lib//liball.a(imagedec.o) (imagedec_sub_buffer_init)
/d/3202c/prj/app/demo/dvbc/jade_demo_new_geeya/mcf_data_broadcast_3202c//release/lib//liball.a(imagedec_trans.o)
                              /d/3202c/prj/app/demo/dvbc/jade_demo_new_geeya/mcf_data_broadcast_3202c//release/lib//liball.a(imagedec_main.o) (IDCT_Scaling_Cr)
/d/3202c/prj/app/demo/dvbc/jade_demo_new_geeya/mcf_data_broadcast_3202c//release/lib//liball.a(imagedec_trans_dup.o)
                              /d/3202c/prj/app/demo/dvbc/jade_demo_new_geeya/mcf_data_broadcast_3202c//release/lib//liball.a(imagedec_main.o) (imagedec_idct_dup_init)
/d/3202c/prj/app/demo/dvbc/jade_demo_new_geeya/mcf_data_broadcast_3202c//release/lib//liball.a(png.o)
                              single_pic_ad/ad_pic_png.o (png_dec)
/d/3202c/prj/app/demo/dvbc/jade_demo_new_geeya/mcf_data_broadcast_3202c//release/lib//liball.a(png_core.o)
                              /d/3202c/prj/app/demo/dvbc/jade_demo_new_geeya/mcf_data_broadcast_3202c//release/lib//liball.a(png.o) (png_core_status)
/d/3202c/prj/app/demo/dvbc/jade_demo_new_geeya/mcf_data_broadcast_3202c//release/lib//liball.a(png_in.o)
                              /d/3202c/prj/app/demo/dvbc/jade_demo_new_geeya/mcf_data_broadcast_3202c//release/lib//liball.a(png_core.o) (png_in_init)
/d/3202c/prj/app/demo/dvbc/jade_demo_new_geeya/mcf_data_broadcast_3202c//release/lib//liball.a(png_inflate.o)
                              /d/3202c/prj/app/demo/dvbc/jade_demo_new_geeya/mcf_data_broadcast_3202c//release/lib//liball.a(png_core.o) (png_inflate_dec)
/d/3202c/prj/app/demo/dvbc/jade_demo_new_geeya/mcf_data_broadcast_3202c//release/lib//liball.a(png_info.o)
                              /d/3202c/prj/app/demo/dvbc/jade_demo_new_geeya/mcf_data_broadcast_3202c//release/lib//liball.a(png_core.o) (png_info_parse_chunk)
/d/3202c/prj/app/demo/dvbc/jade_demo_new_geeya/mcf_data_broadcast_3202c//release/lib//liball.a(png_out.o)
                              /d/3202c/prj/app/demo/dvbc/jade_demo_new_geeya/mcf_data_broadcast_3202c//release/lib//liball.a(png_info.o) (png_out_init)
/d/3202c/prj/app/demo/dvbc/jade_demo_new_geeya/mcf_data_broadcast_3202c//release/lib//liball.a(lib_cc.o)
                              control.o (chchg_play_channel)
/d/3202c/prj/app/demo/dvbc/jade_demo_new_geeya/mcf_data_broadcast_3202c//release/lib//liball.a(lib_device_manage.o)
                              /d/3202c/prj/app/demo/dvbc/jade_demo_new_geeya/mcf_data_broadcast_3202c//release/lib//liball.a(lib_cc.o) (dev_get_nim_config)
/d/3202c/prj/app/demo/dvbc/jade_demo_new_geeya/mcf_data_broadcast_3202c//release/lib//liball.a(lib_frontend.o)
                              /d/3202c/prj/app/demo/dvbc/jade_demo_new_geeya/mcf_data_broadcast_3202c//release/lib//liball.a(lib_cc.o) (l_cc_sema_id)
/d/3202c/prj/app/demo/dvbc/jade_demo_new_geeya/mcf_data_broadcast_3202c//release/lib//liball.a(lib_hde.o)
                              control.o (hde_set_mode)
/d/3202c/prj/app/demo/dvbc/jade_demo_new_geeya/mcf_data_broadcast_3202c//release/lib//liball.a(lib_monitor.o)
                              control.o (MonitorSwitch)
/d/3202c/prj/app/demo/dvbc/jade_demo_new_geeya/mcf_data_broadcast_3202c//release/lib//liball.a(lib_pub.o)
                              /d/3202c/prj/app/demo/dvbc/jade_demo_new_geeya/mcf_data_broadcast_3202c//release/lib//liball.a(lib_cc.o) (libpub_cmd_handler_register)
/d/3202c/prj/app/demo/dvbc/jade_demo_new_geeya/mcf_data_broadcast_3202c//release/lib//liball.a(lib_as.o)
                              /d/3202c/prj/app/demo/dvbc/jade_demo_new_geeya/mcf_data_broadcast_3202c//release/lib//liball.a(lib_pub.o) (as_service_register)
/d/3202c/prj/app/demo/dvbc/jade_demo_new_geeya/mcf_data_broadcast_3202c//release/lib//liball.a(cas_gy.o)
                              cdca/win_mail.o (gyca_getmail_condition_from_ram)
/d/3202c/prj/app/demo/dvbc/jade_demo_new_geeya/mcf_data_broadcast_3202c//release/lib//liball.a(gy_catask.o)
                              cdca/win_cas_proc.o (gy_get_forcechgchl_info)
/d/3202c/prj/app/demo/dvbc/jade_demo_new_geeya/mcf_data_broadcast_3202c//release/lib//liball.a(gyca_dmx.o)
                              /d/3202c/prj/app/demo/dvbc/jade_demo_new_geeya/mcf_data_broadcast_3202c//release/lib//liball.a(gy_catask.o) (cas_demux_init)
/d/3202c/prj/app/demo/dvbc/jade_demo_new_geeya/mcf_data_broadcast_3202c//release/lib//liball.a(gyca_nvm.o)
                              /d/3202c/prj/app/demo/dvbc/jade_demo_new_geeya/mcf_data_broadcast_3202c//release/lib//libgycas.a(gycas_mmm.o) (GYCA_GetBuffer)
/d/3202c/prj/app/demo/dvbc/jade_demo_new_geeya/mcf_data_broadcast_3202c//release/lib//liball.a(gyca_os.o)
                              /d/3202c/prj/app/demo/dvbc/jade_demo_new_geeya/mcf_data_broadcast_3202c//release/lib//libgycas.a(gycas_mmm.o) (GYCA_GetRandomNumber)
/d/3202c/prj/app/demo/dvbc/jade_demo_new_geeya/mcf_data_broadcast_3202c//release/lib//liball.a(gyca_sc.o)
                              /d/3202c/prj/app/demo/dvbc/jade_demo_new_geeya/mcf_data_broadcast_3202c//release/lib//libgycas.a(gycas_smc.o) (GYCA_SC_DRV_Initialize)
/d/3202c/prj/app/demo/dvbc/jade_demo_new_geeya/mcf_data_broadcast_3202c//release/lib//liball.a(alloc.o)
                              cdca/win_ca_password.o (malloc)
/d/3202c/prj/app/demo/dvbc/jade_demo_new_geeya/mcf_data_broadcast_3202c//release/lib//liball.a(fastCRC.o)
                              copper_common/stb_data.o (MG_Table_Driven_CRC)
/d/3202c/prj/app/demo/dvbc/jade_demo_new_geeya/mcf_data_broadcast_3202c//release/lib//liball.a(printf.o)
                              cdca/win_ca_operator_info.o (sprintf)
/d/3202c/prj/app/demo/dvbc/jade_demo_new_geeya/mcf_data_broadcast_3202c//release/lib//liball.a(string.o)
                              cdca/win_cas_proc.o (ali_rand)
/d/3202c/prj/app/demo/dvbc/jade_demo_new_geeya/mcf_data_broadcast_3202c//release/lib//liball.a(gb_2312.o)
                              cdca/win_ca_operator_info.o (convert_gb2312_to_unicode)
/d/3202c/prj/app/demo/dvbc/jade_demo_new_geeya/mcf_data_broadcast_3202c//release/lib//liball.a(lib_char.o)
                              copper_common/com_epg.o (get_iso639_refcode)
/d/3202c/prj/app/demo/dvbc/jade_demo_new_geeya/mcf_data_broadcast_3202c//release/lib//liball.a(un7zip.o)
                              osd_rsc.o (un7zip)
/d/3202c/prj/app/demo/dvbc/jade_demo_new_geeya/mcf_data_broadcast_3202c//release/lib//liball.a(eit_parser.o)
                              copper_common/com_epg.o (lang2tolang3)
/d/3202c/prj/app/demo/dvbc/jade_demo_new_geeya/mcf_data_broadcast_3202c//release/lib//liball.a(epg_api.o)
                              copper_common/com_api.o (eit_compare_time)
/d/3202c/prj/app/demo/dvbc/jade_demo_new_geeya/mcf_data_broadcast_3202c//release/lib//liball.a(epg_db.o)
                              /d/3202c/prj/app/demo/dvbc/jade_demo_new_geeya/mcf_data_broadcast_3202c//release/lib//liball.a(eit_parser.o) (add_event)
/d/3202c/prj/app/demo/dvbc/jade_demo_new_geeya/mcf_data_broadcast_3202c//release/lib//liball.a(lib_epg.o)
                              /d/3202c/prj/app/demo/dvbc/jade_demo_new_geeya/mcf_data_broadcast_3202c//release/lib//liball.a(epg_api.o) (epg_enter_mutex)
/d/3202c/prj/app/demo/dvbc/jade_demo_new_geeya/mcf_data_broadcast_3202c//release/lib//liball.a(x_alloc.o)
                              /d/3202c/prj/app/demo/dvbc/jade_demo_new_geeya/mcf_data_broadcast_3202c//release/lib//liball.a(epg_db.o) (x_alloc)
/d/3202c/prj/app/demo/dvbc/jade_demo_new_geeya/mcf_data_broadcast_3202c//release/lib//liball.a(lib_nvod.o)
                              win_nvod.o (nvod_get_ref_event_cnt)
/d/3202c/prj/app/demo/dvbc/jade_demo_new_geeya/mcf_data_broadcast_3202c//release/lib//liball.a(psi_db.o)
                              win_search.o (prog_callback_unregister)
/d/3202c/prj/app/demo/dvbc/jade_demo_new_geeya/mcf_data_broadcast_3202c//release/lib//liball.a(si_desc_cab_delivery.o)
                              /d/3202c/prj/app/demo/dvbc/jade_demo_new_geeya/mcf_data_broadcast_3202c//release/lib//liball.a(lib_nvod.o) (si_on_cab_delivery_desc)
/d/3202c/prj/app/demo/dvbc/jade_demo_new_geeya/mcf_data_broadcast_3202c//release/lib//liball.a(si_desc_service_list.o)
                              /d/3202c/prj/app/demo/dvbc/jade_demo_new_geeya/mcf_data_broadcast_3202c//release/lib//liball.a(lib_nvod.o) (nit_on_service_list_desc)
/d/3202c/prj/app/demo/dvbc/jade_demo_new_geeya/mcf_data_broadcast_3202c//release/lib//liball.a(sie.o)
                              /d/3202c/prj/app/demo/dvbc/jade_demo_new_geeya/mcf_data_broadcast_3202c//release/lib//liball.a(lib_pub.o) (sie_module_init)
/d/3202c/prj/app/demo/dvbc/jade_demo_new_geeya/mcf_data_broadcast_3202c//release/lib//liball.a(si_nit.o)
                              /d/3202c/prj/app/demo/dvbc/jade_demo_new_geeya/mcf_data_broadcast_3202c//release/lib//liball.a(lib_nvod.o) (si_nit_parser)
/d/3202c/prj/app/demo/dvbc/jade_demo_new_geeya/mcf_data_broadcast_3202c//release/lib//liball.a(sie_eit.o)
                              /d/3202c/prj/app/demo/dvbc/jade_demo_new_geeya/mcf_data_broadcast_3202c//release/lib//liball.a(lib_epg.o) (start_eit)
/d/3202c/prj/app/demo/dvbc/jade_demo_new_geeya/mcf_data_broadcast_3202c//release/lib//liball.a(sie_monitor_core.o)
                              control.o (sim_open_monitor)
/d/3202c/prj/app/demo/dvbc/jade_demo_new_geeya/mcf_data_broadcast_3202c//release/lib//liball.a(sie_monitor_dtg.o)
                              control.o (sdt_monitor_on)
/d/3202c/prj/app/demo/dvbc/jade_demo_new_geeya/mcf_data_broadcast_3202c//release/lib//liball.a(sie_monitor_query.o)
                              /d/3202c/prj/app/demo/dvbc/jade_demo_new_geeya/mcf_data_broadcast_3202c//release/lib//liball.a(sie_monitor_core.o) (sim_get_prog_pmt_pid)
/d/3202c/prj/app/demo/dvbc/jade_demo_new_geeya/mcf_data_broadcast_3202c//release/lib//liball.a(si_search.o)
                              /d/3202c/prj/app/demo/dvbc/jade_demo_new_geeya/mcf_data_broadcast_3202c//release/lib//liball.a(lib_as.o) (psi_module_init)
/d/3202c/prj/app/demo/dvbc/jade_demo_new_geeya/mcf_data_broadcast_3202c//release/lib//liball.a(si_tdt.o)
                              win_epg.o (mjd_to_ymd)
/d/3202c/prj/app/demo/dvbc/jade_demo_new_geeya/mcf_data_broadcast_3202c//release/lib//liball.a(si_utility.o)
                              copper_common/ota_special.o (bcd2integer)
/d/3202c/prj/app/demo/dvbc/jade_demo_new_geeya/mcf_data_broadcast_3202c//release/lib//liball.a(lib_ota.o)
                              root.o (ota_reg_parse_callback)
/d/3202c/prj/app/demo/dvbc/jade_demo_new_geeya/mcf_data_broadcast_3202c//release/lib//liball.a(chunk.o)
                              /d/3202c/prj/app/demo/dvbc/jade_demo_new_geeya/mcf_data_broadcast_3202c//release/lib//liball.a(lib_ashcmd.o) (fetch_long)
/d/3202c/prj/app/demo/dvbc/jade_demo_new_geeya/mcf_data_broadcast_3202c//release/lib//liball.a(chunk_sto.o)
                              copper_common/backup_loader.o (sto_fetch_long)
/d/3202c/prj/app/demo/dvbc/jade_demo_new_geeya/mcf_data_broadcast_3202c//release/lib//liball.a(db_interface.o)
                              control.o (set_default_value)
/d/3202c/prj/app/demo/dvbc/jade_demo_new_geeya/mcf_data_broadcast_3202c//release/lib//liball.a(db_interface_ext.o)
                              /d/3202c/prj/app/demo/dvbc/jade_demo_new_geeya/mcf_data_broadcast_3202c//release/lib//liball.a(psi_db.o) (DB_STRCMP)
/d/3202c/prj/app/demo/dvbc/jade_demo_new_geeya/mcf_data_broadcast_3202c//release/lib//liball.a(tmp_info.o)
                              copper_common/system_data.o (erase_tmp_sector)
/d/3202c/prj/app/demo/dvbc/jade_demo_new_geeya/mcf_data_broadcast_3202c//release/lib//liball.a(db_plugin_C.o)
                              /d/3202c/prj/app/demo/dvbc/jade_demo_new_geeya/mcf_data_broadcast_3202c//release/lib//liball.a(db_interface.o) (node_packer)
/d/3202c/prj/app/demo/dvbc/jade_demo_new_geeya/mcf_data_broadcast_3202c//release/lib//liball.a(stb_info.o)
                              copper_common/stb_data.o (save_stbinfo_data)
/d/3202c/prj/app/demo/dvbc/jade_demo_new_geeya/mcf_data_broadcast_3202c//release/lib//liball.a(stb_info_data.o)
                              copper_common/backup_loader.o (stb_info_data_get_chunk_by_id)
/d/3202c/prj/app/demo/dvbc/jade_demo_new_geeya/mcf_data_broadcast_3202c//release/lib//liball.a(ge_draw_primitive.o)
                              control.o (app_gui_init)
/d/3202c/prj/app/demo/dvbc/jade_demo_new_geeya/mcf_data_broadcast_3202c//release/lib//liball.a(ge_primitive_init.o)
                              /d/3202c/prj/app/demo/dvbc/jade_demo_new_geeya/mcf_data_broadcast_3202c//release/lib//liball.a(ge_draw_primitive.o) (gelib_delete_rgn)
/d/3202c/prj/app/demo/dvbc/jade_demo_new_geeya/mcf_data_broadcast_3202c//release/lib//liball.a(gecmd_primitive.o)
                              /d/3202c/prj/app/demo/dvbc/jade_demo_new_geeya/mcf_data_broadcast_3202c//release/lib//liball.a(ge_primitive_init.o) (gecmd_getdstrgn)
/d/3202c/prj/app/demo/dvbc/jade_demo_new_geeya/mcf_data_broadcast_3202c//release/lib//liball.a(obj_container.o)
                              game_box.o (OSD_ContainerKeyMap)
/d/3202c/prj/app/demo/dvbc/jade_demo_new_geeya/mcf_data_broadcast_3202c//release/lib//liball.a(obj_editfield.o)
                              cdca/win_ca_watchlevel.o (OSD_SetEditFieldContent)
/d/3202c/prj/app/demo/dvbc/jade_demo_new_geeya/mcf_data_broadcast_3202c//release/lib//liball.a(obj_multitext.o)
                              cdca/win_smc_info.o (OSD_SetMultiTextContent)
/d/3202c/prj/app/demo/dvbc/jade_demo_new_geeya/mcf_data_broadcast_3202c//release/lib//liball.a(obj_objectlist.o)
                              win_com_list.o (OSD_CheckObjListMultiSelect)
/d/3202c/prj/app/demo/dvbc/jade_demo_new_geeya/mcf_data_broadcast_3202c//release/lib//liball.a(obj_textfield.o)
                              cdca/win_ca_operator_info.o (OSD_SetTextFieldContent)
/d/3202c/prj/app/demo/dvbc/jade_demo_new_geeya/mcf_data_broadcast_3202c//release/lib//liball.a(osd_common.o)
                              cdca/win_cas_com.o (ComAscStr2Uni)
/d/3202c/prj/app/demo/dvbc/jade_demo_new_geeya/mcf_data_broadcast_3202c//release/lib//liball.a(osd_common_draw.o)
                              /d/3202c/prj/app/demo/dvbc/jade_demo_new_geeya/mcf_data_broadcast_3202c//release/lib//liball.a(obj_multitext.o) (OSD_DrawChar2Vscr)
/d/3202c/prj/app/demo/dvbc/jade_demo_new_geeya/mcf_data_broadcast_3202c//release/lib//liball.a(osd_lib.o)
                              /d/3202c/prj/app/demo/dvbc/jade_demo_new_geeya/mcf_data_broadcast_3202c//release/lib//liball.a(osd_common_draw.o) (reset_object_record)
/d/3202c/prj/app/demo/dvbc/jade_demo_new_geeya/mcf_data_broadcast_3202c//release/lib//liball.a(osd_plugin.o)
                              game_box.o (OSD_DrawPicture)
/d/3202c/prj/app/demo/dvbc/jade_demo_new_geeya/mcf_data_broadcast_3202c//release/lib//liball.a(osd_popup.o)
                              cdca/win_ca_password.o (OSD_RectBackUp)
/d/3202c/prj/app/demo/dvbc/jade_demo_new_geeya/mcf_data_broadcast_3202c//release/lib//liball.a(osd_window.o)
                              /d/3202c/prj/app/demo/dvbc/jade_demo_new_geeya/mcf_data_broadcast_3202c//release/lib//liball.a(osd_lib.o) (osdwnd_showwnd)
/d/3202c/prj/app/demo/dvbc/jade_demo_new_geeya/mcf_data_broadcast_3202c//release/lib//liball.a(nim_s3202.o)
                              root.o (nim_s3202_attach)
/d/3202c/prj/app/demo/dvbc/jade_demo_new_geeya/mcf_data_broadcast_3202c//release/lib//liball.a(tun_alpstdae.o)
                              board_config.o (tun_alpstdae_init)
/d/3202c/prj/app/demo/dvbc/jade_demo_new_geeya/mcf_data_broadcast_3202c//release/lib//liball.a(tun_dct70701.o)
                              board_config.o (tun_dct70701_init)
/d/3202c/prj/app/demo/dvbc/jade_demo_new_geeya/mcf_data_broadcast_3202c//release/lib//liball.a(tun_rt820.o)
                              board_config.o (tun_rt820_init)
/d/3202c/prj/app/demo/dvbc/jade_demo_new_geeya/mcf_data_broadcast_3202c//release/lib//liball.a(pan_ct1642.o)
                              root.o (pan_ct1642_attach)
/d/3202c/prj/app/demo/dvbc/jade_demo_new_geeya/mcf_data_broadcast_3202c//release/lib//liball.a(pan_tp6x0.o)
                              board_config.o (pan_tp6x0_attach)
/d/3202c/prj/app/demo/dvbc/jade_demo_new_geeya/mcf_data_broadcast_3202c//release/lib//liball.a(smartcard.o)
                              board_config.o (smc_dev_attach)
/d/3202c/prj/app/demo/dvbc/jade_demo_new_geeya/mcf_data_broadcast_3202c//release/lib//liball.a(smc_t1_buffer.o)
                              /d/3202c/prj/app/demo/dvbc/jade_demo_new_geeya/mcf_data_broadcast_3202c//release/lib//liball.a(smartcard.o) (t1_buf_init)
/d/3202c/prj/app/demo/dvbc/jade_demo_new_geeya/mcf_data_broadcast_3202c//release/lib//liball.a(flash_info.o)
                              copper_common/backup_loader.o (flash_sector_size)
/d/3202c/prj/app/demo/dvbc/jade_demo_new_geeya/mcf_data_broadcast_3202c//release/lib//liball.a(flash_info_s.o)
                              root.o (flash_info_sl_init)
/d/3202c/prj/app/demo/dvbc/jade_demo_new_geeya/mcf_data_broadcast_3202c//release/lib//liball.a(flash_raw_sl_c.o)
                              /d/3202c/prj/app/demo/dvbc/jade_demo_new_geeya/mcf_data_broadcast_3202c//release/lib//liball.a(flash_info.o) (sflash_reg_addr)
/d/3202c/prj/app/demo/dvbc/jade_demo_new_geeya/mcf_data_broadcast_3202c//release/lib//liball.a(flash_sl.o)
                              root.o (sto_local_sflash_attach)
/d/3202c/prj/app/demo/dvbc/jade_demo_new_geeya/mcf_data_broadcast_3202c//release/lib//liball.a(sto_flash.o)
                              /d/3202c/prj/app/demo/dvbc/jade_demo_new_geeya/mcf_data_broadcast_3202c//release/lib//liball.a(flash_raw_sl_c.o) (m_EnableSoftProtection)
/d/3202c/prj/app/demo/dvbc/jade_demo_new_geeya/mcf_data_broadcast_3202c//release/lib//liball.a(smc.o)
                              /d/3202c/prj/app/demo/dvbc/jade_demo_new_geeya/mcf_data_broadcast_3202c//release/lib//liball.a(gy_catask.o) (smc_open)
/d/3202c/prj/app/demo/dvbc/jade_demo_new_geeya/mcf_data_broadcast_3202c//release/lib//liball.a(gif_core.o)
                              /d/3202c/prj/app/demo/dvbc/jade_demo_new_geeya/mcf_data_broadcast_3202c//release/lib//liball.a(gif_main.o) (gif_core_set_error)
/d/3202c/prj/app/demo/dvbc/jade_demo_new_geeya/mcf_data_broadcast_3202c//release/lib//liball.a(gif_in.o)
                              /d/3202c/prj/app/demo/dvbc/jade_demo_new_geeya/mcf_data_broadcast_3202c//release/lib//liball.a(gif_core.o) (gif_in_file_set_offset)
/d/3202c/prj/app/demo/dvbc/jade_demo_new_geeya/mcf_data_broadcast_3202c//release/lib//liball.a(gif_info.o)
                              /d/3202c/prj/app/demo/dvbc/jade_demo_new_geeya/mcf_data_broadcast_3202c//release/lib//liball.a(gif_core.o) (gif_info_parse)
/d/3202c/prj/app/demo/dvbc/jade_demo_new_geeya/mcf_data_broadcast_3202c//release/lib//liball.a(gif_list.o)
                              /d/3202c/prj/app/demo/dvbc/jade_demo_new_geeya/mcf_data_broadcast_3202c//release/lib//liball.a(gif_main.o) (gif_list_enter_mutex)
/d/3202c/prj/app/demo/dvbc/jade_demo_new_geeya/mcf_data_broadcast_3202c//release/lib//liball.a(gif_lzw.o)
                              /d/3202c/prj/app/demo/dvbc/jade_demo_new_geeya/mcf_data_broadcast_3202c//release/lib//liball.a(gif_core.o) (gif_lzw_make_ready)
/d/3202c/prj/app/demo/dvbc/jade_demo_new_geeya/mcf_data_broadcast_3202c//release/lib//liball.a(imagedec_acc.o)
                              /d/3202c/prj/app/demo/dvbc/jade_demo_new_geeya/mcf_data_broadcast_3202c//release/lib//liball.a(imagedec_main.o) (jh_hw_reset)
/d/3202c/prj/app/demo/dvbc/jade_demo_new_geeya/mcf_data_broadcast_3202c//release/lib//liball.a(imagedec_exif.o)
                              /d/3202c/prj/app/demo/dvbc/jade_demo_new_geeya/mcf_data_broadcast_3202c//release/lib//liball.a(imagedec_sub.o) (app_exif_decoder)
/d/3202c/prj/app/demo/dvbc/jade_demo_new_geeya/mcf_data_broadcast_3202c//release/lib//liball.a(imagedec_idct.o)
                              /d/3202c/prj/app/demo/dvbc/jade_demo_new_geeya/mcf_data_broadcast_3202c//release/lib//liball.a(imagedec_trans.o) (idct4x4)
/d/3202c/prj/app/demo/dvbc/jade_demo_new_geeya/mcf_data_broadcast_3202c//release/lib//liball.a(png_filter.o)
                              /d/3202c/prj/app/demo/dvbc/jade_demo_new_geeya/mcf_data_broadcast_3202c//release/lib//liball.a(png_inflate.o) (png_filter_scan_line)
/d/3202c/prj/app/demo/dvbc/jade_demo_new_geeya/mcf_data_broadcast_3202c//release/lib//liball.a(png_huf_table.o)
                              /d/3202c/prj/app/demo/dvbc/jade_demo_new_geeya/mcf_data_broadcast_3202c//release/lib//liball.a(png_inflate.o) (png_huf_table)
/d/3202c/prj/app/demo/dvbc/jade_demo_new_geeya/mcf_data_broadcast_3202c//release/lib//liball.a(lib_multiview.o)
                              /d/3202c/prj/app/demo/dvbc/jade_demo_new_geeya/mcf_data_broadcast_3202c//release/lib//liball.a(lib_pub.o) (mv_init)
/d/3202c/prj/app/demo/dvbc/jade_demo_new_geeya/mcf_data_broadcast_3202c//release/lib//liball.a(as_dvbc.o)
                              /d/3202c/prj/app/demo/dvbc/jade_demo_new_geeya/mcf_data_broadcast_3202c//release/lib//liball.a(lib_as.o) (dvbc_init_search_param)
/d/3202c/prj/app/demo/dvbc/jade_demo_new_geeya/mcf_data_broadcast_3202c//release/lib//liball.a(arabic_convert.o)
                              /d/3202c/prj/app/demo/dvbc/jade_demo_new_geeya/mcf_data_broadcast_3202c//release/lib//liball.a(lib_char.o) (hebrew_punctuation_process)
/d/3202c/prj/app/demo/dvbc/jade_demo_new_geeya/mcf_data_broadcast_3202c//release/lib//liball.a(char_map.o)
                              /d/3202c/prj/app/demo/dvbc/jade_demo_new_geeya/mcf_data_broadcast_3202c//release/lib//liball.a(gb_2312.o) (u8u16_lookup)
/d/3202c/prj/app/demo/dvbc/jade_demo_new_geeya/mcf_data_broadcast_3202c//release/lib//liball.a(iso_5937.o)
                              /d/3202c/prj/app/demo/dvbc/jade_demo_new_geeya/mcf_data_broadcast_3202c//release/lib//liball.a(lib_char.o) (iso6937_convert_ch)
/d/3202c/prj/app/demo/dvbc/jade_demo_new_geeya/mcf_data_broadcast_3202c//release/lib//liball.a(Thai.o)
                              /d/3202c/prj/app/demo/dvbc/jade_demo_new_geeya/mcf_data_broadcast_3202c//release/lib//liball.a(obj_multitext.o) (thai_get_cell)
/d/3202c/prj/app/demo/dvbc/jade_demo_new_geeya/mcf_data_broadcast_3202c//release/lib//liball.a(lib_dbc.o)
                              /d/3202c/prj/app/demo/dvbc/jade_demo_new_geeya/mcf_data_broadcast_3202c//release/lib//liball.a(lib_ota.o) (dsi_message)
/d/3202c/prj/app/demo/dvbc/jade_demo_new_geeya/mcf_data_broadcast_3202c//release/lib//liball.a(desc_loop_parser.o)
                              /d/3202c/prj/app/demo/dvbc/jade_demo_new_geeya/mcf_data_broadcast_3202c//release/lib//liball.a(si_nit.o) (desc_loop_parser)
/d/3202c/prj/app/demo/dvbc/jade_demo_new_geeya/mcf_data_broadcast_3202c//release/lib//liball.a(psi_pat.o)
                              /d/3202c/prj/app/demo/dvbc/jade_demo_new_geeya/mcf_data_broadcast_3202c//release/lib//liball.a(si_search.o) (psi_pat_parser)
/d/3202c/prj/app/demo/dvbc/jade_demo_new_geeya/mcf_data_broadcast_3202c//release/lib//liball.a(psi_pmt.o)
                              /d/3202c/prj/app/demo/dvbc/jade_demo_new_geeya/mcf_data_broadcast_3202c//release/lib//liball.a(sie_monitor_core.o) (psi_pmt_parser)
/d/3202c/prj/app/demo/dvbc/jade_demo_new_geeya/mcf_data_broadcast_3202c//release/lib//liball.a(si_sdt.o)
                              /d/3202c/prj/app/demo/dvbc/jade_demo_new_geeya/mcf_data_broadcast_3202c//release/lib//liball.a(si_search.o) (si_sdt_parser)
/d/3202c/prj/app/demo/dvbc/jade_demo_new_geeya/mcf_data_broadcast_3202c//release/lib//liball.a(db_basic_operation.o)
                              /d/3202c/prj/app/demo/dvbc/jade_demo_new_geeya/mcf_data_broadcast_3202c//release/lib//liball.a(db_interface.o) (BO_read_data)
/d/3202c/prj/app/demo/dvbc/jade_demo_new_geeya/mcf_data_broadcast_3202c//release/lib//liball.a(db_data_object.o)
                              /d/3202c/prj/app/demo/dvbc/jade_demo_new_geeya/mcf_data_broadcast_3202c//release/lib//liball.a(db_interface.o) (DO_set_table_node_length)
/d/3202c/prj/app/demo/dvbc/jade_demo_new_geeya/mcf_data_broadcast_3202c//release/lib//liball.a(db_node_api.o)
                              /d/3202c/prj/app/demo/dvbc/jade_demo_new_geeya/mcf_data_broadcast_3202c//release/lib//liball.a(db_interface.o) (DB_clear_cmd_buf)
/d/3202c/prj/app/demo/dvbc/jade_demo_new_geeya/mcf_data_broadcast_3202c//release/lib//liball.a(db_reclaim_ext.o)
                              /d/3202c/prj/app/demo/dvbc/jade_demo_new_geeya/mcf_data_broadcast_3202c//release/lib//liball.a(db_interface.o) (DB_reclaim_write_header)
/d/3202c/prj/app/demo/dvbc/jade_demo_new_geeya/mcf_data_broadcast_3202c//release/lib//liball.a(gelib_effects.o)
                              /d/3202c/prj/app/demo/dvbc/jade_demo_new_geeya/mcf_data_broadcast_3202c//release/lib//liball.a(obj_container.o) (gelib_item_focuslide)
/d/3202c/prj/app/demo/dvbc/jade_demo_new_geeya/mcf_data_broadcast_3202c//release/lib//liball.a(obj_bitmap.o)
                              /d/3202c/prj/app/demo/dvbc/jade_demo_new_geeya/mcf_data_broadcast_3202c//release/lib//liball.a(osd_lib.o) (OSD_DrawBitmapCell)
/d/3202c/prj/app/demo/dvbc/jade_demo_new_geeya/mcf_data_broadcast_3202c//release/lib//liball.a(obj_list.o)
                              /d/3202c/prj/app/demo/dvbc/jade_demo_new_geeya/mcf_data_broadcast_3202c//release/lib//liball.a(osd_lib.o) (OSD_DrawListCell)
/d/3202c/prj/app/demo/dvbc/jade_demo_new_geeya/mcf_data_broadcast_3202c//release/lib//liball.a(obj_matrixbox.o)
                              /d/3202c/prj/app/demo/dvbc/jade_demo_new_geeya/mcf_data_broadcast_3202c//release/lib//liball.a(osd_lib.o) (OSD_DrawMatrixBoxCell)
/d/3202c/prj/app/demo/dvbc/jade_demo_new_geeya/mcf_data_broadcast_3202c//release/lib//liball.a(obj_multisel.o)
                              /d/3202c/prj/app/demo/dvbc/jade_demo_new_geeya/mcf_data_broadcast_3202c//release/lib//liball.a(osd_lib.o) (OSD_DrawMultiselCell)
/d/3202c/prj/app/demo/dvbc/jade_demo_new_geeya/mcf_data_broadcast_3202c//release/lib//liball.a(obj_progressbar.o)
                              /d/3202c/prj/app/demo/dvbc/jade_demo_new_geeya/mcf_data_broadcast_3202c//release/lib//liball.a(osd_lib.o) (OSD_DrawProgressBarCell)
/d/3202c/prj/app/demo/dvbc/jade_demo_new_geeya/mcf_data_broadcast_3202c//release/lib//liball.a(obj_scrollbar.o)
                              /d/3202c/prj/app/demo/dvbc/jade_demo_new_geeya/mcf_data_broadcast_3202c//release/lib//liball.a(osd_lib.o) (OSD_DrawScrollBarCell)
/d/3202c/prj/app/demo/dvbc/jade_demo_new_geeya/mcf_data_broadcast_3202c//release/lib//liball.a(R820C.o)
                              /d/3202c/prj/app/demo/dvbc/jade_demo_new_geeya/mcf_data_broadcast_3202c//release/lib//liball.a(tun_rt820.o) (R828_Init)
/d/3202c/prj/app/demo/dvbc/jade_demo_new_geeya/mcf_data_broadcast_3202c//release/lib//liball.a(irc_6303.o)
                              /d/3202c/prj/app/demo/dvbc/jade_demo_new_geeya/mcf_data_broadcast_3202c//release/lib//liball.a(pan_ct1642.o) (irc_m6303irc_init)
/d/3202c/prj/app/demo/dvbc/jade_demo_new_geeya/mcf_data_broadcast_3202c//release/lib//liball.a(flash_data.o)
                              /d/3202c/prj/app/demo/dvbc/jade_demo_new_geeya/mcf_data_broadcast_3202c//release/lib//liball.a(flash_info.o) (tflash_cmdaddr)
/d/3202c/prj/app/demo/dvbc/jade_demo_new_geeya/mcf_data_broadcast_3202c//release/lib//liball.a(flash_data_s.o)
                              /d/3202c/prj/app/demo/dvbc/jade_demo_new_geeya/mcf_data_broadcast_3202c//release/lib//liball.a(flash_info_s.o) (sflash_deviceid)
/d/3202c/prj/app/demo/dvbc/jade_demo_new_geeya/mcf_data_broadcast_3202c//release/lib//liball.a(irc_std.o)
                              /d/3202c/prj/app/demo/dvbc/jade_demo_new_geeya/mcf_data_broadcast_3202c//release/lib//liball.a(irc_6303.o) (irc_pulse_to_code)
/d/3202c//sdk/libcore.a(cache.o)
                              /d/3202c/prj/app/demo/dvbc/jade_demo_new_geeya/mcf_data_broadcast_3202c//release/lib//liball.a(imagedec.o) (osal_tds2_cache_flush)
/d/3202c//sdk/libcore.a(tds_mips.o)
                              ../../../../../sdk/boot.o (INT_General_Exception_Hdlr)
/d/3202c//sdk/libcore.a(power_down_detect.o)
                              root.o (pdd_init)
/d/3202c//sdk/libcore.a(sgdma_m36.o)
                              root.o (dma_init)
/d/3202c//sdk/libcore.a(sgdma_m36_reg.o)
                              /d/3202c//sdk/libcore.a(sgdma_m36.o) (sgdma_set_lst_base)
/d/3202c//sdk/libcore.a(tsi_m3202.o)
                              root.o (tsi_m3202_mode_set)
/d/3202c//sdk/libcore.a(deca_m33_dolby.o)
                              root.o (deca_dolby_decode_enable)
/d/3202c//sdk/libcore.a(deca_m33_init_ext.o)
                              root.o (deca_m33_attach)
/d/3202c//sdk/libcore.a(deca_m33_tone.o)
                              root.o (deca_init_tone_voice)
/d/3202c//sdk/libcore.a(feature_extra_dv.o)
                              root.o (vdec_enable_extra_dview_feature)
/d/3202c//sdk/libcore.a(sw_scale.o)
                              /d/3202c//sdk/libcore.a(feature_extra_dv.o) (gen_ruler)
/d/3202c//sdk/libcore.a(vdec_m3327.o)
                              /d/3202c/prj/app/demo/dvbc/jade_demo_new_geeya/mcf_data_broadcast_3202c//release/lib//liball.a(lib_multiview.o) (g_vdec_FirstPIPInChanGot)
/d/3202c//sdk/libcore.a(vdec_m3327_init_ext.o)
                              root.o (vdec_m3327_get_mem_info)
/d/3202c//sdk/libcore.a(tv_enc.o)
                              root.o (tve_advance_config)
/d/3202c//sdk/libcore.a(vpo_m3327_init_ext.o)
                              root.o (vpo_m33_attach)
/d/3202c//sdk/libcore.a(dmx_m33_api_ext.o)
                              root.o (dmx_m33_attach)
/d/3202c//sdk/libcore.a(dmx_m33_ca.o)
                              root.o (dmx_ca_enable)
/d/3202c//sdk/libcore.a(dmx_m33_dbg.o)
                              /d/3202c//sdk/libcore.a(dmx_m33_ca.o) (g_DmxDbgCtrl)
/d/3202c//sdk/libcore.a(dmx_m33_dma.o)
                              /d/3202c//sdk/libcore.a(dmx_m33_api_ext.o) (dmx_m33_dma_enable)
/d/3202c//sdk/libcore.a(dmx_m33_pes.o)
                              /d/3202c//sdk/libcore.a(dmx_m33_dbg.o) (dmx_m33_parse_pes)
/d/3202c//sdk/libcore.a(dmx_m33_reg.o)
                              /d/3202c//sdk/libcore.a(dmx_m33_ca.o) (dmx_m33_en_dmx)
/d/3202c//sdk/libcore.a(dmx_m33_sec.o)
                              /d/3202c//sdk/libcore.a(dmx_m33_ca.o) (dmx_m33_req_filter)
/d/3202c//sdk/libcore.a(dmx_m33_stc.o)
                              /d/3202c//sdk/libcore.a(dmx_m33_pes.o) (dmx_m33_adjust_stc)
/d/3202c//sdk/libcore.a(ge_m33.o)
                              root.o (ge_m33e_enable_16M)
/d/3202c//sdk/libcore.a(osd_s3601.o)
                              root.o (osd_s36_attach)
/d/3202c//sdk/libcore.a(snd_m33_init_ext.o)
                              board_config.o (snd_m33_attach)
/d/3202c//sdk/libcore.a(snd_m33_reg.o)
                              /d/3202c//sdk/libcore.a(snd_m33_init_ext.o) (snd_m33_stc_pause)
/d/3202c//sdk/libcore.a(snd_m33_spectrum.o)
                              root.o (snd_init_spectrum)
/d/3202c//sdk/libcore.a(snd_m33_tone.o)
                              root.o (snd_init_tone_voice)
/d/3202c//sdk/libcore.a(flag.o)
                              /d/3202c/prj/app/demo/dvbc/jade_demo_new_geeya/mcf_data_broadcast_3202c//release/lib//liball.a(gif_main.o) (OS_CreateFlag)
/d/3202c//sdk/libcore.a(hsr.o)
                              /d/3202c/prj/app/demo/dvbc/jade_demo_new_geeya/mcf_data_broadcast_3202c//release/lib//liball.a(smartcard.o) (OS_RegisterHSR)
/d/3202c//sdk/libcore.a(Interrupt.o)
                              cdca/win_cas_proc.o (OS_DisableInterrupt)
/d/3202c//sdk/libcore.a(irq.o)
                              /d/3202c//sdk/libcore.a(tds_mips.o) (irq_handler)
/d/3202c//sdk/libcore.a(mbuffer.o)
                              control.o (OS_CreateMsgBuffer)
/d/3202c//sdk/libcore.a(mutex.o)
                              cdca/win_osdmsg.o (OS_CreateMutex)
/d/3202c//sdk/libcore.a(queue.o)
                              /d/3202c//sdk/libcore.a(flag.o) (queue_initialize)
/d/3202c//sdk/libcore.a(sched_mq.o)
                              copper_common/stb_hwinfo.o (OS_EnableDispatch)
/d/3202c//sdk/libcore.a(semapho.o)
                              copper_common/bat_private.o (OS_CreateSemaphore)
/d/3202c//sdk/libcore.a(task.o)
                              /d/3202c//sdk/libcore.a(tds_mips.o) (g_bDispatch)
/d/3202c//sdk/libcore.a(taskc.o)
                              /d/3202c//sdk/libcore.a(sched_mq.o) (g_Top_Pri)
/d/3202c//sdk/libcore.a(tds.o)
                              /d/3202c//sdk/libcore.a(tds_mips.o) (irq_msk)
/d/3202c//sdk/libcore.a(timeout.o)
                              control.o (OS_GetTime)
/d/3202c//sdk/libcore.a(timerc.o)
                              /d/3202c//sdk/libcore.a(tds.o) (InitTimer)
/d/3202c//sdk/libcore.a(version.o)
                              win_stb_info.o (libcore_banner)
/d/3202c//sdk/libcore.a(mips_suspend.o)
                              /d/3202c//sdk/libcore.a(power_down_detect.o) (cpu_suspend)
/d/3202c//sdk/libcore.a(scale.o)
                              /d/3202c//sdk/libcore.a(sw_scale.o) (luma_scale)
/d/3202c//sdk/libcore.a(scale_c.o)
                              /d/3202c//sdk/libcore.a(sw_scale.o) (chroma_scale)
/d/3202c//sdk/libcore.a(Sched.o)
                              /d/3202c//sdk/libcore.a(flag.o) (OS_TaskDispatch)
/d/3202c//sdk/libcore.a(deca_m33.o)
                              /d/3202c//sdk/libcore.a(deca_m33_init_ext.o) (deca_task_stack_size)
/d/3202c//sdk/libcore.a(deca_m33_ase.o)
                              /d/3202c//sdk/libcore.a(deca_m33_init_ext.o) (deca_m33_init_ase)
/d/3202c//sdk/libcore.a(vpo_driver.o)
                              /d/3202c//sdk/libcore.a(vpo_m3327_init_ext.o) (g_vpo_sys_chip_id)
/d/3202c//sdk/libcore.a(dmx_m33.o)
                              /d/3202c//sdk/libcore.a(dmx_m33_ca.o) (dmx_m33_set_pid)
/d/3202c//sdk/libcore.a(dmx_m33_api.o)
                              /d/3202c//sdk/libcore.a(dmx_m33_pes.o) (dvr_supported)
/d/3202c//sdk/libcore.a(ge_hal.o)
                              /d/3202c//sdk/libcore.a(ge_m33.o) (g_ge_m3202c_enable)
/d/3202c//sdk/libcore.a(ge_lld.o)
                              /d/3202c//sdk/libcore.a(ge_m33.o) (osd_sdram_16M_flag_29e)
/d/3202c//sdk/libcore.a(fix_fft.o)
                              /d/3202c//sdk/libcore.a(snd_m33_spectrum.o) (spectrum_fix_fft)
/d/3202c//sdk/libcore.a(snd_m33.o)
                              /d/3202c//sdk/libcore.a(snd_m33_init_ext.o) (snd_exist_mute_gpio)
/d/3202c//sdk/libcore.a(mempool.o)
                              /d/3202c//sdk/libcore.a(taskc.o) (i_pget_blk)
/d/3202c//sdk/liblog.a(stdio.o)
                              win_manual_search.o (soc_printf)
/d/3202c//sdk/libyamadhw.a(frame.o)
                              /d/3202c//sdk/libcore.a(deca_m33.o) (yamad_decode_frame)
/d/3202c//sdk/libyamadhw.a(layer12.o)
                              /d/3202c//sdk/libyamadhw.a(frame.o) (yamad_decode_layer1)
/d/3202c//sdk/libyamadhw.a(stream.o)
                              /d/3202c//sdk/libcore.a(deca_m33.o) (yamad_init_stream)
/d/3202c//sdk/libyamadhw.a(synth.o)
                              /d/3202c//sdk/libyamadhw.a(layer12.o) (yamad_synthesis)
/d/3202c//sdk/libyamadhw.a(bitptr.o)
                              /d/3202c//sdk/libyamadhw.a(layer12.o) (yamad_init_bitp)
/d/3202c//sdk/lib7zip.a(LzmaDecode.o)
                              /d/3202c/prj/app/demo/dvbc/jade_demo_new_geeya/mcf_data_broadcast_3202c//release/lib//liball.a(un7zip.o) (LzmaDecode)
/D/ALi_IDE_2.1/compilers/gcc3.0.4/mips-t2-elf/lib/soft-float/el/libm.a(s_isinf.o)
                              /d/3202c/prj/app/demo/dvbc/jade_demo_new_geeya/mcf_data_broadcast_3202c//release/lib//liball.a(printf.o) (isinf)
/D/ALi_IDE_2.1/compilers/gcc3.0.4/mips-t2-elf/lib/soft-float/el/libm.a(s_isnan.o)
                              /d/3202c/prj/app/demo/dvbc/jade_demo_new_geeya/mcf_data_broadcast_3202c//release/lib//liball.a(printf.o) (isnan)
/D/ALi_IDE_2.1/compilers/gcc3.0.4/lib/gcc-lib/mips-t2-elf/3.0.4/soft-float/el/libgcc.a(_divdi3.o)
                              /d/3202c//sdk/libcore.a(vpo_driver.o) (__divdi3)
/D/ALi_IDE_2.1/compilers/gcc3.0.4/lib/gcc-lib/mips-t2-elf/3.0.4/soft-float/el/libgcc.a(_moddi3.o)
                              /d/3202c//sdk/libcore.a(vpo_driver.o) (__moddi3)
/D/ALi_IDE_2.1/compilers/gcc3.0.4/lib/gcc-lib/mips-t2-elf/3.0.4/soft-float/el/libgcc.a(_udivdi3.o)
                              /d/3202c/prj/app/demo/dvbc/jade_demo_new_geeya/mcf_data_broadcast_3202c//release/lib//liball.a(printf.o) (__udivdi3)
/D/ALi_IDE_2.1/compilers/gcc3.0.4/lib/gcc-lib/mips-t2-elf/3.0.4/soft-float/el/libgcc.a(_umoddi3.o)
                              /d/3202c/prj/app/demo/dvbc/jade_demo_new_geeya/mcf_data_broadcast_3202c//release/lib//liball.a(printf.o) (__umoddi3)
/D/ALi_IDE_2.1/compilers/gcc3.0.4/lib/gcc-lib/mips-t2-elf/3.0.4/soft-float/el/libgcc.a(_clz.o)
                              /D/ALi_IDE_2.1/compilers/gcc3.0.4/lib/gcc-lib/mips-t2-elf/3.0.4/soft-float/el/libgcc.a(_divdi3.o) (__clz_tab)
/D/ALi_IDE_2.1/compilers/gcc3.0.4/lib/gcc-lib/mips-t2-elf/3.0.4/soft-float/el/libgcc.a(_addsub_sf.o)
                              /d/3202c//sdk/libcore.a(osd_s3601.o) (fpadd)
/D/ALi_IDE_2.1/compilers/gcc3.0.4/lib/gcc-lib/mips-t2-elf/3.0.4/soft-float/el/libgcc.a(_mul_sf.o)
                              /d/3202c//sdk/libcore.a(osd_s3601.o) (fpmul)
/D/ALi_IDE_2.1/compilers/gcc3.0.4/lib/gcc-lib/mips-t2-elf/3.0.4/soft-float/el/libgcc.a(_div_sf.o)
                              /d/3202c//sdk/libcore.a(osd_s3601.o) (fpdiv)
/D/ALi_IDE_2.1/compilers/gcc3.0.4/lib/gcc-lib/mips-t2-elf/3.0.4/soft-float/el/libgcc.a(_compare_sf.o)
                              /d/3202c//sdk/libcore.a(vpo_driver.o) (fpcmp)
/D/ALi_IDE_2.1/compilers/gcc3.0.4/lib/gcc-lib/mips-t2-elf/3.0.4/soft-float/el/libgcc.a(_si_to_sf.o)
                              /d/3202c//sdk/libcore.a(osd_s3601.o) (sitofp)
/D/ALi_IDE_2.1/compilers/gcc3.0.4/lib/gcc-lib/mips-t2-elf/3.0.4/soft-float/el/libgcc.a(_sf_to_df.o)
                              /d/3202c//sdk/libcore.a(osd_s3601.o) (fptodp)
/D/ALi_IDE_2.1/compilers/gcc3.0.4/lib/gcc-lib/mips-t2-elf/3.0.4/soft-float/el/libgcc.a(_thenan_sf.o)
                              /D/ALi_IDE_2.1/compilers/gcc3.0.4/lib/gcc-lib/mips-t2-elf/3.0.4/soft-float/el/libgcc.a(_addsub_sf.o) (__thenan_sf)
/D/ALi_IDE_2.1/compilers/gcc3.0.4/lib/gcc-lib/mips-t2-elf/3.0.4/soft-float/el/libgcc.a(_sf_to_usi.o)
                              /d/3202c//sdk/libcore.a(vpo_driver.o) (fptoui)
/D/ALi_IDE_2.1/compilers/gcc3.0.4/lib/gcc-lib/mips-t2-elf/3.0.4/soft-float/el/libgcc.a(_addsub_df.o)
                              cdca/win_mail.o (dpadd)
/D/ALi_IDE_2.1/compilers/gcc3.0.4/lib/gcc-lib/mips-t2-elf/3.0.4/soft-float/el/libgcc.a(_mul_df.o)
                              cdca/win_mail.o (dpmul)
/D/ALi_IDE_2.1/compilers/gcc3.0.4/lib/gcc-lib/mips-t2-elf/3.0.4/soft-float/el/libgcc.a(_div_df.o)
                              cdca/win_mail.o (dpdiv)
/D/ALi_IDE_2.1/compilers/gcc3.0.4/lib/gcc-lib/mips-t2-elf/3.0.4/soft-float/el/libgcc.a(_compare_df.o)
                              /d/3202c/prj/app/demo/dvbc/jade_demo_new_geeya/mcf_data_broadcast_3202c//release/lib//liball.a(printf.o) (dpcmp)
/D/ALi_IDE_2.1/compilers/gcc3.0.4/lib/gcc-lib/mips-t2-elf/3.0.4/soft-float/el/libgcc.a(_si_to_df.o)
                              cdca/win_mail.o (litodp)
/D/ALi_IDE_2.1/compilers/gcc3.0.4/lib/gcc-lib/mips-t2-elf/3.0.4/soft-float/el/libgcc.a(_df_to_si.o)
                              /d/3202c/prj/app/demo/dvbc/jade_demo_new_geeya/mcf_data_broadcast_3202c//release/lib//liball.a(printf.o) (dptoli)
/D/ALi_IDE_2.1/compilers/gcc3.0.4/lib/gcc-lib/mips-t2-elf/3.0.4/soft-float/el/libgcc.a(_make_df.o)
                              /D/ALi_IDE_2.1/compilers/gcc3.0.4/lib/gcc-lib/mips-t2-elf/3.0.4/soft-float/el/libgcc.a(_sf_to_df.o) (__make_dp)
/D/ALi_IDE_2.1/compilers/gcc3.0.4/lib/gcc-lib/mips-t2-elf/3.0.4/soft-float/el/libgcc.a(_thenan_df.o)
                              /D/ALi_IDE_2.1/compilers/gcc3.0.4/lib/gcc-lib/mips-t2-elf/3.0.4/soft-float/el/libgcc.a(_addsub_df.o) (__thenan_df)
/D/ALi_IDE_2.1/compilers/gcc3.0.4/lib/gcc-lib/mips-t2-elf/3.0.4/soft-float/el/libgcc.a(_df_to_usi.o)
                              cdca/win_mail.o (dptoul)
/D/ALi_IDE_2.1/compilers/gcc3.0.4/lib/gcc-lib/mips-t2-elf/3.0.4/soft-float/el/libgcc.a(_pack_sf.o)
                              /D/ALi_IDE_2.1/compilers/gcc3.0.4/lib/gcc-lib/mips-t2-elf/3.0.4/soft-float/el/libgcc.a(_addsub_sf.o) (__pack_f)
/D/ALi_IDE_2.1/compilers/gcc3.0.4/lib/gcc-lib/mips-t2-elf/3.0.4/soft-float/el/libgcc.a(_unpack_sf.o)
                              /D/ALi_IDE_2.1/compilers/gcc3.0.4/lib/gcc-lib/mips-t2-elf/3.0.4/soft-float/el/libgcc.a(_addsub_sf.o) (__unpack_f)
/D/ALi_IDE_2.1/compilers/gcc3.0.4/lib/gcc-lib/mips-t2-elf/3.0.4/soft-float/el/libgcc.a(_fpcmp_parts_sf.o)
                              /D/ALi_IDE_2.1/compilers/gcc3.0.4/lib/gcc-lib/mips-t2-elf/3.0.4/soft-float/el/libgcc.a(_compare_sf.o) (__fpcmp_parts_f)
/D/ALi_IDE_2.1/compilers/gcc3.0.4/lib/gcc-lib/mips-t2-elf/3.0.4/soft-float/el/libgcc.a(_pack_df.o)
                              /D/ALi_IDE_2.1/compilers/gcc3.0.4/lib/gcc-lib/mips-t2-elf/3.0.4/soft-float/el/libgcc.a(_addsub_df.o) (__pack_d)
/D/ALi_IDE_2.1/compilers/gcc3.0.4/lib/gcc-lib/mips-t2-elf/3.0.4/soft-float/el/libgcc.a(_unpack_df.o)
                              /D/ALi_IDE_2.1/compilers/gcc3.0.4/lib/gcc-lib/mips-t2-elf/3.0.4/soft-float/el/libgcc.a(_addsub_df.o) (__unpack_d)
/D/ALi_IDE_2.1/compilers/gcc3.0.4/lib/gcc-lib/mips-t2-elf/3.0.4/soft-float/el/libgcc.a(_fpcmp_parts_df.o)
                              /D/ALi_IDE_2.1/compilers/gcc3.0.4/lib/gcc-lib/mips-t2-elf/3.0.4/soft-float/el/libgcc.a(_compare_df.o) (__fpcmp_parts_d)
/D/ALi_IDE_2.1/compilers/gcc3.0.4/mips-t2-elf/lib/soft-float/el/libc.a(isdigit.o)
                              /d/3202c/prj/app/demo/dvbc/jade_demo_new_geeya/mcf_data_broadcast_3202c//release/lib//liball.a(string.o) (isdigit)
/D/ALi_IDE_2.1/compilers/gcc3.0.4/mips-t2-elf/lib/soft-float/el/libc.a(isspace.o)
                              /d/3202c/prj/app/demo/dvbc/jade_demo_new_geeya/mcf_data_broadcast_3202c//release/lib//liball.a(string.o) (isspace)
/D/ALi_IDE_2.1/compilers/gcc3.0.4/mips-t2-elf/lib/soft-float/el/libc.a(strcat.o)
                              /d/3202c/prj/app/demo/dvbc/jade_demo_new_geeya/mcf_data_broadcast_3202c//release/lib//liball.a(printf.o) (strcat)
/D/ALi_IDE_2.1/compilers/gcc3.0.4/mips-t2-elf/lib/soft-float/el/libc.a(strchr.o)
                              /d/3202c/prj/app/demo/dvbc/jade_demo_new_geeya/mcf_data_broadcast_3202c//release/lib//liball.a(printf.o) (strchr)
/D/ALi_IDE_2.1/compilers/gcc3.0.4/mips-t2-elf/lib/soft-float/el/libc.a(strtol.o)
                              /d/3202c/prj/app/demo/dvbc/jade_demo_new_geeya/mcf_data_broadcast_3202c//release/lib//liball.a(printf.o) (strtol)
/D/ALi_IDE_2.1/compilers/gcc3.0.4/mips-t2-elf/lib/soft-float/el/libc.a(strtoul.o)
                              /d/3202c/prj/app/demo/dvbc/jade_demo_new_geeya/mcf_data_broadcast_3202c//release/lib//liball.a(printf.o) (strtoul)
/D/ALi_IDE_2.1/compilers/gcc3.0.4/mips-t2-elf/lib/soft-float/el/libc.a(ctype_.o)
                              /D/ALi_IDE_2.1/compilers/gcc3.0.4/mips-t2-elf/lib/soft-float/el/libc.a(isdigit.o) (_ctype_)
/D/ALi_IDE_2.1/compilers/gcc3.0.4/mips-t2-elf/lib/soft-float/el/libc.a(impure.o)
                              /D/ALi_IDE_2.1/compilers/gcc3.0.4/mips-t2-elf/lib/soft-float/el/libc.a(strtol.o) (_impure_ptr)

Allocating common symbols
Common symbol       size              file

_bytes_used         0x4               /d/3202c/prj/app/demo/dvbc/jade_demo_new_geeya/mcf_data_broadcast_3202c//release/lib//liball.a(alloc.o)
IRQStack            0x4000            ../../../../../sdk/boot.o
epg_sch_weekday     0x34              win_epg.o
g_MP_Video_Info     0x40              /d/3202c//sdk/libcore.a(vpo_m3327_init_ext.o)
g_gui_msize         0x4               /d/3202c/prj/app/demo/dvbc/jade_demo_new_geeya/mcf_data_broadcast_3202c//release/lib//liball.a(ge_draw_primitive.o)
gelib_drawbmp       0x4               /d/3202c/prj/app/demo/dvbc/jade_demo_new_geeya/mcf_data_broadcast_3202c//release/lib//liball.a(ge_primitive_init.o)
dest_w_c            0x4               /d/3202c//sdk/libcore.a(sw_scale.o)
__malloc_hook       0x4               /d/3202c/prj/app/demo/dvbc/jade_demo_new_geeya/mcf_data_broadcast_3202c//release/lib//liball.a(alloc.o)
g_gui_coeff         0x10              /d/3202c/prj/app/demo/dvbc/jade_demo_new_geeya/mcf_data_broadcast_3202c//release/lib//liball.a(ge_draw_primitive.o)
m_pathIndex         0x2               game_box.o
gelib_blend_rgn     0x4               /d/3202c/prj/app/demo/dvbc/jade_demo_new_geeya/mcf_data_broadcast_3202c//release/lib//liball.a(ge_primitive_init.o)
temp_IDCT_buf2      0x4               /d/3202c/prj/app/demo/dvbc/jade_demo_new_geeya/mcf_data_broadcast_3202c//release/lib//liball.a(imagedec_main.o)
g_gif_main          0x4               /d/3202c/prj/app/demo/dvbc/jade_demo_new_geeya/mcf_data_broadcast_3202c//release/lib//liball.a(gif_main.o)
GUI_SURF_TYPE       0x4               board_config.o
gelib_delete_rgn    0x4               /d/3202c/prj/app/demo/dvbc/jade_demo_new_geeya/mcf_data_broadcast_3202c//release/lib//liball.a(ge_primitive_init.o)
gelib_set_pallette  0x4               /d/3202c/prj/app/demo/dvbc/jade_demo_new_geeya/mcf_data_broadcast_3202c//release/lib//liball.a(ge_primitive_init.o)
g_imagedec_vpo_device
                    0x4               /d/3202c/prj/app/demo/dvbc/jade_demo_new_geeya/mcf_data_broadcast_3202c//release/lib//liball.a(imagedec.o)
gelib_update2scrn   0x4               /d/3202c/prj/app/demo/dvbc/jade_demo_new_geeya/mcf_data_broadcast_3202c//release/lib//liball.a(ge_primitive_init.o)
dmx_priv_fp         0x70              /d/3202c//sdk/libcore.a(dmx_m33_api.o)
m_TheMapsMoveWaySavePoint
                    0x1               game_box.o
_fraghead           0x60              /d/3202c/prj/app/demo/dvbc/jade_demo_new_geeya/mcf_data_broadcast_3202c//release/lib//liball.a(alloc.o)
ts_extra_video_cb_len
                    0x2               /d/3202c//sdk/libcore.a(dmx_m33_api.o)
g_current_second    0x4               /d/3202c//sdk/libcore.a(timerc.o)
g_gif_out_img       0x4               /d/3202c/prj/app/demo/dvbc/jade_demo_new_geeya/mcf_data_broadcast_3202c//release/lib//liball.a(gif.o)
m_y                 0x1               game_box.o
gelib_lineto        0x4               /d/3202c/prj/app/demo/dvbc/jade_demo_new_geeya/mcf_data_broadcast_3202c//release/lib//liball.a(ge_primitive_init.o)
gelib_drawline      0x4               /d/3202c/prj/app/demo/dvbc/jade_demo_new_geeya/mcf_data_broadcast_3202c//release/lib//liball.a(ge_primitive_init.o)
g_gif_out_enter     0x4               /d/3202c/prj/app/demo/dvbc/jade_demo_new_geeya/mcf_data_broadcast_3202c//release/lib//liball.a(gif.o)
AvSyncInfo          0x2d0             /d/3202c//sdk/libcore.a(dmx_m33_api.o)
gycas_notice        0x64              /d/3202c/prj/app/demo/dvbc/jade_demo_new_geeya/mcf_data_broadcast_3202c//release/lib//liball.a(gy_catask.o)
snd_chip_type_config
                    0x1               /d/3202c/prj/app/demo/dvbc/jade_demo_new_geeya/mcf_data_broadcast_3202c//release/lib//liball.a(snd.o)
g_memrgn_tbl        0x4               /d/3202c/prj/app/demo/dvbc/jade_demo_new_geeya/mcf_data_broadcast_3202c//release/lib//liball.a(ge_draw_primitive.o)
flash_info          0x44              copper_common/backup_loader.o
epg_book_bmp2       0x30              win_epg.o
ts_ttx_tmp_cb_len   0x2               /d/3202c//sdk/libcore.a(dmx_m33_api.o)
currentVmVer        0x1               /d/3202c/prj/app/demo/dvbc/jade_demo_new_geeya/mcf_data_broadcast_3202c//release/lib//libgycas.a(gycas_mgr.o)
g_imagedec_wait_flag
                    0x4               /d/3202c/prj/app/demo/dvbc/jade_demo_new_geeya/mcf_data_broadcast_3202c//release/lib//liball.a(imagedec.o)
lock_status         0x1               key.o
gelib_drawfont      0x4               /d/3202c/prj/app/demo/dvbc/jade_demo_new_geeya/mcf_data_broadcast_3202c//release/lib//liball.a(ge_primitive_init.o)
reg                 0x20              /d/3202c/prj/app/demo/dvbc/jade_demo_new_geeya/mcf_data_broadcast_3202c//release/lib//libgycas.a(gycas_vm.o)
nvod_pre_pnode      0xa0              /d/3202c/prj/app/demo/dvbc/jade_demo_new_geeya/mcf_data_broadcast_3202c//release/lib//liball.a(lib_nvod.o)
g_MP_Panscan        0x18              /d/3202c//sdk/libcore.a(vpo_m3327_init_ext.o)
gelib_getdstrgn     0x4               /d/3202c/prj/app/demo/dvbc/jade_demo_new_geeya/mcf_data_broadcast_3202c//release/lib//liball.a(ge_primitive_init.o)
timer_set_modify_add_flag
                    0x1               win_timer_set.o
pdd_chip_id         0x4               /d/3202c//sdk/libcore.a(power_down_detect.o)
_chunks_free        0x4               /d/3202c/prj/app/demo/dvbc/jade_demo_new_geeya/mcf_data_broadcast_3202c//release/lib//liball.a(alloc.o)
m_mapsizey          0x1               game_box.o
osdmsg_mutex_id     0x4               cdca/win_osdmsg.o
gui_design_dimension
                    0x4               /d/3202c/prj/app/demo/dvbc/jade_demo_new_geeya/mcf_data_broadcast_3202c//release/lib//liball.a(ge_primitive_init.o)
current_prg_number  0x2               win_chan_edit.o
__errno             0x4               root.o
codeMem             0x4000            /d/3202c/prj/app/demo/dvbc/jade_demo_new_geeya/mcf_data_broadcast_3202c//release/lib//libgycas.a(gycas_vm.o)
system_config       0xd28             copper_common/system_data.o
pcm_frm_header      0x10              /d/3202c//sdk/libcore.a(snd_m33_tone.o)
libpub_flag_id      0x4               /d/3202c/prj/app/demo/dvbc/jade_demo_new_geeya/mcf_data_broadcast_3202c//release/lib//liball.a(lib_pub.o)
current_prg_name    0x3c              win_chan_edit.o
i2c_dev_ext         0xc               board_config.o
g_dc_module         0x270             /d/3202c/prj/app/demo/dvbc/jade_demo_new_geeya/mcf_data_broadcast_3202c//release/lib//liball.a(lib_ota.o)
errno               0x4               ../../../../../sdk/boot.o
temp_IDCT_buf       0x4               /d/3202c/prj/app/demo/dvbc/jade_demo_new_geeya/mcf_data_broadcast_3202c//release/lib//liball.a(imagedec_main.o)
ecm_pid_array       0x40              /d/3202c/prj/app/demo/dvbc/jade_demo_new_geeya/mcf_data_broadcast_3202c//release/lib//liball.a(psi_pmt.o)
m_path              0x1000            game_box.o
maturity_sub        0x14              cdca/win_ca_watchlevel.o
g_imagedec_close_vp_once
                    0x4               /d/3202c/prj/app/demo/dvbc/jade_demo_new_geeya/mcf_data_broadcast_3202c//release/lib//liball.a(imagedec.o)
Operation_Type      0x4               /d/3202c/prj/app/demo/dvbc/jade_demo_new_geeya/mcf_data_broadcast_3202c//release/lib//liball.a(db_data_object.o)
pcm_ch              0x8               /d/3202c//sdk/libcore.a(snd_m33_tone.o)
nvod_event_bar_txt  0x34              win_nvod_event_bar.o
cur_font            0x4               osd_rsc.o
gelib_dbstrs        0x100             /d/3202c/prj/app/demo/dvbc/jade_demo_new_geeya/mcf_data_broadcast_3202c//release/lib//liball.a(ge_primitive_init.o)
sw_time_sum         0x8               /d/3202c//sdk/libcore.a(vdec_m3327.o)
show_and_playchannel
                    0x1               win_prog_name.o
m_mapsizex          0x1               game_box.o
m_wayfilechanged    0x1               game_box.o
EMM2_BACK           0xbc              /d/3202c/prj/app/demo/dvbc/jade_demo_new_geeya/mcf_data_broadcast_3202c//release/lib//liball.a(gyca_dmx.o)
g_imagedec_m33_combine_hw_sw_flag
                    0x4               /d/3202c/prj/app/demo/dvbc/jade_demo_new_geeya/mcf_data_broadcast_3202c//release/lib//liball.a(imagedec.o)
ic_id_snd_ref       0x4               /d/3202c//sdk/libcore.a(snd_m33.o)
palert_gpio         0x4               /d/3202c//sdk/libcore.a(power_down_detect.o)
g_timer_queue       0x8               /d/3202c//sdk/libcore.a(timerc.o)
tplist_sat_id       0x4               win_com.o
__realloc_hook      0x4               /d/3202c/prj/app/demo/dvbc/jade_demo_new_geeya/mcf_data_broadcast_3202c//release/lib//liball.a(alloc.o)
ym_stream           0x10              /d/3202c//sdk/libcore.a(deca_m33.o)
multi_flash_info    0x38              copper_common/backup_loader.o
gelib_set_rgnpos    0x4               /d/3202c/prj/app/demo/dvbc/jade_demo_new_geeya/mcf_data_broadcast_3202c//release/lib//liball.a(ge_primitive_init.o)
g_spdif_type_deca_ref
                    0x4               /d/3202c//sdk/libcore.a(deca_m33.o)
R828_CAL_LO_khz     0x4               /d/3202c/prj/app/demo/dvbc/jade_demo_new_geeya/mcf_data_broadcast_3202c//release/lib//liball.a(R820C.o)
g_TveInfo           0x20              /d/3202c//sdk/libcore.a(tv_enc.o)
_heapindex          0x4               /d/3202c/prj/app/demo/dvbc/jade_demo_new_geeya/mcf_data_broadcast_3202c//release/lib//liball.a(alloc.o)
ts_tmp_united_cb_len
                    0x2               /d/3202c//sdk/libcore.a(dmx_m33_api.o)
_rdy_queue          0x80              /d/3202c//sdk/libcore.a(sched_mq.o)
g_rgn_tbl           0x1cc             /d/3202c/prj/app/demo/dvbc/jade_demo_new_geeya/mcf_data_broadcast_3202c//release/lib//liball.a(ge_draw_primitive.o)
R828_IMR_XT         0x6               /d/3202c/prj/app/demo/dvbc/jade_demo_new_geeya/mcf_data_broadcast_3202c//release/lib//liball.a(R820C.o)
m_NumberOfBox       0x1               game_box.o
g_ge_sys_chip_module
                    0x4               /d/3202c//sdk/libcore.a(ge_hal.o)
VOLUME_TIMER_TIME   0x4               win_volumebar.o
_heaplimit          0x4               /d/3202c/prj/app/demo/dvbc/jade_demo_new_geeya/mcf_data_broadcast_3202c//release/lib//liball.a(alloc.o)
g_imagedec_m33_enable_hw_vld
                    0x4               /d/3202c/prj/app/demo/dvbc/jade_demo_new_geeya/mcf_data_broadcast_3202c//release/lib//liball.a(imagedec.o)
ts_ttx_tmp_buf      0x4               /d/3202c//sdk/libcore.a(dmx_m33_api.o)
ts_united_cb_len    0x2               /d/3202c//sdk/libcore.a(dmx_m33_api.o)
pdd_chip_version    0x4               /d/3202c//sdk/libcore.a(power_down_detect.o)
str_fingerprint     0x1e              cdca/win_fingerprint.o
gelib_colorkey_rgn  0x4               /d/3202c/prj/app/demo/dvbc/jade_demo_new_geeya/mcf_data_broadcast_3202c//release/lib//liball.a(ge_primitive_init.o)
key_address         0x18              key.o
win_search_param    0x230             win_search.o
g_vdec27_ctrl_blk   0x1c              /d/3202c//sdk/libcore.a(vdec_m3327.o)
hor2                0xb0              /d/3202c//sdk/libcore.a(sw_scale.o)
g_imagedec_stop_flag
                    0x4               /d/3202c/prj/app/demo/dvbc/jade_demo_new_geeya/mcf_data_broadcast_3202c//release/lib//liball.a(imagedec.o)
IO                  0x100             /d/3202c/prj/app/demo/dvbc/jade_demo_new_geeya/mcf_data_broadcast_3202c//release/lib//libgycas.a(gycas_vm.o)
g_resize_clip_rect  0x24              /d/3202c//sdk/libcore.a(ge_lld.o)
dmx_hw_filt_num     0x1               /d/3202c//sdk/libcore.a(dmx_m33_api.o)
g_cur_timer         0x4               /d/3202c//sdk/libcore.a(timerc.o)
pcr_tick_standard_slope
                    0x4               /d/3202c//sdk/libcore.a(dmx_m33_api.o)
gelib_modify_pallette
                    0x4               /d/3202c/prj/app/demo/dvbc/jade_demo_new_geeya/mcf_data_broadcast_3202c//release/lib//liball.a(ge_primitive_init.o)
g_vscr              0x300             /d/3202c/prj/app/demo/dvbc/jade_demo_new_geeya/mcf_data_broadcast_3202c//release/lib//liball.a(ge_draw_primitive.o)
TVEREG0A            0x1               /d/3202c//sdk/libcore.a(tv_enc.o)
TVEREG0D            0x1               /d/3202c//sdk/libcore.a(tv_enc.o)
epg_book_bmp1       0x30              win_epg.o
g_dc_blocksize      0x2               /d/3202c/prj/app/demo/dvbc/jade_demo_new_geeya/mcf_data_broadcast_3202c//release/lib//liball.a(lib_ota.o)
ym_synth            0x340c            /d/3202c//sdk/libcore.a(deca_m33.o)
title_string        0x3c              win_com_list.o
game_event          0x4               win_game_com.o
simcb_array         0x600             /d/3202c/prj/app/demo/dvbc/jade_demo_new_geeya/mcf_data_broadcast_3202c//release/lib//liball.a(sie_monitor_core.o)
g_surf_handle       0x4               /d/3202c/prj/app/demo/dvbc/jade_demo_new_geeya/mcf_data_broadcast_3202c//release/lib//liball.a(osd_plugin.o)
heap_ptr            0x4               ../../../../../sdk/boot.o
pok_gpio            0x4               /d/3202c//sdk/libcore.a(power_down_detect.o)
dest_w              0x4               /d/3202c//sdk/libcore.a(sw_scale.o)
g_gelib_m3602_dualoutput
                    0x4               /d/3202c/prj/app/demo/dvbc/jade_demo_new_geeya/mcf_data_broadcast_3202c//release/lib//liball.a(ge_draw_primitive.o)
g_gui_rscfunc       0x24              /d/3202c/prj/app/demo/dvbc/jade_demo_new_geeya/mcf_data_broadcast_3202c//release/lib//liball.a(osd_lib.o)
m_mx                0x1               game_box.o
_rdy_msk            0x4               /d/3202c//sdk/libcore.a(sched_mq.o)
g_vdec_info         0x8               /d/3202c//sdk/libcore.a(vdec_m3327.o)
led_data_len        0x1               key.o
heap_start          0x4               /d/3202c//sdk/libcore.a(tds.o)
pok_suspend         0x4               /d/3202c//sdk/libcore.a(power_down_detect.o)
dest_h              0x4               /d/3202c//sdk/libcore.a(sw_scale.o)
g_snd_deca_ref      0x4               /d/3202c//sdk/libcore.a(deca_m33.o)
EMM4_BACK           0xbc              /d/3202c/prj/app/demo/dvbc/jade_demo_new_geeya/mcf_data_broadcast_3202c//release/lib//liball.a(gyca_dmx.o)
timer_set_check_starttime_flag
                    0x1               win_timer_set.o
g_cCurSlice         0x4               /d/3202c//sdk/libcore.a(timerc.o)
len_display_str     0x258             copper_common/menu_api.o
MG_CRC_Table        0x400             /d/3202c/prj/app/demo/dvbc/jade_demo_new_geeya/mcf_data_broadcast_3202c//release/lib//liball.a(fastCRC.o)
g_TveDacInfo        0x170             /d/3202c//sdk/libcore.a(tv_enc.o)
g_imagedec_dis_frm_idx
                    0x4               /d/3202c/prj/app/demo/dvbc/jade_demo_new_geeya/mcf_data_broadcast_3202c//release/lib//liball.a(imagedec.o)
game_setup          0x4               win_game_com.o
dynamic_program     0xa4              /d/3202c/prj/app/demo/dvbc/jade_demo_new_geeya/mcf_data_broadcast_3202c//release/lib//liball.a(db_interface.o)
gelib_setgalpha     0x4               /d/3202c/prj/app/demo/dvbc/jade_demo_new_geeya/mcf_data_broadcast_3202c//release/lib//liball.a(ge_primitive_init.o)
IDCT_Scaling_Routine
                    0x4               /d/3202c/prj/app/demo/dvbc/jade_demo_new_geeya/mcf_data_broadcast_3202c//release/lib//liball.a(imagedec_trans.o)
EMM5_BACK           0xbc              /d/3202c/prj/app/demo/dvbc/jade_demo_new_geeya/mcf_data_broadcast_3202c//release/lib//liball.a(gyca_dmx.o)
hw_time_sum         0x8               /d/3202c//sdk/libcore.a(vdec_m3327.o)
ts_video_cb_len     0x2               /d/3202c//sdk/libcore.a(dmx_m33_api.o)
game_key_proc       0x4               win_game_com.o
R828_I2C            0x2               /d/3202c/prj/app/demo/dvbc/jade_demo_new_geeya/mcf_data_broadcast_3202c//release/lib//liball.a(R820C.o)
g_jhconvs_info      0x60              /d/3202c/prj/app/demo/dvbc/jade_demo_new_geeya/mcf_data_broadcast_3202c//release/lib//liball.a(imagedec_covs.o)
gelib_clearclip     0x4               /d/3202c/prj/app/demo/dvbc/jade_demo_new_geeya/mcf_data_broadcast_3202c//release/lib//liball.a(ge_primitive_init.o)
gelib_get_pallette  0x4               /d/3202c/prj/app/demo/dvbc/jade_demo_new_geeya/mcf_data_broadcast_3202c//release/lib//liball.a(ge_primitive_init.o)
gyca_priv           0x138             /d/3202c/prj/app/demo/dvbc/jade_demo_new_geeya/mcf_data_broadcast_3202c//release/lib//liball.a(gy_catask.o)
g_wndrects_idx      0x4               /d/3202c/prj/app/demo/dvbc/jade_demo_new_geeya/mcf_data_broadcast_3202c//release/lib//liball.a(osd_window.o)
nit_cur_version     0x1               win_infomation.o
gp_ge_private       0x4               /d/3202c//sdk/libcore.a(ge_lld.o)
cas_thread_info     0x14              /d/3202c/prj/app/demo/dvbc/jade_demo_new_geeya/mcf_data_broadcast_3202c//release/lib//liball.a(gy_catask.o)
g_slvscr            0x300             /d/3202c/prj/app/demo/dvbc/jade_demo_new_geeya/mcf_data_broadcast_3202c//release/lib//liball.a(ge_draw_primitive.o)
jpg_buffer_pos      0x4               /d/3202c/prj/app/demo/dvbc/jade_demo_new_geeya/mcf_data_broadcast_3202c//release/lib//liball.a(imagedec_main.o)
g_imagedec_pro_show
                    0x4               /d/3202c/prj/app/demo/dvbc/jade_demo_new_geeya/mcf_data_broadcast_3202c//release/lib//liball.a(imagedec.o)
refEventBuf         0x200             win_nvod.o
deca_bs_buf_size    0x4               /d/3202c//sdk/libcore.a(deca_m33.o)
pin_pwd_password_str
                    0x12              cdca/win_cas_com.o
m_size              0x1               game_box.o
g_current_time      0x4               /d/3202c//sdk/libcore.a(timerc.o)
R828_IMR_point_num  0x1               /d/3202c/prj/app/demo/dvbc/jade_demo_new_geeya/mcf_data_broadcast_3202c//release/lib//liball.a(R820C.o)
m_TheShowStep       0x1               game_box.o
sorc_std            0x4               /d/3202c//sdk/libcore.a(sw_scale.o)
g_dc_module_num     0x1               /d/3202c/prj/app/demo/dvbc/jade_demo_new_geeya/mcf_data_broadcast_3202c//release/lib//liball.a(lib_ota.o)
sgdma_reg_addr      0x28              /d/3202c//sdk/libcore.a(sgdma_m36.o)
game_pre_open       0x4               win_game_com.o
dest_std            0x4               /d/3202c//sdk/libcore.a(sw_scale.o)
pcm_beep            0x4c              /d/3202c//sdk/libcore.a(snd_m33_tone.o)
R828_IF_khz         0x4               /d/3202c/prj/app/demo/dvbc/jade_demo_new_geeya/mcf_data_broadcast_3202c//release/lib//liball.a(R820C.o)
sgdma_chip_id_ref   0x4               /d/3202c//sdk/libcore.a(sgdma_m36.o)
m_noanswerrecoded   0x1               game_box.o
g_imagedec_angle    0x4               /d/3202c/prj/app/demo/dvbc/jade_demo_new_geeya/mcf_data_broadcast_3202c//release/lib//liball.a(imagedec.o)
g_PL_Input_Status   0x1               win_pwd_set.o
timer_set_ok_cancel_flag
                    0x1               win_timer_set.o
gycas_ippvinfo      0x34              /d/3202c/prj/app/demo/dvbc/jade_demo_new_geeya/mcf_data_broadcast_3202c//release/lib//liball.a(gy_catask.o)
gedraw_up2scrn_cb   0x4               /d/3202c/prj/app/demo/dvbc/jade_demo_new_geeya/mcf_data_broadcast_3202c//release/lib//liball.a(osd_popup.o)
dmx_psi_info        0x31bc            /d/3202c/prj/app/demo/dvbc/jade_demo_new_geeya/mcf_data_broadcast_3202c//release/lib//liball.a(sie_monitor_core.o)
box_str             0xc               game_box.o
R828_Fil_Cal_flag   0x18              /d/3202c/prj/app/demo/dvbc/jade_demo_new_geeya/mcf_data_broadcast_3202c//release/lib//liball.a(R820C.o)
cas_pmt_param       0x2c              /d/3202c/prj/app/demo/dvbc/jade_demo_new_geeya/mcf_data_broadcast_3202c//release/lib//liball.a(gy_catask.o)
insMem              0x10000           /d/3202c/prj/app/demo/dvbc/jade_demo_new_geeya/mcf_data_broadcast_3202c//release/lib//libgycas.a(gycas_vm.o)
m_map               0x140             game_box.o
g_imagedec_enable_hw_acce
                    0x4               /d/3202c/prj/app/demo/dvbc/jade_demo_new_geeya/mcf_data_broadcast_3202c//release/lib//liball.a(imagedec.o)
stk_function        0x404             /d/3202c/prj/app/demo/dvbc/jade_demo_new_geeya/mcf_data_broadcast_3202c//release/lib//libgycas.a(gycas_vm.o)
m_CanUndo           0x1               game_box.o
del_channel_idx     0x40              win_chan_edit.o
g_ObjectOpenNotify  0x4               /d/3202c/prj/app/demo/dvbc/jade_demo_new_geeya/mcf_data_broadcast_3202c//release/lib//liball.a(osd_lib.o)
ic_is_M3202_snd_ref
                    0x1               /d/3202c//sdk/libcore.a(snd_m33.o)
sdt_flag            0x20              /d/3202c/prj/app/demo/dvbc/jade_demo_new_geeya/mcf_data_broadcast_3202c//release/lib//liball.a(sie_monitor_dtg.o)
CAS_operator_ID     0x8               cdca/win_ca_operator_info.o
monitor_exist       0x40              /d/3202c/prj/app/demo/dvbc/jade_demo_new_geeya/mcf_data_broadcast_3202c//release/lib//liball.a(sie_monitor_core.o)
g_user_data         0x410             /d/3202c//sdk/libcore.a(vdec_m3327.o)
PROGNAME_TIMER_TIME
                    0x4               win_prog_name.o
gelib_rgn_showonoff
                    0x4               /d/3202c/prj/app/demo/dvbc/jade_demo_new_geeya/mcf_data_broadcast_3202c//release/lib//liball.a(ge_primitive_init.o)
gelib_renderbmp     0x4               /d/3202c/prj/app/demo/dvbc/jade_demo_new_geeya/mcf_data_broadcast_3202c//release/lib//liball.a(ge_primitive_init.o)
m_x                 0x1               game_box.o
g_imagedec_need_logo_info
                    0x4               /d/3202c/prj/app/demo/dvbc/jade_demo_new_geeya/mcf_data_broadcast_3202c//release/lib//liball.a(imagedec.o)
DmxAvSyncParam      0x8               /d/3202c//sdk/libcore.a(dmx_m33_api.o)
m_bnm               0x140             game_box.o
gelib_retrievescrn  0x4               /d/3202c/prj/app/demo/dvbc/jade_demo_new_geeya/mcf_data_broadcast_3202c//release/lib//liball.a(ge_primitive_init.o)
epg_grp_left_arrow  0x30              win_epg.o
tem_flag            0x4               /d/3202c/prj/app/demo/dvbc/jade_demo_new_geeya/mcf_data_broadcast_3202c//release/lib//liball.a(imagedec_main.o)
g_imagedec_info_valid
                    0x4               /d/3202c/prj/app/demo/dvbc/jade_demo_new_geeya/mcf_data_broadcast_3202c//release/lib//liball.a(imagedec.o)
snd_mute_num        0x1               /d/3202c/prj/app/demo/dvbc/jade_demo_new_geeya/mcf_data_broadcast_3202c//release/lib//liball.a(snd.o)
g_deca_stream_type  0x4               /d/3202c//sdk/libcore.a(deca_m33.o)
NVOD_MSG_TYPE       0x4               win_nvod.o
db_cmd_buf          0x8               /d/3202c/prj/app/demo/dvbc/jade_demo_new_geeya/mcf_data_broadcast_3202c//release/lib//liball.a(db_data_object.o)
software_scaler_c   0x4               /d/3202c//sdk/libcore.a(sw_scale.o)
dest_h_c            0x4               /d/3202c//sdk/libcore.a(sw_scale.o)
EmmOESend           0x1               /d/3202c/prj/app/demo/dvbc/jade_demo_new_geeya/mcf_data_broadcast_3202c//release/lib//liball.a(gyca_dmx.o)
game_1st_draw       0x4               win_game_com.o
game_start          0x4               win_game_com.o
control_mbf_id      0x4               control.o
_heapinfo           0x4               /d/3202c/prj/app/demo/dvbc/jade_demo_new_geeya/mcf_data_broadcast_3202c//release/lib//liball.a(alloc.o)
mbf_total_num       0x4               /d/3202c//sdk/libcore.a(mbuffer.o)
gelib_fillrect      0x4               /d/3202c/prj/app/demo/dvbc/jade_demo_new_geeya/mcf_data_broadcast_3202c//release/lib//liball.a(ge_primitive_init.o)
BO_Sec_Status       0x4               /d/3202c/prj/app/demo/dvbc/jade_demo_new_geeya/mcf_data_broadcast_3202c//release/lib//liball.a(db_interface.o)
ic_ver_snd_ref      0x4               /d/3202c//sdk/libcore.a(snd_m33.o)
comlist_sl_array    0x2f0             win_com_list.o
ge_dev              0x4               /d/3202c//sdk/libcore.a(osd_s3601.o)
SREG                0x8               /d/3202c/prj/app/demo/dvbc/jade_demo_new_geeya/mcf_data_broadcast_3202c//release/lib//libgycas.a(gycas_vm.o)
eof_flag            0x4               /d/3202c/prj/app/demo/dvbc/jade_demo_new_geeya/mcf_data_broadcast_3202c//release/lib//liball.a(imagedec_main.o)
epg_book_bmp0       0x30              win_epg.o
g_uLinemeetPosi     0x2               /d/3202c//sdk/libcore.a(vpo_driver.o)
ym_frame            0x2414            /d/3202c//sdk/libcore.a(deca_m33.o)
EMM3_BACK           0xbc              /d/3202c/prj/app/demo/dvbc/jade_demo_new_geeya/mcf_data_broadcast_3202c//release/lib//liball.a(gyca_dmx.o)
i2c_dev             0x48              board_config.o
g_imagedec_hdl      0xcc8             /d/3202c/prj/app/demo/dvbc/jade_demo_new_geeya/mcf_data_broadcast_3202c//release/lib//liball.a(imagedec.o)
libpub_config       0xc               /d/3202c/prj/app/demo/dvbc/jade_demo_new_geeya/mcf_data_broadcast_3202c//release/lib//liball.a(lib_pub.o)
TVEREG03            0x1               /d/3202c//sdk/libcore.a(tv_enc.o)
mask_array          0x4500            /d/3202c/prj/app/demo/dvbc/jade_demo_new_geeya/mcf_data_broadcast_3202c//release/lib//liball.a(sie_monitor_core.o)
current_operator_ID
                    0x2               cdca/win_ca_operator_info.o
g_wnd_rects         0x200             /d/3202c/prj/app/demo/dvbc/jade_demo_new_geeya/mcf_data_broadcast_3202c//release/lib//liball.a(osd_window.o)
gp_osd_s3601_private0
                    0x4               /d/3202c//sdk/libcore.a(osd_s3601.o)
str_urgent          0x1e              cdca/win_fingerprint.o
g_cc_play_tick      0xf0              board_config.o
chan_action_index   0x2               win_chanedit_action.o
tap_v               0x4               /d/3202c//sdk/libcore.a(sw_scale.o)
sb_used             0x28              /d/3202c/prj/app/demo/dvbc/jade_demo_new_geeya/mcf_data_broadcast_3202c//release/lib//liball.a(sie_monitor_core.o)
line_buf_1          0x2d0             /d/3202c//sdk/libcore.a(scale.o)
hw_time_slice       0x8               /d/3202c//sdk/libcore.a(vdec_m3327.o)
TVEREG0C            0x1               /d/3202c//sdk/libcore.a(tv_enc.o)
ts_common_cb_len    0x2               /d/3202c//sdk/libcore.a(dmx_m33_api.o)
BO_Sec_Type         0x4               /d/3202c/prj/app/demo/dvbc/jade_demo_new_geeya/mcf_data_broadcast_3202c//release/lib//liball.a(db_interface.o)
g_size_max          0x4               /d/3202c/prj/app/demo/dvbc/jade_demo_new_geeya/mcf_data_broadcast_3202c//release/lib//liball.a(ge_draw_primitive.o)
hor1                0xb0              /d/3202c//sdk/libcore.a(sw_scale.o)
line_buf_2          0x2d0             /d/3202c//sdk/libcore.a(scale.o)
m_my                0x1               game_box.o
msg_title           0x190             win_com_popup.o
msg_str             0x190             win_com_popup.o
VBIRequest          0x4               root.o
g_imagedec_exif_error_code
                    0x4               /d/3202c/prj/app/demo/dvbc/jade_demo_new_geeya/mcf_data_broadcast_3202c//release/lib//liball.a(imagedec_exif.o)
ts_pcr_cb_len       0x2               /d/3202c//sdk/libcore.a(dmx_m33_api.o)
d_dmb_adv           0x4               /d/3202c//sdk/libcore.a(sw_scale.o)
R828_Arry           0x1b              /d/3202c/prj/app/demo/dvbc/jade_demo_new_geeya/mcf_data_broadcast_3202c//release/lib//liball.a(R820C.o)
epg_prg_scb         0x3c              win_epg.o
g_deca_snd_ref      0x4               /d/3202c/prj/app/demo/dvbc/jade_demo_new_geeya/mcf_data_broadcast_3202c//release/lib//liball.a(snd.o)
g_QAM_Tuner_Cfg     0x3c              root.o
g_pTskSch           0x4               /d/3202c//sdk/libcore.a(taskc.o)
TVEREG0E            0x1               /d/3202c//sdk/libcore.a(tv_enc.o)
channel_array       0xc               /d/3202c/prj/app/demo/dvbc/jade_demo_new_geeya/mcf_data_broadcast_3202c//release/lib//liball.a(gyca_dmx.o)
CAS_operator_info   0x1c4             cdca/win_ca_operator_info.o
g_PL_Input_Bit_Number
                    0x1               win_pwd_set.o
db_search_view      0x24              /d/3202c/prj/app/demo/dvbc/jade_demo_new_geeya/mcf_data_broadcast_3202c//release/lib//liball.a(db_interface.o)
g_dac_prec_deca_ref
                    0x1               /d/3202c//sdk/libcore.a(deca_m33.o)
g_snd_spdif_type    0x4               /d/3202c//sdk/libcore.a(snd_m33.o)
EmmAloSend          0x1               /d/3202c/prj/app/demo/dvbc/jade_demo_new_geeya/mcf_data_broadcast_3202c//release/lib//liball.a(gyca_dmx.o)
autoscan_edit_str   0x258             win_full_band_scan.o
cas_pmt_restrict    0x114             /d/3202c/prj/app/demo/dvbc/jade_demo_new_geeya/mcf_data_broadcast_3202c//release/lib//liball.a(gy_catask.o)
gelib_scale         0x4               /d/3202c/prj/app/demo/dvbc/jade_demo_new_geeya/mcf_data_broadcast_3202c//release/lib//liball.a(ge_primitive_init.o)
_aligned_blocks     0x4               /d/3202c/prj/app/demo/dvbc/jade_demo_new_geeya/mcf_data_broadcast_3202c//release/lib//liball.a(alloc.o)
display_strs        0x1388            copper_common/menu_api.o
g_gif_ins_res       0xf4              /d/3202c/prj/app/demo/dvbc/jade_demo_new_geeya/mcf_data_broadcast_3202c//release/lib//liball.a(gif.o)
recent_channels     0x148             control.o
gelib_setclip       0x4               /d/3202c/prj/app/demo/dvbc/jade_demo_new_geeya/mcf_data_broadcast_3202c//release/lib//liball.a(ge_primitive_init.o)
_bytes_free         0x4               /d/3202c/prj/app/demo/dvbc/jade_demo_new_geeya/mcf_data_broadcast_3202c//release/lib//liball.a(alloc.o)
EmmInfSend          0x1               /d/3202c/prj/app/demo/dvbc/jade_demo_new_geeya/mcf_data_broadcast_3202c//release/lib//liball.a(gyca_dmx.o)
dataMem             0x10000           /d/3202c/prj/app/demo/dvbc/jade_demo_new_geeya/mcf_data_broadcast_3202c//release/lib//libgycas.a(gycas_vm.o)
chan_index_flag     0x1               win_chan_manage.o
gelib_fillroundrect
                    0x4               /d/3202c/prj/app/demo/dvbc/jade_demo_new_geeya/mcf_data_broadcast_3202c//release/lib//liball.a(ge_primitive_init.o)
deca_ctrl_blk_num   0x4               /d/3202c//sdk/libcore.a(deca_m33.o)
cpu_mclk_dmx_ref    0x4               /d/3202c//sdk/libcore.a(dmx_m33_api.o)
cas_cat_restrict    0x114             /d/3202c/prj/app/demo/dvbc/jade_demo_new_geeya/mcf_data_broadcast_3202c//release/lib//liball.a(gy_catask.o)
step_array          0x80              game_othello.o
epg_book_bmp4       0x30              win_epg.o
pdd_dev_list        0x8               /d/3202c//sdk/libcore.a(power_down_detect.o)
sw_time_slice       0x8               /d/3202c//sdk/libcore.a(vdec_m3327.o)
g_imagedec_in_buf_task_id
                    0x4               /d/3202c/prj/app/demo/dvbc/jade_demo_new_geeya/mcf_data_broadcast_3202c//release/lib//liball.a(imagedec.o)
shouldVmVer         0x1               /d/3202c/prj/app/demo/dvbc/jade_demo_new_geeya/mcf_data_broadcast_3202c//release/lib//libgycas.a(gycas_mgr.o)
vol_db_tab          0xca              /d/3202c//sdk/libcore.a(snd_m33.o)
sw_time_cnt         0x8               /d/3202c//sdk/libcore.a(vdec_m3327.o)
comlist_item_str    0x2d0             win_com_list.o
Reg_fid             0xc               geeya_ad/adv_geeya.o
epg_cur_prog_bmp    0x30              win_epg.o
epg_sch_scb         0x3c              win_epg.o
timer_set           0x44              win_timer_set.o
g_menuStack         0x50              copper_common/menu_api.o
g_rct_scaleclip     0x8               /d/3202c/prj/app/demo/dvbc/jade_demo_new_geeya/mcf_data_broadcast_3202c//release/lib//liball.a(ge_draw_primitive.o)
db_table            0x30              /d/3202c/prj/app/demo/dvbc/jade_demo_new_geeya/mcf_data_broadcast_3202c//release/lib//liball.a(db_data_object.o)
g_surf_para         0xb6c             /d/3202c//sdk/libcore.a(osd_s3601.o)
win_pl_password_value
                    0x8               win_pwd_set.o
g_imagedec_osd_ins  0x64              /d/3202c/prj/app/demo/dvbc/jade_demo_new_geeya/mcf_data_broadcast_3202c//release/lib//liball.a(imagedec.o)
g_ObjectCloseNotify
                    0x4               /d/3202c/prj/app/demo/dvbc/jade_demo_new_geeya/mcf_data_broadcast_3202c//release/lib//liball.a(osd_lib.o)
font_array          0xc8              osd_rsc.o
g_vpo_control_blk   0x1c              /d/3202c//sdk/libcore.a(vpo_driver.o)
gelib_flush_rgn     0x4               /d/3202c/prj/app/demo/dvbc/jade_demo_new_geeya/mcf_data_broadcast_3202c//release/lib//liball.a(ge_primitive_init.o)
g_imagedec_dis_flag
                    0x4               /d/3202c/prj/app/demo/dvbc/jade_demo_new_geeya/mcf_data_broadcast_3202c//release/lib//liball.a(imagedec.o)
g_imagedec_need_new_pic
                    0x4               /d/3202c/prj/app/demo/dvbc/jade_demo_new_geeya/mcf_data_broadcast_3202c//release/lib//liball.a(imagedec.o)
final_output_buf_Y  0x4               /d/3202c/prj/app/demo/dvbc/jade_demo_new_geeya/mcf_data_broadcast_3202c//release/lib//liball.a(imagedec_trans.o)
NVOD_STATUS         0x4               win_nvod.o
g_png_instance      0x20              /d/3202c/prj/app/demo/dvbc/jade_demo_new_geeya/mcf_data_broadcast_3202c//release/lib//liball.a(png.o)
g_gif_out_init      0x4               /d/3202c/prj/app/demo/dvbc/jade_demo_new_geeya/mcf_data_broadcast_3202c//release/lib//liball.a(gif.o)
TVEREG09            0x1               /d/3202c//sdk/libcore.a(tv_enc.o)
standby_status      0x1               key.o
g_imagedec_get_info
                    0x4               /d/3202c/prj/app/demo/dvbc/jade_demo_new_geeya/mcf_data_broadcast_3202c//release/lib//liball.a(imagedec.o)
satlist_tuner_idx   0x1               win_com.o
g_PIP_Video_Info    0x40              /d/3202c//sdk/libcore.a(vpo_m3327_init_ext.o)
g_pTskRun           0x4               /d/3202c//sdk/libcore.a(taskc.o)
epg_grp_right_arrow
                    0x30              win_epg.o
cas_cat_param       0x2c              /d/3202c/prj/app/demo/dvbc/jade_demo_new_geeya/mcf_data_broadcast_3202c//release/lib//liball.a(gy_catask.o)
m_computerthinkout  0x1               game_box.o
snd_is_ext_dac      0x1               /d/3202c/prj/app/demo/dvbc/jade_demo_new_geeya/mcf_data_broadcast_3202c//release/lib//liball.a(snd.o)
dmx1_dma_start_addr
                    0x4               /d/3202c//sdk/libcore.a(dmx_m33_api.o)
key_address_mask    0x18              key.o
sdt_ext             0xc               /d/3202c/prj/app/demo/dvbc/jade_demo_new_geeya/mcf_data_broadcast_3202c//release/lib//liball.a(sie_monitor_dtg.o)
_heapbase           0x4               /d/3202c/prj/app/demo/dvbc/jade_demo_new_geeya/mcf_data_broadcast_3202c//release/lib//liball.a(alloc.o)
db_view             0x24              /d/3202c/prj/app/demo/dvbc/jade_demo_new_geeya/mcf_data_broadcast_3202c//release/lib//liball.a(db_data_object.o)
gelib_state         0x4               /d/3202c/prj/app/demo/dvbc/jade_demo_new_geeya/mcf_data_broadcast_3202c//release/lib//liball.a(ge_primitive_init.o)
g_imagedec_copy_frm_ins
                    0x24              /d/3202c/prj/app/demo/dvbc/jade_demo_new_geeya/mcf_data_broadcast_3202c//release/lib//liball.a(imagedec.o)
system_stb_data     0x500             copper_common/stb_data.o
R828_IMR_YT         0x6               /d/3202c/prj/app/demo/dvbc/jade_demo_new_geeya/mcf_data_broadcast_3202c//release/lib//liball.a(R820C.o)
g_layer_tbl         0xc0              /d/3202c/prj/app/demo/dvbc/jade_demo_new_geeya/mcf_data_broadcast_3202c//release/lib//liball.a(ge_draw_primitive.o)
msg_back_log_head   0x4               control.o
led_display_data    0xa               key.o
g_imagedec_m33_extend_hw_vld
                    0x4               /d/3202c/prj/app/demo/dvbc/jade_demo_new_geeya/mcf_data_broadcast_3202c//release/lib//liball.a(imagedec.o)
__free_hook         0x4               /d/3202c/prj/app/demo/dvbc/jade_demo_new_geeya/mcf_data_broadcast_3202c//release/lib//liball.a(alloc.o)
software_scaler     0x4               /d/3202c//sdk/libcore.a(sw_scale.o)
g_imagedec_config   0x5c              /d/3202c/prj/app/demo/dvbc/jade_demo_new_geeya/mcf_data_broadcast_3202c//release/lib//liball.a(imagedec.o)
ts_audio_cb_len     0x2               /d/3202c//sdk/libcore.a(dmx_m33_api.o)
back_chan_action_flag
                    0x1               win_chanedit_action.o
chan_old_action_index
                    0x2               win_chanedit_action.o
g_jpeg_dst_stride   0x4               /d/3202c/prj/app/demo/dvbc/jade_demo_new_geeya/mcf_data_broadcast_3202c//release/lib//liball.a(imagedec_trans.o)
gelib_get_rgnpos    0x4               /d/3202c/prj/app/demo/dvbc/jade_demo_new_geeya/mcf_data_broadcast_3202c//release/lib//liball.a(ge_primitive_init.o)
g_dc_group          0x8               /d/3202c/prj/app/demo/dvbc/jade_demo_new_geeya/mcf_data_broadcast_3202c//release/lib//liball.a(lib_ota.o)
gui_dev             0x4               /d/3202c/prj/app/demo/dvbc/jade_demo_new_geeya/mcf_data_broadcast_3202c//release/lib//liball.a(ge_draw_primitive.o)
g_stream_type_snd_ref
                    0x4               /d/3202c//sdk/libcore.a(snd_m33.o)
gp_osd_s3601_private1
                    0x4               /d/3202c//sdk/libcore.a(osd_s3601.o)
email_head          0x960             cdca/win_mail.o
font_asc            0x10              osd_rsc.o
epg_grp_name        0x34              win_epg.o
error_code          0x4               /d/3202c/prj/app/demo/dvbc/jade_demo_new_geeya/mcf_data_broadcast_3202c//release/lib//liball.a(imagedec_main.o)
_chunks_used        0x4               /d/3202c/prj/app/demo/dvbc/jade_demo_new_geeya/mcf_data_broadcast_3202c//release/lib//liball.a(alloc.o)
tap_h               0x4               /d/3202c//sdk/libcore.a(sw_scale.o)
snd_mute_polar      0x1               /d/3202c/prj/app/demo/dvbc/jade_demo_new_geeya/mcf_data_broadcast_3202c//release/lib//liball.a(snd.o)
signal_detect_flag  0x4               key.o
ts_ttx_cb_len       0x2               /d/3202c//sdk/libcore.a(dmx_m33_api.o)
g_ge_routines       0x14              /d/3202c//sdk/libcore.a(ge_lld.o)
irq_msk             0x4               /d/3202c//sdk/libcore.a(tds.o)
EmmValSend          0x1               /d/3202c/prj/app/demo/dvbc/jade_demo_new_geeya/mcf_data_broadcast_3202c//release/lib//liball.a(gyca_dmx.o)
g_wnd_monitors      0x4               /d/3202c/prj/app/demo/dvbc/jade_demo_new_geeya/mcf_data_broadcast_3202c//release/lib//liball.a(osd_window.o)
final_output_buf_C  0x4               /d/3202c/prj/app/demo/dvbc/jade_demo_new_geeya/mcf_data_broadcast_3202c//release/lib//liball.a(imagedec_trans.o)
upgrade_info_param  0xc               win_manual_update.o
g_imagedec_force_full_screen
                    0x4               /d/3202c/prj/app/demo/dvbc/jade_demo_new_geeya/mcf_data_broadcast_3202c//release/lib//liball.a(imagedec.o)
g_osdwnd_onoff      0x4               /d/3202c/prj/app/demo/dvbc/jade_demo_new_geeya/mcf_data_broadcast_3202c//release/lib//liball.a(osd_window.o)
TVEREG0B            0x1               /d/3202c//sdk/libcore.a(tv_enc.o)
gelib_create_rgn    0x4               /d/3202c/prj/app/demo/dvbc/jade_demo_new_geeya/mcf_data_broadcast_3202c//release/lib//liball.a(ge_primitive_init.o)
R828_I2C_Len        0x34              /d/3202c/prj/app/demo/dvbc/jade_demo_new_geeya/mcf_data_broadcast_3202c//release/lib//liball.a(R820C.o)
play_chan_nim_busy  0x1               control.o
g_vp_info           0x8               /d/3202c//sdk/libcore.a(vpo_m3327_init_ext.o)
font_chn            0x10              osd_rsc.o
m_CanMoveToBadPoint
                    0x1               game_box.o
ge_version          0x4               /d/3202c/prj/app/demo/dvbc/jade_demo_new_geeya/mcf_data_broadcast_3202c//release/lib//liball.a(ge_primitive_init.o)
epg_book_bmp3       0x30              win_epg.o
g_rgn_idx           0x1               /d/3202c/prj/app/demo/dvbc/jade_demo_new_geeya/mcf_data_broadcast_3202c//release/lib//liball.a(osd_plugin.o)
m_boxmovestepnumber
                    0x1               game_box.o
g_wndrects_cnt      0x4               /d/3202c/prj/app/demo/dvbc/jade_demo_new_geeya/mcf_data_broadcast_3202c//release/lib//liball.a(osd_window.o)
sdt_info            0x23e04           /d/3202c/prj/app/demo/dvbc/jade_demo_new_geeya/mcf_data_broadcast_3202c//release/lib//liball.a(sie_monitor_dtg.o)
GYCardContent       0x7ce             /d/3202c/prj/app/demo/dvbc/jade_demo_new_geeya/mcf_data_broadcast_3202c//release/lib//libgycas.a(gycas_smc_hal.o)
g_gif_out_exit      0x4               /d/3202c/prj/app/demo/dvbc/jade_demo_new_geeya/mcf_data_broadcast_3202c//release/lib//liball.a(gif.o)
dmx0_dma_start_addr
                    0x4               /d/3202c//sdk/libcore.a(dmx_m33_api.o)

Memory Configuration

Name             Origin             Length             Attributes
ram              0x0000000080000000 0x0000000001000000 xrw
rom              0x00000000bfc00000 0x0000000000060000 xr
*default*        0x0000000000000000 0xffffffffffffffff

Linker script and memory map

LOAD board_config.o
LOAD cdca/win_ca_freepreviewing.o
LOAD cdca/win_ca_message.o
LOAD cdca/win_ca_operator_info.o
LOAD cdca/win_ca_operator_message.o
LOAD cdca/win_ca_password.o
LOAD cdca/win_ca_pinpwd.o
LOAD cdca/win_ca_popup_ipp.o
LOAD cdca/win_ca_smc_upg.o
LOAD cdca/win_ca_watchlevel.o
LOAD cdca/win_cas_com.o
LOAD cdca/win_cas_proc.o
LOAD cdca/win_fingerprint.o
LOAD cdca/win_mail.o
LOAD cdca/win_mail_content.o
LOAD cdca/win_mail_icon.o
LOAD cdca/win_osdmsg.o
LOAD cdca/win_smc_info.o
LOAD control.o
LOAD copper_common/backup_loader.o
LOAD copper_common/bat_private.o
LOAD copper_common/com_api.o
LOAD copper_common/com_epg.o
LOAD copper_common/menu_api.o
LOAD copper_common/ota_special.o
LOAD copper_common/stb_data.o
LOAD copper_common/stb_hwinfo.o
LOAD copper_common/system_data.o
LOAD data_bdcast_com.o
LOAD game_box.o
LOAD game_box_maps.o
LOAD game_othello.o
LOAD geeya_ad/adv_geeya.o
LOAD geeya_ad/GYAD_Api.o
LOAD geeya_ad/GYAD_Core.o
LOAD key.o
LOAD menus_root.o
LOAD osd_rsc.o
LOAD power.o
LOAD root.o
LOAD single_pic_ad/ad_pic.o
LOAD single_pic_ad/ad_pic_gfx.o
LOAD single_pic_ad/ad_pic_gif.o
LOAD single_pic_ad/ad_pic_img.o
LOAD single_pic_ad/ad_pic_png.o
LOAD ts_search/ts_search.o
LOAD win_advset.o
LOAD win_audio.o
LOAD win_audioset.o
LOAD win_book_detail.o
LOAD win_ca_bing.o
LOAD win_ca_set.o
LOAD win_chan_detail.o
LOAD win_chan_edit.o
LOAD win_chan_list.o
LOAD win_chan_manage.o
LOAD win_chan_management.o
LOAD win_chanedit_action.o
LOAD win_channel_info.o
LOAD win_child_lock.o
LOAD win_child_lock_list.o
LOAD win_com.o
LOAD win_com_list.o
LOAD win_com_popup.o
LOAD win_common_item.o
LOAD win_displayset.o
LOAD win_epg.o
LOAD win_epg_detail.o
LOAD win_factory_set.o
LOAD win_factoryset.o
LOAD win_freqset.o
LOAD win_full_band_scan.o
LOAD win_game_com.o
LOAD win_game_othello.o
LOAD win_games.o
LOAD win_languageset.o
LOAD win_light_channel_list.o
LOAD win_mainmenu.o
LOAD win_manual_search.o
LOAD win_manual_update.o
LOAD win_mute.o
LOAD win_new_signal.o
LOAD win_new_signal_test.o
LOAD win_nimreg.o
LOAD win_nvod.o
LOAD win_nvod_detail.o
LOAD win_nvod_event_bar.o
LOAD win_nvod_warn.o
LOAD win_password.o
LOAD win_pause.o
LOAD win_prog_input.o
LOAD win_prog_name.o
LOAD win_prog_search.o
LOAD win_pwd_set.o
LOAD win_reg.o
LOAD win_reserve_manage.o
LOAD win_search.o
LOAD win_signal.o
LOAD win_signal_test.o
LOAD win_signalstatus.o
LOAD win_stb_info.o
LOAD win_sys_information.o
LOAD win_sys_items.o
LOAD win_system_management.o
LOAD win_timer_set.o
LOAD win_volumebar.o
LOAD win_infomation.o
                0x0000000000000000                __BOOT_FROM_FLASH = 0x0
                0x0000000000000000                __BOOT_LOADER = 0x0
                0x0000000000000000                __DYNAMIC = 0x0
                0x0000000000000000                PROVIDE (__stack, 0x0)
                0x0000000080000200                __RAM_BASE = 0x80000200
                0x0000000080000200                __ROM_BASE = __BOOT_LOADER?0xbfc00000:__BOOT_FROM_FLASH?0xbfc00000:__RAM_BASE
                0x0000000080000200                __BOOT_ROM_ADDR = __BOOT_LOADER?0xbfb80000:__ROM_BASE

.boot           0x0000000080000200     0x1a48 load address 0x0000000080000200
 ../../../../../sdk/boot.o(.text)
 .text          0x0000000080000200     0x1a48 ../../../../../sdk/boot.o
                0x00000000800007a4                sys_ic_is_M3101
                0x00000000800016a0                __main
                0x0000000080001a08                sys_ic_get_ci_num
                0x0000000080001268                sys_ic_ddplus_is_enabled
                0x0000000080001254                sys_ic_ac3_is_enabled
                0x0000000080000c44                sys_ic_set_half_mode_strap_pin
                0x00000000800007d8                sys_ic_is_M3202
                0x00000000800003d0                _invalidate_cache
                0x000000008000122c                sys_ic_get_hd_enabled
                0x00000000800012f4                sys_reboot_load_entry
                0x00000000800013c8                sys_reboot_clear_exchange_data
                0x00000000800011f0                sys_ic_split_enabled
                0x00000000800012a4                sys_ic_aac_is_enabled
                0x000000008000135c                sys_reboot_set_exchange_data
                0x0000000080000640                sys_watchdog_reboot
                0x0000000080001394                sys_reboot_get_exchange_data
                0x0000000080000580                INT_General_Exception
                0x0000000080000b98                sys_ic_get_chip_mode
                0x0000000080001734                isatty
                0x0000000080000e90                M3105_get_bonding
                0x00000000800013fc                sflash_soft_protect_init
                0x00000000800014a0                pflash_soft_protect_init
                0x0000000080001aa0                sys_ic_get_mac_num
                0x0000000080001740                lseek
                0x0000000080000590                g_see_exception_handler
                0x0000000080000654                sys_ic_enter_standby
                0x0000000080001204                sys_ic_uart_disabled
                0x0000000080001708                write
                0x0000000080000f18                s3602f_get_bonding
                0x0000000080001754                fstat
                0x0000000080001588                powerdown_test
                0x00000000800006e8                sys_ic_exit_standby
                0x0000000080000870                sys_ic_get_rev_id
                0x0000000080000200                _start
                0x0000000080001bbc                sys_ic_sata_enable
                0x0000000080001218                sys_ic_ejtag_disabled
                0x00000000800016fc                read
                0x00000000800011dc                sys_ic_io_security_enabled
                0x0000000080000fe8                c3603_get_bonding
                0x0000000080001918                sys_ic_nim_m3501_support
                0x0000000080000c80                sys_ic_get_bonding
                0x00000000800016a8                sbrk
                0x0000000080000860                sys_ic_M3101_rev_id
                0x00000000800006fc                sys_ic_get_chip_id
                0x00000000800012b8                sys_ic_h264_is_enabled
                0x000000008000127c                sys_ic_divx_is_enabled
                0x00000000800014d0                pflash_write_soft_protect
                0x00000000800005a0                sys_ic_reboot
                0x0000000080001868                sys_ic_usb_port_enabled
                0x0000000080001514                powerdown_test_init
                0x00000000800012e0                sys_ic_get_product_id
                0x0000000080001318                sys_reboot_get_timer
                0x00000000800006b8                sys_ic_power_save
                0x00000000800009e8                sys_ic_get_cpu_clock
                0x0000000080001240                sys_ic_mv_is_enabled
                0x0000000080001290                sys_ic_divxplus_is_enabled
                0x0000000080001990                sys_ic_nim_support
                0x0000000080000568                _exit
                0x000000008000142c                sflash_write_soft_protect
                0x0000000080001b2c                sys_ic_hd_is_enabled
                0x000000008000080c                sys_ic_is_M3329D
                0x00000000800012cc                sys_ic_mp4_is_enabled
                0x0000000080001714                open
                0x0000000080001768                sys_ic_get_c3603_product
                0x0000000080000c14                sys_ic_get_half_mode_strap_pin
                0x00000000800017e0                sys_ic_get_usb_num
                0x0000000080001728                close
                0x00000000800011c8                sys_ic_dram_scramble_enabled
                0x0000000080000b4c                sys_ic_get_dram_clock
                0x0000000080001c48                __TEXT_RAM_ADDR = (__RAM_BASE +  SIZEOF (.boot))
                0x0000000080001c48                __TEXT_ROM_ADDR = (__BOOT_ROM_ADDR +  SIZEOF (.boot))

.text           0x0000000080001c48   0x16fab8 load address 0x0000000080001c48
 *(.init)
 *(.text)
 .text          0x0000000080001c48      0x548 board_config.o
                0x0000000080001df8                board_i2c_set
                0x0000000080001cc0                pin_mux_config
                0x0000000080001d58                snd_config_set
                0x0000000080001e88                nim_s3202_Tuner_Attatch
                0x0000000080001c48                smartcard_init
                0x0000000080001dd0                pan_attach
 .text          0x0000000080002190       0xd4 cdca/win_ca_freepreviewing.o
                0x0000000080002228                ap_cas_free_previewing_close
                0x0000000080002190                ap_cas_free_previewing_open
 .text          0x0000000080002264      0x198 cdca/win_ca_message.o
 .text          0x00000000800023fc      0x67c cdca/win_ca_operator_info.o
                0x0000000080002740                operator_got_info
                0x00000000800023fc                win_ca_operator_get_num
                0x0000000080002534                Operator_enter_key
                0x0000000080002408                comlist_menu_ca_operator_keymap
                0x0000000080002448                comlist_menu_ca_operator_callback
 .text          0x0000000080002a78       0xac cdca/win_ca_operator_message.o
 .text          0x0000000080002b24      0x714 cdca/win_ca_password.o
                0x0000000080002eb4                win_ca_pwd_open
 .text          0x0000000080003238      0x848 cdca/win_ca_pinpwd.o
                0x0000000080003238                win_pin_pwd_switch_confirm
                0x0000000080003310                win_pin_pwd_enter_proc
 .text          0x0000000080003a80      0xbac cdca/win_ca_popup_ipp.o
                0x0000000080003a80                ippbuy_got_info
                0x0000000080004414                ippbuy_enter_key_proc
                0x0000000080004618                verify_period_value
 .text          0x000000008000462c      0x5e8 cdca/win_ca_watchlevel.o
 .text          0x0000000080004c14     0x10dc cdca/win_cas_com.o
                0x00000000800053a8                CaculateSysDateToUTC
                0x000000008000513c                YMD_calculate
                0x0000000080004c24                pin_pwd_get_status
                0x0000000080005c7c                ap_cas_wait_sc_ok
                0x0000000080004c3c                pin_pwd_init
                0x0000000080005c4c                cas_sprintf
                0x0000000080004c14                pin_pwd_set_status
                0x0000000080004cc0                pin_pwd_set_str
                0x00000000800056cc                cas_popup_yesno_msg
                0x00000000800055d8                convert_sysdate_to_uni
                0x0000000080004fe0                pin_pwd_is_same
                0x0000000080005660                cas_popup_msg
                0x0000000080005738                win_init_pstring
                0x0000000080004e3c                pin_pwd_input
                0x0000000080005064                pin_pwd_len
                0x00000000800057c4                cas_inter_print
                0x000000008000554c                CaculateSysDateToGMT
                0x0000000080004f64                pin_pwd_drawback
 .text          0x0000000080005cf0     0x196c cdca/win_cas_proc.o
                0x000000008000762c                cas_get_pdsd
                0x0000000080007104                cas_feed_timer_handle
                0x0000000080006060                ap_cas_message_open_unicode
                0x0000000080006be8                cas_feed_card_popup
                0x0000000080005d20                ap_get_cas_notice_status
                0x000000008000694c                cas_cancel_lockservice
                0x0000000080006688                ap_cas_mail_proc
                0x0000000080005eec                ap_cas_disp_blackscreen
                0x00000000800070cc                ap_cas_periodic_check
                0x0000000080006a20                ap_cas_unlockservice_proc
                0x0000000080005d38                ap_tfcas_smcout_proc
                0x0000000080006a44                ap_cas_lockservice_proc
                0x00000000800064a4                ap_cas_fingerprint_proc
                0x0000000080005cf0                ap_set_signal_status
                0x0000000080006874                cas_dis_urgentbc
                0x0000000080005e00                ap_cas_OTA_upgrade
                0x00000000800069e8                cas_lock_timer_handle
                0x0000000080006128                ap_cas_smcin_proc
                0x0000000080007634                cas_init
                0x0000000080006dd0                ap_cas_feed_card
                0x0000000080005cfc                ap_get_signal_status
                0x0000000080005d14                ap_get_cas_urgency_status
                0x0000000080005d08                ap_get_cas_dispstr
                0x0000000080005d40                ap_cas_caslib_print
                0x00000000800062b4                ap_cas_message_setid
                0x00000000800071a8                ap_cas_message_proc
                0x00000000800061f8                cas_disp_blackscreen_task_del
                0x0000000080005dc8                ap_cas_OTA_check
                0x0000000080005fa8                ap_cas_message_open
                0x000000008000676c                ap_cas_ipp_popup_proc
                0x00000000800075bc                ap_cas_callback
                0x00000000800062bc                ap_cas_message_show
                0x00000000800060f0                ap_cas_message_close
 .text          0x000000008000765c      0x2cc cdca/win_fingerprint.o
                0x0000000080007788                show_finger_print
                0x0000000080007894                urgent_disp
 .text          0x0000000080007928     0x12b8 cdca/win_mail.o
                0x00000000800080ac                mail_delete_one
                0x0000000080007d80                mail_got_info
                0x00000000800081a8                mail_exec_delete
                0x0000000080007f08                mail_update_info
                0x0000000080008140                mail_delete_all
 .text          0x0000000080008be0      0x66c cdca/win_mail_content.o
 .text          0x000000008000924c       0xc0 cdca/win_mail_icon.o
                0x000000008000924c                ShowBMailOSDOnOff
                0x00000000800092ac                ShowDetitleOSDOnOff
 .text          0x000000008000930c     0x11f8 cdca/win_osdmsg.o
                0x0000000080009f1c                osdmsg_bottom_task
                0x0000000080009698                scroll_string
                0x000000008000a1a0                cas_osdmsg_task_init
                0x000000008000a494                get_ge_dst_surface
                0x00000000800094a4                osdmsg_display_stop
                0x000000008000a024                ap_osd_layer2_init
                0x000000008000930c                osdmsg_display_start
                0x0000000080009ca4                osdmsg_disp_bottom
                0x000000008000a4a0                cas_osdmsg_send
                0x0000000080009ef8                osdmsg_top_task
                0x0000000080009a50                osdmsg_disp_top
                0x000000008000a2b8                creat_ge_surface
                0x0000000080009f40                ap_osd_layer2_exit
 .text          0x000000008000a504      0x854 cdca/win_smc_info.o
 .text          0x000000008000ad58     0x3a30 control.o
                0x000000008000ad64                ap_hk_to_vk
                0x000000008000b200                ap_clear_all_menus
                0x000000008000ae3c                ap_vk_to_hk
                0x000000008000dc58                api_set_channel_info
                0x000000008000b530                ap_epg_call_back
                0x000000008000af04                ap_get_vk
                0x000000008000b61c                ap_get_key_msg
                0x000000008000afc4                CreateSubtitleRegion
                0x000000008000d670                win_popup_msg
                0x000000008000d87c                ap_OTA_upgrade
                0x000000008000dd60                api_stop_play
                0x000000008000dde8                ap_get_current_prog
                0x000000008000afcc                ap_osd_init
                0x000000008000af6c                ap_get_hk
                0x000000008000d48c                ap_signal_messag_proc
                0x000000008000e6c8                ap_nit_update_notify
                0x000000008000e52c                find_valid_channel
                0x000000008000bee0                system_init_process
                0x000000008000d2a0                ap_comand_message_proc
                0x000000008000b5f4                OTASpecialCB
                0x000000008000c318                NimDebugKeyProc
                0x000000008000da2c                cur_channel_is_scrambled
                0x000000008000c3a8                ap_key_commsg_proc
                0x000000008000b8f0                ap_task_init
                0x000000008000d6f0                ap_manual_upgrade
                0x000000008000ad58                ap_set_system_state
                0x000000008000ddf4                api_play_channel
                0x000000008000c90c                ap_timer_expire_proc
                0x000000008000b890                ap_osd_exit
                0x000000008000b364                ap_clear_all_message
                0x000000008000cb10                ap_timer_message_proc
                0x000000008000e6a0                gy_switch_debug_get
                0x000000008000da9c                reset_group
                0x000000008000b5c0                ap_pid_change
                0x000000008000b42c                ap_send_msg_expand
                0x000000008000da90                api_resume_play
                0x000000008000b39c                ap_send_msg
                0x000000008000db8c                api_set_frontend
                0x000000008000b4b8                time_refresh_callback
 .text          0x000000008000e788      0x5cc copper_common/backup_loader.o
                0x000000008000ea80                load_chunk_by_addr
                0x000000008000ec58                restore_upgloader
                0x000000008000e908                load_chunk_by_id
                0x000000008000eb84                backup_upgloader
                0x000000008000e788                backup_burn_flash
 .text          0x000000008000ed54      0xf28 copper_common/bat_private.o
                0x000000008000fa98                get_service_bouquet_info
                0x000000008000f7d0                bat_priv_info_init
                0x000000008000fb9c                update_services_info
 .text          0x000000008000fc7c     0x3644 copper_common/com_api.o
                0x0000000080010bc8                api_parse_defaultset_subblock
                0x00000000800115b4                set_next_wakeup_datetime
                0x000000008000ffec                boot_set_vdec_out
                0x000000008000fe80                api_video_get_tvout
                0x000000008000fce4                api_audio_gen_tonevoice
                0x000000008000fef4                api_osd_set_tv_system
                0x00000000800123c8                api_timers_proc
                0x000000008000fcb4                api_audio_set_mute
                0x00000000800118c0                api_compare_timer
                0x000000008000fc7c                api_feed_power_onoff
                0x0000000080010ff0                api_check_valid_date
                0x0000000080012154                api_get_first_timer
                0x0000000080010388                api_video_set_tvout
                0x000000008000ffa4                vdac_num_get
                0x0000000080010f60                api_check_is_leap_year
                0x0000000080010898                api_show_radio_logo
                0x00000000800101bc                api_YUV_OnOff
                0x00000000800131dc                api_fill_black_screen
                0x00000000800113c8                api_compare_day_time
                0x000000008000fd40                api_audio_beep_start
                0x0000000080011248                api_compare_time
                0x000000008000fe14                api_video_get_srcmode
                0x00000000800104a4                api_video_set_pause
                0x0000000080013184                api_sn_get
                0x0000000080010ea8                api_tv_radio_switch
                0x0000000080010988                api_show_menu_logo
                0x0000000080012de8                api_timer_resort
                0x00000000800105fc                api_osd_mode_change
                0x000000008001141c                api_compare_day_time_ext
                0x000000008000fde8                api_audio_beep_stop
                0x00000000800105b8                api_stop_timer
                0x00000000800107c8                api_show_bootup_logo
                0x0000000080012798                Hex2Dec
                0x000000008001074c                api_get_chuck_addlen
                0x00000000800116e8                update_yy_mm_dd
                0x00000000800110b0                api_correct_yy_mm_dd
                0x000000008000fd1c                api_audio_stop_tonevoice
                0x0000000080011470                api_get_time_len
                0x0000000080010a58                api_show_row_logo
                0x000000008000fdbc                api_audio_beep_set_interval
                0x00000000800131b0                api_mac_addr_get
                0x00000000800120f0                api_timers_running
                0x00000000800112a8                api_compare_time_ext
                0x0000000080011338                api_compare_day
                0x0000000080011bec                api_compare_timer_time
                0x000000008001054c                api_start_cycletimer
                0x0000000080011e58                api_check_timer
                0x0000000080012b80                api_get_recently_timer
                0x0000000080010050                api_Svideo_OnOff
                0x00000000800130a0                api_cur_channel_is_scrambled
                0x0000000080012ad0                api_set_audio_language
                0x000000008000fc84                api_audio_set_volume
                0x0000000080013120                api_hwsw_Info_get
                0x0000000080012824                get_ch_pids
                0x0000000080010504                api_start_timer
 .text          0x00000000800132c0      0x67c copper_common/com_epg.o
                0x0000000080013624                epg_get_event_all_short_detail
                0x00000000800132c0                epg_get_event_name
                0x0000000080013534                epg_get_event_language
                0x0000000080013580                epg_get_event_content_type
                0x000000008001389c                epg_get_cur_service_event
                0x00000000800134e8                epg_get_event_end_time
                0x000000008001349c                epg_get_event_start_time
                0x0000000080013754                epg_get_event_all_extented_detail
 .text          0x000000008001393c      0x280 copper_common/menu_api.o
                0x0000000080013b14                menu_enter_root
                0x0000000080013a60                GetCurWinNum
                0x00000000800139ac                menu_stack_pop_to
                0x0000000080013a34                menu_stack_pop
                0x0000000080013a6c                menu_stack_get_top
                0x000000008001393c                window_pos_in_stack
                0x00000000800139f8                menu_stack_push
                0x0000000080013a54                menu_stack_pop_all
                0x0000000080013a9c                menu_stack_get
 .text          0x0000000080013bbc      0x9b0 copper_common/ota_special.o
                0x0000000080013cdc                bcd2str
                0x0000000080014488                ota_get_tp_info
                0x0000000080014228                ota_table_request
                0x000000008001447c                ota_get_download_pid
                0x00000000800144c0                ota_callback_register
                0x00000000800144a8                ota_get_force_flag
                0x000000008001443c                ota_change_nim
                0x0000000080013c30                Str2UINT32
                0x0000000080013d58                sn_cmp
                0x00000000800144b4                ota_get_sw_version_ctrl
                0x0000000080013bbc                Char2Hex
 .text          0x000000008001456c      0x70c copper_common/stb_data.o
                0x000000008001476c                stb_info_data_init_chunk
                0x0000000080014ba8                stb_data_load
                0x0000000080014588                stb_info_data_init
                0x0000000080014578                stb_pan_display
                0x0000000080014a1c                stb_data_factory_init
                0x0000000080014580                stb_pan_display_revert
                0x0000000080014aec                stb_data_factory_complete
                0x000000008001456c                set_pan_display_type
 .text          0x0000000080014c78      0x9a4 copper_common/stb_hwinfo.o
                0x0000000080014d78                get_stb_hwinfo
                0x0000000080014ecc                cmd_process_monitor
                0x0000000080014d20                stb_hwinfo_get
                0x0000000080014e6c                get_stb_mac
                0x0000000080014fa0                api_set_com_check_flag
                0x0000000080014e10                get_stb_serial
                0x00000000800154a0                api_com_monitor
                0x0000000080014fac                cmd_stbid
 .text          0x000000008001561c     0x2130 copper_common/system_data.o
                0x0000000080016c50                sys_data_cur_group_inc_dec
                0x0000000080015fc8                sys_data_check_channel_groups
                0x0000000080015f24                sys_data_save
                0x0000000080016f5c                sys_data_get_menu_password
                0x0000000080017078                sys_data_select_language
                0x0000000080016f7c                sys_data_set_menu_lock
                0x000000008001561c                get_stream_lang_cnt
                0x0000000080016b78                sys_data_change_fav_group
                0x0000000080015628                get_stream_langm_cnt
                0x0000000080016810                sys_data_get_fav_group_channel
                0x000000008001701c                sys_data_set_utcoffset
                0x0000000080017558                do_set_display_effect
                0x0000000080016780                sys_data_get_sate_group_channel
                0x0000000080016718                sys_data_set_cur_group_channel
                0x00000000800165f8                sys_data_set_group_channel
                0x0000000080017538                sys_data_get_cur_satidx
                0x0000000080017320                sys_data_set_palette
                0x0000000080016320                sys_data_get_sate_group_num
                0x0000000080017480                sys_data_set_display_mode
                0x0000000080016fa4                sys_data_set_channel_lock
                0x0000000080016c24                set_special_group_channel
                0x000000008001703c                sys_data_gmtoffset_2_hmoffset
                0x00000000800172c8                sys_data_get_factory_reset
                0x0000000080016a08                sys_data_change_group
                0x00000000800172e0                sys_data_set_factory_reset
                0x0000000080016598                sys_data_get_cur_intgroup_index
                0x0000000080017674                sys_data_load_display_effect
                0x0000000080016748                sys_data_get_cur_group_channel
                0x0000000080016f2c                sys_data_get_menu_lock
                0x00000000800165a8                sys_data_set_cur_intgroup_index
                0x00000000800163b8                sys_data_get_fav_group_num
                0x000000008001700c                sys_data_get_utcoffset
                0x0000000080016f44                sys_data_get_channel_lock
                0x0000000080015944                sys_data_get
                0x0000000080016680                sys_data_get_group_channel
                0x00000000800165c8                sys_data_get_cur_group_cur_mode_channel
                0x0000000080016fcc                sys_data_set_menu_password
                0x0000000080016ffc                sys_data_set_chan_password
                0x0000000080016c9c                sys_data_group_inc_dec
                0x00000000800170b4                sys_data_select_audio_language
                0x0000000080017548                sys_data_set_cur_satidx
                0x0000000080015954                sys_data_load
                0x0000000080015fa4                sys_data_set_cur_chan_mode
                0x0000000080015634                sys_data_factroy_init
                0x000000008001652c                sys_data_set_cur_group_index
                0x0000000080016394                sys_data_get_local_group_num
                0x0000000080015f94                sys_data_get_cur_chan_mode
                0x0000000080016430                sys_data_get_cur_group_index
                0x00000000800162f4                sys_data_get_group_num
                0x00000000800168dc                sys_data_get_cur_mode_group_infor
                0x0000000080016f6c                sys_data_get_chan_password
 .text          0x000000008001774c       0xa4 data_bdcast_com.o
                0x000000008001774c                _generic__dbcast_message_send
 .text          0x00000000800177f0     0x134c game_box.o
                0x0000000080018570                SetMyFrame
                0x0000000080017a20                reset_M_pathIndex
                0x00000000800179c8                NewGame
                0x00000000800186e8                game_Box_init
                0x00000000800180c4                hide
                0x0000000080018578                Undo
                0x0000000080017f48                show
                0x00000000800179f4                Gamemain
 .text          0x0000000080018b3c     0x1b0c game_othello.o
                0x0000000080019838                init_board
                0x000000008001a278                computer_play
                0x000000008001927c                scan_bd_aixes
                0x0000000080018f64                scan_fd_aixes
                0x00000000800198e8                extend_node_one
                0x0000000080018b3c                scan_horiz_aixes
                0x000000008001a1c4                game_over
                0x000000008001a534                do_move_chess
                0x000000008001a120                get_chess_score
                0x0000000080019618                calc_board_status
                0x0000000080019d14                extend_node_two
                0x0000000080019730                find_move
                0x00000000800195a8                sample_calc_board_status
                0x0000000080018d40                scan_vertical_aixes
 .text          0x000000008001a648     0x1c8c geeya_ad/adv_geeya.o
                0x000000008001c1a0                GYSTBAD_End
                0x000000008001bab8                GYSTBAD_EraseNvram
                0x000000008001ad44                gyad_check_data_timeout
                0x000000008001bde8                GYSTBAD_WriteNvram_Logo_Menu
                0x000000008001b88c                GYSTBAD_GetBootVer
                0x000000008001a86c                gyad_filter_callback
                0x000000008001af34                GYSTBAD_RequestFree
                0x000000008001c1ac                gyad_get_channel_ad
                0x000000008001a6c8                gyad_demxu_set_mv
                0x000000008001b954                GYSTBAD_GetNvram
                0x000000008001a668                GYSTBAD_Free
                0x000000008001b108                GYSTBAD_SemaphoreUnlock
                0x000000008001a6a8                GYSTBAD_Memcpy
                0x000000008001a648                GYSTBAD_Malloc
                0x000000008001a688                GYSTBAD_Memset
                0x000000008001c094                GYSTBAD_Start
                0x000000008001b614                GYSTBAD_GetBootAd
                0x000000008001b9d4                GYSTBAD_ReadNvram
                0x000000008001b280                GYSTBAD_SaveBootAd
                0x000000008001bbac                GYSTBAD_WriteNvram
                0x000000008001ad14                GYSTBAD_Print
                0x000000008001b100                GYSTBAD_SemaphoreLock
                0x000000008001c174                GYSTBAD_ADExit
                0x000000008001c244                gyad_get_boot_logo
                0x000000008001abb4                GYSTBAD_RequestPrivateData
                0x000000008001b008                GYSTBAD_SetTS
 .text          0x000000008001c2d4      0x2a8 geeya_ad/GYAD_Api.o
                0x000000008001c458                GYADAPI_GetNvram
                0x000000008001c550                GYADSTB_GetAdInfo
                0x000000008001c314                GYADAPI_Memset
                0x000000008001c3b0                GYADAPI_SetTS
                0x000000008001c438                GYADAPI_GetBootVer
                0x000000008001c410                GYADAPI_SaveBootAd
                0x000000008001c3f0                GYADAPI_SemaphoreUnlock
                0x000000008001c2d4                GYADAPI_Malloc
                0x000000008001c2f4                GYADAPI_Free
                0x000000008001c478                GYADAPI_ReadNvram
                0x000000008001c38c                GYADAPI_RequestFree
                0x000000008001c334                GYADAPI_Memcpy
                0x000000008001c4f8                GYADSTB_ADStart
                0x000000008001c498                GYADAPI_EraseNvram
                0x000000008001c354                GYADAPI_RequestPrivateData
                0x000000008001c4b8                GYADAPI_WriteNvram
                0x000000008001c51c                GYADSTB_PrivateDataGot
                0x000000008001c4d8                GYADAPI_Exit
                0x000000008001c3d0                GYADAPI_SemaphoreLock
 .text          0x000000008001c57c     0x2a44 geeya_ad/GYAD_Core.o
                0x000000008001e95c                GYADCore_Start
                0x000000008001c5e8                crc_fast_calculate
                0x000000008001ede8                GYADCore_GetAdInfo
                0x000000008001ea84                GYADCore_PrivateDataGot
                0x000000008001c57c                crc_setup_fast_lut
 .text          0x000000008001efc0      0x9ec key.o
                0x000000008001efc0                key_task_suspend
                0x000000008001f7ec                key_pan_display_channel
                0x000000008001f088                multi_key_to_hk_msg
                0x000000008001f6ac                key_Init
                0x000000008001f020                key_get_key
                0x000000008001f718                key_pan_display
                0x000000008001efdc                key_set_upgrade_check_flag
                0x000000008001efe8                key_set_signal_check_flag
                0x000000008001effc                key_set_enable_flag
                0x000000008001f350                key_monitor_com
                0x000000008001f950                key_pan_display_power
                0x000000008001efd0                key_task_resume
                0x000000008001f15c                key_check_signal_status
                0x000000008001f864                key_pan_display_lock
                0x000000008001f008                key_device_init
                0x000000008001f8d8                key_pan_display_standby
 .text          0x000000008001f9ac      0x168 menus_root.o
                0x000000008001f9ac                menus_find_root
                0x000000008001fa60                menus_find_root_nvodmode
 .text          0x000000008001fb14     0x1754 osd_rsc.o
                0x0000000080021124                RSC_font_init
                0x0000000080020f04                OSDExt_GetWinStyle
                0x00000000800209bc                ScrollString
                0x00000000800209b0                GetScrollStopFlag
                0x0000000080020f5c                RSC_expand
                0x0000000080020194                OSD_GetLangEnvironment
                0x0000000080020e5c                OSD_GetDefaultFontLib
                0x0000000080020570                OSD_GetRscObjData_ext
                0x0000000080020eb8                OSDExt_GetMsgLibId
                0x00000000800211d0                RSC_bmp_init
                0x00000000800209a4                SetScrollStopFlag
                0x00000000800201a0                OSD_SetLangEnvironment
                0x000000008002020c                OSD_GetRscObjData
                0x0000000080020e50                OSD_ReleaseObjData
                0x0000000080020d04                OSD_GetObjInfo
 .text          0x0000000080021268      0x418 power.o
                0x000000008002138c                power_on_process
                0x0000000080021428                power_switch
                0x0000000080021268                power_off_process
 .text          0x0000000080021680     0x17c4 root.o
                0x0000000080022b70                api_get_fastplay_flag
                0x0000000080022e3c                getpid
                0x0000000080022b7c                stb_info_check
                0x0000000080021fb8                vp_vdac_init
                0x0000000080022e34                kill
                0x0000000080022ce4                AppInit
                0x0000000080021680                init_vbv_buffer
                0x0000000080022910                regist_device_to_manage
                0x000000008002297c                api_fastplay_service
 .text          0x0000000080022e44      0xbc8 single_pic_ad/ad_pic.o
                0x0000000080022e44                ad_pic_init
                0x0000000080022fe8                close_ad_pic
                0x0000000080023318                show_flash_pic
                0x0000000080022ef8                ad_pic_exit
                0x0000000080023598                show_channel_ad
                0x0000000080023890                refresh_main_menu_adv
 .text          0x0000000080023a0c      0x910 single_pic_ad/ad_pic_gfx.o
                0x0000000080023ee8                ad_pic_gfx_draw
                0x0000000080024094                ad_pic_gfx_fill
                0x00000000800242f0                ad_pic_get_ge_surface
                0x0000000080024310                ad_pic_get_ge_region_id
                0x0000000080023cb8                ad_pic_show_on
                0x00000000800241dc                ad_pic_gfx_clear
                0x0000000080023a0c                ad_pic_gfx_init
                0x0000000080023d38                ad_pic_gfx_exit
 .text          0x000000008002431c      0x684 single_pic_ad/ad_pic_gif.o
                0x0000000080024900                ad_pic_gif_close
                0x0000000080024710                ad_pic_gif_draw
                0x000000008002465c                ad_pic_gif_init
                0x00000000800248ac                ad_pic_gif_stop
 .text          0x00000000800249a0      0x484 single_pic_ad/ad_pic_img.o
                0x0000000080024dfc                ad_pic_img_close
                0x0000000080024dbc                ad_pic_img_draw
                0x0000000080024dec                ad_pic_img_clear
 .text          0x0000000080024e24      0x43c single_pic_ad/ad_pic_png.o
                0x000000008002507c                ad_pic_png_init
                0x0000000080025230                ad_pic_png_close
                0x00000000800251e8                ad_pic_png_draw
 .text          0x0000000080025260      0x198 win_advset.o
 .text          0x00000000800253f8      0x258 win_audio.o
 .text          0x0000000080025650      0x21c win_audioset.o
 .text          0x000000008002586c      0x65c win_book_detail.o
                0x000000008002586c                play_time
 .text          0x0000000080025ec8      0x2dc win_ca_bing.o
                0x000000008002611c                smc_binding_info_display
 .text          0x00000000800261a4      0x1d0 win_ca_set.o
 .text          0x0000000080026374      0x854 win_chan_detail.o
 .text          0x0000000080026bc8     0x1084 win_chan_edit.o
 .text          0x0000000080027c4c     0x1290 win_chan_list.o
                0x0000000080027c4c                ChanListSetTitleID
                0x0000000080027c5c                ChanListSetModeChangedFlag
 .text          0x0000000080028edc      0x288 win_chan_manage.o
 .text          0x0000000080029164      0x374 win_chan_management.o
 .text          0x00000000800294d8      0x5bc win_chanedit_action.o
 .text          0x0000000080029a94      0x884 win_channel_info.o
 .text          0x000000008002a318      0x2c0 win_child_lock.o
 .text          0x000000008002a5d8      0x9bc win_child_lock_list.o
 .text          0x000000008002af94     0x30a4 win_com.o
                0x000000008002da40                wincom_scroll_textfield_pause
                0x000000008002af94                wincom_open_title
                0x000000008002bb20                wincom_close_help
                0x000000008002dffc                find_prg_id_from_index
                0x000000008002dc5c                increase_val_inuncode
                0x000000008002ca30                get_tuner_sat_cnt
                0x000000008002de30                group_get_name
                0x000000008002cd40                remove_menu_item
                0x000000008002d058                wincom_AscToMBUni
                0x000000008002d320                wincom_mbs_to_i_with_dot
                0x000000008002c338                comlist_chgrpall_callback
                0x000000008002b254                wincom_draw_epg_title_time
                0x000000008002b3d8                wincom_draw_time_ext
                0x000000008002df68                display_strs_init
                0x000000008002da78                wincom_scroll_get_over
                0x000000008002d10c                wincom_i_to_mbs
                0x000000008002de24                setVolumeOn
                0x000000008002daa8                wincom_scroll_textfield
                0x000000008002de18                getVolumeState
                0x000000008002dc04                Draw_pop_info
                0x000000008002d430                ForceToScrnDonothing
                0x000000008002c10c                wincom_close_preview
                0x000000008002ca68                get_tuner_sat_name
                0x000000008002bd88                wincom_open_preview_ext
                0x000000008002c428                comlist_chgrpfav_callback
                0x000000008002b558                wincom_draw_title_time
                0x000000008002b7e0                wincom_open_help
                0x000000008002cedc                ComStrCat
                0x000000008002ca24                get_tuner_cnt
                0x000000008002d6dc                DrawGrpName
                0x000000008002d9b0                wincom_restore_region
                0x000000008002c540                comlist_chanlist_callback
                0x000000008002c674                win_com_open_sub_list
                0x000000008002dd7c                is_larger_than_1m
                0x000000008002d774                Draw_localGrp_Name
                0x000000008002da34                wincom_scroll_set_delay_cnt
                0x000000008002d8f4                win_clear_trash
                0x000000008002b714                wincom_open_title_ext
                0x000000008002bc18                setMtxt
                0x000000008002ccf4                get_cur_group_name
                0x000000008002be30                wincom_draw_preview_frame
                0x000000008002cf84                ComInt2Str
                0x000000008002b7b4                wincom_close_title
                0x000000008002bf58                wincom_preview_proc
                0x000000008002d698                del_from_timer
                0x000000008002b744                wincom_open_title_by_str
                0x000000008002ca3c                get_tuner_sat
                0x000000008002d92c                wincom_backup_region
                0x000000008002dcec                decrease_val_inuncode
                0x000000008002d3b4                display_str_init
                0x000000008002da5c                wincom_scroll_textfield_stop
                0x000000008002d48c                BackToFullScrPlay
                0x000000008002d150                wincom_mbs_to_i
                0x000000008002bb4c                PreviewVolProc
                0x000000008002cb48                get_tp_name
                0x000000008002cc38                get_chan_group_name
                0x000000008002bc24                wincom_open_preview
                0x000000008002c158                comlist_satlist_callback
                0x000000008002afe4                timer_InOrDecrease
                0x000000008002d5cc                restore_scene
                0x000000008002d1c0                wincom_i_to_mbs_with_dot
                0x000000008002da50                wincom_scroll_textfield_resume
                0x000000008002c248                comlist_tplist_callback
                0x000000008002d634                record_scene
 .text          0x000000008002e038      0xd38 win_com_list.o
                0x000000008002e970                win_comlist_ext_set_win_style
                0x000000008002ec10                win_comlist_ext_set_item_attr
                0x000000008002e66c                set_obj_wh
                0x000000008002eb78                win_comlist_ext_set_item_cur
                0x000000008002e3d8                win_comlist_set_sizestyle
                0x000000008002e67c                set_bar_h
                0x000000008002e250                win_comlist_set_frame
                0x000000008002ebc8                win_comlist_ext_enable_scrollbar
                0x000000008002e8ac                win_comlist_ext_set_title
                0x000000008002e494                win_comlist_set_str
                0x000000008002ea64                win_comlist_ext_set_selmark_xaligen
                0x000000008002e9c4                win_comlist_ext_set_ol_items_allstyle
                0x000000008002ec54                win_comlist_popup
                0x000000008002e588                win_comlist_get_selitem
                0x000000008002e448                win_comlist_set_align
                0x000000008002e688                win_comlist_ext_set_ol_frame
                0x000000008002eac4                win_comlist_ext_get_sel_items
                0x000000008002e640                win_comlist_close
                0x000000008002eb20                win_comlist_ext_set_item_sel
                0x000000008002ea54                win_comlist_ext_set_selmark
                0x000000008002ead8                win_comlist_ext_check_item_sel
                0x000000008002e610                win_comlist_open
                0x000000008002ece0                win_comlist_popup_ext
                0x000000008002e128                win_comlist_clear_sel
                0x000000008002e168                win_comlist_reset
                0x000000008002ea30                win_comlist_ext_set_title_style
                0x000000008002e5b8                win_comlist_set_mapcallback
                0x000000008002e994                win_comlist_ext_set_ol_items_style
 .text          0x000000008002ed70     0x12d4 win_com_popup.o
                0x000000008002f8dc                win_com_backup_rect
                0x000000008002f248                win_compopup_set_msg
                0x000000008002f884                win_com_popup_open
                0x000000008002fac8                win_compopup_open_ext
                0x000000008002ed70                win_compopup_get_status
                0x000000008002fa44                win_com_restore_rect
                0x000000008002ed7c                win_compopup_set_status
                0x000000008002f514                win_compopup_set_btnstr
                0x000000008002fdc0                win_compopup_open_timer
                0x000000008002fc6c                win_compopup_smsg_restoreback
                0x000000008002f858                win_compopup_close
                0x000000008002f758                win_compopup_set_pos
                0x000000008002f174                win_compopup_set_title
                0x000000008002f7b0                win_compopup_open
                0x000000008002eeec                win_compopup_init
                0x000000008002f798                win_compopup_set_default_choice
                0x000000008002f45c                win_compopup_set_msg_ext
                0x000000008002fcf4                win_compopup_set_mpbtn
                0x000000008002f55c                win_compopup_set_frame
 .text          0x0000000080030044     0x1260 win_common_item.o
                0x0000000080031064                win_avratio_get_index
                0x0000000080031134                win_tvmode_get_index
                0x00000000800310a4                win_av_set_ratio
                0x0000000080031198                set_video_output
                0x00000000800311fc                set_display_effect_param_scaling
                0x0000000080031178                tvmode_osd_to_setting
 .text          0x00000000800312a4      0x6a4 win_displayset.o
                0x00000000800318b8                win_av_set_display_scale
                0x0000000080031878                win_display_scale_get_index
 .text          0x0000000080031948     0x2078 win_epg.o
 .text          0x00000000800339c0      0x790 win_epg_detail.o
                0x0000000080033f98                win_epg_detail_open
 .text          0x0000000080034150      0x304 win_factory_set.o
 .text          0x0000000080034454      0x29c win_factoryset.o
 .text          0x00000000800346f0      0x59c win_freqset.o
 .text          0x0000000080034c8c      0x8b4 win_full_band_scan.o
                0x0000000080035038                setAutoFullbandScan
                0x000000008003537c                get_search_param
                0x0000000080035044                nochannel_startScan
                0x000000008003502c                getAutoFullbandScan
                0x0000000080035534                get_qam_from_full_ban
                0x0000000080035528                get_symbol_from_full_ban
                0x00000000800354fc                reset_search_param
 .text          0x0000000080035540      0x780 win_game_com.o
                0x00000000800356d0                get_game_id
                0x00000000800355f0                update_status
                0x0000000080035728                drawBitmap
                0x00000000800356dc                set_game_id
                0x0000000080035540                setup_game_panel
                0x00000000800356e8                drawSquare
                0x000000008003567c                update_status_box
 .text          0x0000000080035cc0      0xa40 win_game_othello.o
                0x00000000800366b0                game_othello_init
 .text          0x0000000080036700      0x36c win_games.o
 .text          0x0000000080036a6c      0x270 win_languageset.o
 .text          0x0000000080036cdc      0x9c8 win_light_channel_list.o
 .text          0x00000000800376a4      0xad0 win_mainmenu.o
                0x00000000800376a4                get_main_menu_adv_show_status
                0x00000000800380b0                show_black
                0x0000000080038104                fill_black
 .text          0x0000000080038174      0xa98 win_manual_search.o
                0x0000000080038bf4                get_symbol_from_manual
                0x0000000080038be8                get_freq_from_manual
                0x0000000080038c00                get_qam_from_manual
 .text          0x0000000080038c0c      0x6c4 win_manual_update.o
                0x0000000080039290                manual_upgrade_get_param
                0x0000000080039268                manual_upgrade_set_param
                0x00000000800392c0                manual_upgrade_get_param_pid
 .text          0x00000000800392d0      0x268 win_mute.o
                0x0000000080039308                ShowMuteOSDOnOff
                0x0000000080039498                SetMuteState
                0x00000000800394d0                restore_back
                0x00000000800393dc                SetMuteOnOff
                0x00000000800393b0                ShowMuteOnOff
                0x00000000800392d0                GetMuteState
                0x00000000800392dc                MuteOSDClear
                0x0000000080039468                GetMuteRect
                0x00000000800394c8                backup_back
                0x00000000800394d8                SetMuteOnOff_ext
                0x00000000800394a4                mute_onoff_onmenu
 .text          0x0000000080039538      0x6b0 win_new_signal.o
 .text          0x0000000080039be8      0x628 win_new_signal_test.o
                0x0000000080039d04                new_win_signal_open_tplist
                0x0000000080039db4                new_win_signal_close
                0x0000000080039c44                new_win_signal_open
                0x000000008003a208                new_dem_signal_to_display
                0x0000000080039dc4                new_win_signal_update
                0x0000000080039be8                new_win_signal_set_level_quality
 .text          0x000000008003a210     0x3100 win_nvod.o
                0x000000008003cbd0                Draw_help_info
                0x000000008003d1a0                get_event_for_timer
                0x000000008003ca18                CovertByOffset
                0x000000008003a3a8                SetNvodFromTimerFlag
                0x000000008003a3b4                GetNvodFromTimerFlag
                0x000000008003b628                win_nvod_msg_translate
                0x000000008003d2f4                set_nt_event_para
                0x000000008003cfb8                reset_all_flags
                0x000000008003cd54                nvod_back_from_timer
                0x000000008003cff8                get_remain_time
                0x000000008003a3c0                GetNvodPlayFlag
                0x000000008003a3e8                GetNvodModeFlag
                0x000000008003d304                reset_update_flag
                0x000000008003b6e0                NvodGetCurRefEventPos
                0x000000008003a3cc                SetNvodPlayFlag
                0x000000008003a3f4                SetNvodModle
                0x000000008003d228                nvod_stop_play
                0x000000008003cc78                show_pop_up_info
                0x000000008003c40c                win_nvod_get_preview_rect
                0x000000008003d284                nvod_wait_play
                0x000000008003cce0                nvod_rise_from_timer
                0x000000008003a3dc                ReSetNvodPlayFlag
                0x000000008003ce4c                get_played_event
                0x000000008003a400                GetCurEvent
                0x000000008003af48                GetRefEventStartEndTime
                0x000000008003a7c8                do_play_nvod_channel
                0x000000008003a294                Get_NVOD_Scan_status
                0x000000008003c9b4                NvodUpdateTimeList
                0x000000008003ca68                SetNvodScanOverFlag
                0x000000008003d098                nvod_draw_remain_time
 .text          0x000000008003d310      0x218 win_nvod_detail.o
                0x000000008003d38c                win_nvod_detail_set_infor
                0x000000008003d45c                win_nvod_detail_set_refname
 .text          0x000000008003d528      0x8b0 win_nvod_event_bar.o
                0x000000008003d528                win_nvod_event_draw_infor
                0x000000008003dd78                time_splice
                0x000000008003dd00                nvod_event_unknow_proc
                0x000000008003da4c                win_nvod_event_redraw
 .text          0x000000008003ddd8      0x630 win_nvod_warn.o
                0x000000008003ddfc                setBackfromNVOD
                0x000000008003ddd8                SetNvodProgID
                0x000000008003ddf0                getBackfromNVOD
                0x000000008003dde4                GetNvodProgID
 .text          0x000000008003e408      0x77c win_password.o
                0x000000008003eac0                PwdChangePos
                0x000000008003e478                SetPwdCheckCB
                0x000000008003eab4                set_pwd_len
                0x000000008003e7a4                win_pwd_open
 .text          0x000000008003eb84      0x198 win_pause.o
                0x000000008003ec38                ShowPauseOnOff
                0x000000008003eb90                ShowPauseOSDOnOff
                0x000000008003ec64                SetPauseOnOff
                0x000000008003eb84                GetPauseState
                0x000000008003ed00                SetPauseStatus
                0x000000008003ecd0                GetPauseRect
 .text          0x000000008003ed1c      0x3d8 win_prog_input.o
                0x000000008003ed1c                prog_input_timer_func
 .text          0x000000008003f0f4     0x17e4 win_prog_name.o
                0x000000008003ff2c                win_progname_stop_scroll
                0x000000008003f0f4                win_progname_set_info
                0x0000000080040488                change_group
                0x00000000800400a8                change_channel
                0x000000008004026c                change_fav_channel
                0x000000008003f854                progname_timer_func
                0x000000008003f7dc                win_progname_redraw
                0x00000000800405ec                recall_play_channel
 .text          0x00000000800408d8      0x364 win_prog_search.o
 .text          0x0000000080040c3c      0x61c win_pwd_set.o
                0x0000000080040e20                win_pl_input_number
                0x0000000080040ca0                win_pl_set_password_str
                0x0000000080040c3c                win_par_switch_confirm
 .text          0x0000000080041258      0xc18 win_reserve_manage.o
 .text          0x0000000080041e70     0x1a40 win_search.o
                0x0000000080043868                gy_force_search_setflag
                0x0000000080043788                set_last_searched_prog
                0x00000000800431a8                DrawSearchParamInfo
                0x00000000800436d4                SetSearchParamMode
                0x0000000080043430                win_set_search_param
                0x0000000080043334                InitSearchParamInfo
                0x0000000080041ee0                group_by_bat
                0x0000000080042428                win_search_set_param
                0x0000000080043794                get_last_searched_prog
 .text          0x00000000800438b0      0x628 win_signal.o
                0x00000000800439cc                win_signal_open_tplist
                0x00000000800438b0                win_signal_set_level_quality
                0x000000008004390c                win_signal_open
                0x0000000080043a7c                win_signal_close
                0x0000000080043ed0                dem_signal_to_display
                0x0000000080043a8c                win_signal_update
 .text          0x0000000080043ed8      0x8f4 win_signal_test.o
 .text          0x00000000800447cc      0x610 win_signalstatus.o
                0x0000000080044944                GetSignalStatus
                0x0000000080044d98                restore_signal_osd
                0x000000008004492c                set_block_status
                0x00000000800448c0                SetChannelParrentLock
                0x00000000800448e4                SetSignalStopFlag
                0x0000000080044938                get_block_status
                0x0000000080044c74                GetSignalStatausShow
                0x0000000080044908                GetSignalStoped
                0x0000000080044c80                ShowSignalStatusOSDOnOff
                0x0000000080044cdc                ShowSignalStatusOnOff
                0x0000000080044d54                shift_signal_osd
                0x0000000080044918                GetChannelParrentLock
                0x0000000080044d48                SetChannelNimBusy
                0x0000000080044d18                GetSignalStatusRect
 .text          0x0000000080044ddc      0x538 win_stb_info.o
 .text          0x0000000080045314      0x284 win_sys_information.o
 .text          0x0000000080045598      0x3f0 win_sys_items.o
                0x000000008004597c                SetUsbMountFlag
 .text          0x0000000080045988      0x2cc win_system_management.o
 .text          0x0000000080045c54     0x1aa8 win_timer_set.o
                0x000000008004738c                insert_timer
                0x000000008004615c                set_container_active
                0x00000000800466f0                win_timerset_timerserviceinfo_change
                0x0000000080046f40                find_available_timer
                0x0000000080046188                win_timer_load
                0x0000000080046c4c                win_timerset_open
                0x0000000080047630                find_timer_with_st
                0x00000000800470f0                IsValidTimer
                0x0000000080046800                win_timerset_set_currenttime
                0x0000000080047538                resort_timer
                0x0000000080046550                win_timerset_timerservice_change
                0x00000000800468a0                win_timerset_check_and_save
                0x0000000080046fc4                find_suited_timer
                0x0000000080046408                win_timerset_timermode_change
 .text          0x00000000800476fc      0x354 win_volumebar.o
 .text          0x0000000080047a50      0x1b4 win_infomation.o
 .text          0x0000000080047c04     0x15c0 /d/3202c/prj/app/demo/dvbc/jade_demo_new_geeya/mcf_data_broadcast_3202c//release/lib//libgycas.a(gycas_api.o)
                0x0000000080047c1c                GYCAS_GetNetworkTag
                0x0000000080047d78                GYCA_GetCardArea
                0x00000000800489f0                GYCA_SelectLanguage
                0x0000000080047dfc                GYCAS_API_OnPrivateData
                0x0000000080047e08                GYCAS_API_OnBGInfo
                0x0000000080048874                GYCAS_CompareMachineType
                0x0000000080048838                GYCAS_HideFingerMessage
                0x0000000080048be0                GYCA_IPPVStopBuyDlg
                0x00000000800484a0                GYCAS_HideNoticeMessage
                0x0000000080048a0c                GYCA_GetVersionInfo
                0x0000000080047c28                GYCA_IPPTGetBoughtRecord
                0x0000000080047c94                GYCAS_GetStbSerialNo
                0x0000000080047e30                GYCAS_APPEventCallback
                0x0000000080047c34                GYCA_IsSonCard
                0x00000000800485ac                GYCAS_HideOSDMessage
                0x0000000080047c04                GYCA_RegisterNetworkInfo
                0x00000000800483e4                GYCAS_ShowNoticeMessage
                0x00000000800488ec                GYCAS_CompareMachineVersion
                0x000000008004862c                GYCAS_ShowFingerMessage
                0x00000000800491b8                GYCA_GetLicenseData
                0x0000000080047df0                GYCAS_API_OnEventSample
                0x0000000080048a9c                GYCA_MachineInfoRegister
                0x0000000080047dc0                GYCA_RegisterAvaegisAPPEventCallback
                0x00000000800484f8                GYCAS_ShowOSDMessage
                0x0000000080048744                GYCAS_ShowVmProgress
                0x0000000080048964                GYCAS_UpdateMachineAppVersion
                0x00000000800491ac                GYCA_SetLicenseData
 .text          0x00000000800491c4     0x2688 /d/3202c/prj/app/demo/dvbc/jade_demo_new_geeya/mcf_data_broadcast_3202c//release/lib//libgycas.a(gycas_ecm.o)
                0x000000008004a1b8                GYCAS_ECM_GetGroupCufb
                0x0000000080049dbc                GYCAS_IPPVStartBuyDlg
                0x000000008004a67c                GYCAS_ECM_CheckCardCufbFlag
                0x0000000080049e64                GYCAS_ECM_CheckCardExpired
                0x0000000080049684                GYCAS_SmcWriteParentCUFB
                0x000000008004b680                GYCAS_ClearFilterFlag
                0x000000008004a8fc                GYCAS_ECM_OnIppvInfo
                0x000000008004b648                GYCAS_GetCurrentDateTime
                0x000000008004b6e8                GYCAS_ClearIppvInfo
                0x0000000080049678                GYCAS_ECM_OnAudienceSample
                0x0000000080049574                GYCAS_ECM_OnConditionalAccess
                0x000000008004a0e0                GYCAS_ECM_CheckCardArea
                0x00000000800491c4                GYCA_GetMJDTime
                0x000000008004b694                GYCAS_ECM_Initialize
                0x000000008004a754                GYCAS_ECM_DecryptServiceCw
                0x000000008004b740                GYCAS_GetEcmTimeSecond
                0x0000000080049348                GYCAS_ECM_OnFilterCmp
                0x000000008004aab4                GYCAS_PlainECM
                0x000000008004b71c                GYCAS_GetIppvInfo
                0x000000008004988c                GYCAS_SmcGetParentCUFB
                0x000000008004a528                GYCAS_ECM_GetCufb
                0x000000008004a728                GYCAS_ECM_CheckStbArea
                0x0000000080049c3c                GYCAS_GetMJDYMD
 .text          0x000000008004b84c     0x1550 /d/3202c/prj/app/demo/dvbc/jade_demo_new_geeya/mcf_data_broadcast_3202c//release/lib//libgycas.a(gycas_mgr.o)
                0x000000008004bf34                GYCA_SetEcmPID
                0x000000008004c334                GYCAS_GetRequestECMPid
                0x000000008004c654                GYCA_SetEmmPID
                0x000000008004b84c                GYCAS_SendEmmEcmSetFilterMsg
                0x000000008004c900                GYCA_TableReceived
                0x000000008004c73c                GYCAS_CheckVmVer
                0x000000008004c818                GYCAS_CheckCardState
                0x000000008004b954                GYCA_Initialize
                0x000000008004cd90                GYCAS_GetCurrentECMPid
                0x000000008004bf24                GYCAS_GetLastServiceInfo
                0x000000008004c8ec                GYCAS_CAMM_CheckDebug
                0x000000008004c6dc                GYCAS_VmReloadFlashCode
                0x000000008004befc                GYCAS_SendMessage2CAMM
 .text          0x000000008004cd9c      0x9d8 /d/3202c/prj/app/demo/dvbc/jade_demo_new_geeya/mcf_data_broadcast_3202c//release/lib//libgycas.a(gycas_mmm.o)
                0x000000008004d05c                GYCAS_MMM_ReadParentRecord
                0x000000008004d620                GYCAS_MMM_GetLocalVmSize
                0x000000008004d1c4                GYCAS_MMM_GenerateStbSn
                0x000000008004ce94                GYCAS_MMM_WriteParentRecord
                0x000000008004d5d4                GYCAS_MMM_GetLocalVmVer
                0x000000008004d678                GYCAS_MMM_GetVmCode
                0x000000008004cd9c                GYCAS_MMM_Initialize
                0x000000008004d4f4                GYCAS_MMM_WriteVmCode
                0x000000008004d438                GYCAS_MMM_ReadStbSn
 .text          0x000000008004d774     0x1dbc /d/3202c/prj/app/demo/dvbc/jade_demo_new_geeya/mcf_data_broadcast_3202c//release/lib//libgycas.a(gycas_smc.o)
                0x000000008004eb04                GYCA_GetSMCEntitleInfo
                0x000000008004f3f4                GYCAS_IsAccService
                0x000000008004f34c                GYCA_SetParentControl
                0x000000008004e3ec                GYCAS_SendMessage2SCTM
                0x000000008004e9f8                GYCA_IPPVGetBurseInfo
                0x000000008004e5cc                GYCAS_GetSMCSn
                0x000000008004e9b4                GYCA_GetSMCTokenInfo
                0x000000008004f004                GYCA_SetSMCUserLevel
                0x000000008004dd88                GYCAS_ClearAllEmmMsg
                0x000000008004e63c                GYCA_GetPaired
                0x000000008004f1f4                GYCA_ChangePin
                0x000000008004ed24                GYCA_GetProductEntitles
                0x000000008004dfa8                GYCA_SC_ValidateATR
                0x000000008004f138                GYCA_GetOperatorInfo
                0x000000008004e0b4                GYCAS_SMCT_HandleSmcStateUpdate
                0x000000008004e6f0                GYCA_SetPaired
                0x000000008004eebc                GYCA_GetSMCUserType
                0x000000008004d988                GYCAS_SMTM_Initialize
                0x000000008004e604                GYCA_GetSMCID
                0x000000008004ef30                GYCA_GetSMCMotherSonType
                0x000000008004e4a0                GYCA_GetSMCIssueInfoEx
                0x000000008004ee64                GYCA_GetEntileExpiredMJDTime
                0x000000008004e430                GYCA_GetSMCIssueInfo
                0x000000008004dc08                GYCAS_SmcGetLastError
                0x000000008004f388                GYCA_GetParentControl
                0x000000008004efa4                GYCA_GetSMCUserLevel
                0x000000008004dba4                GYCAS_SmcOperation
                0x000000008004ebe8                GYCAS_ParseEntitles
                0x000000008004e09c                GYCA_IsMatchCAID
                0x000000008004dc44                GYCAS_SCTM_SendTSResponse
                0x000000008004d774                GYCAS_GetStbIdentifyEx
 .text          0x000000008004f530     0x277c /d/3202c/prj/app/demo/dvbc/jade_demo_new_geeya/mcf_data_broadcast_3202c//release/lib//libgycas.a(gycas_smc_drv.o)
                0x000000008005183c                GYCAS_SmcDrv_ReadCardAllFile
                0x0000000080051b8c                GYCAS_SmcDrv_GetRandomCUBF
                0x00000000800510d4                GYCAS_SmcDrv_WriteRecordFile
                0x000000008004f530                GYCAS_SmcDrv_Initialize
                0x0000000080051b24                GYCAS_SmcDrv_GYCAS_DesDecryptCUBF
                0x0000000080050a64                GYCAS_SmcDrv_UpdateKey
                0x0000000080050df8                GYCAS_SmcDrv_GYCAS_DesEncrypt
                0x0000000080051978                GYCAS_SmcDrv_EncodeCUBF
                0x0000000080051b58                GYCAS_SmcDrv_GYCAS_DesEncryptCUBF
                0x0000000080050c48                GYCAS_SmcDrv_GYCAS_DesDecrypt
 .text          0x0000000080051cac     0x87b0 /d/3202c/prj/app/demo/dvbc/jade_demo_new_geeya/mcf_data_broadcast_3202c//release/lib//libgycas.a(gycas_smc_hal.o)
                0x000000008005a310                GYCA_SubCardToken
                0x0000000080059dd4                GYCAS_SmcHal_SmcInitialize
                0x0000000080059e68                GYCAS_SmcHal_SmcOperation
                0x0000000080059e48                GYCAS_SmcHal_SmcInactivate
                0x000000008005a064                GYCAS_SmcHal_SmcIsMatchATR
                0x0000000080059df4                GYCAS_SmcHal_SmcActivate
 .text          0x000000008005a45c      0xa2c /d/3202c/prj/app/demo/dvbc/jade_demo_new_geeya/mcf_data_broadcast_3202c//release/lib//libgycas.a(gycas_utl.o)
                0x000000008005ac5c                GYCAS_DesDecrypt
                0x000000008005a4e0                GYCAS_CRC16Calculate
                0x000000008005aa38                GYCAS_DesEncrypt
                0x000000008005a45c                GYCAS_CRC32Calculate
                0x000000008005a54c                GYCAS_GYCAS_DesEncryptMwPadding
 .text          0x000000008005ae88     0x20d8 /d/3202c/prj/app/demo/dvbc/jade_demo_new_geeya/mcf_data_broadcast_3202c//release/lib//libgycas.a(gycas_vm.o)
                0x000000008005cdcc                GYCAS_AsmIsBreakPoint
                0x000000008005b630                GYCAS_AsmSaveZ
                0x000000008005b864                GYCAS_AsmParseCmd
                0x000000008005b758                GYCAS_AsmGetOffset
                0x000000008005b584                GYCAS_AsmLoadY
                0x000000008005b5cc                GYCAS_AsmLoadSP
                0x000000008005b650                GYCAS_AsmSaveSP
                0x000000008005b670                GYCAS_AsmSetByteBit
                0x000000008005b610                GYCAS_AsmSaveY
                0x000000008005ca20                GYCAS_VmReloadInstructions
                0x000000008005b560                GYCAS_AsmLoadX
                0x000000008005b5f0                GYCAS_AsmSaveX
                0x000000008005cb4c                GYCAS_AsmStep
                0x000000008005b798                gycas_cmpsingedbyte
                0x000000008005ae88                GYCAS_AsmClearMemory
                0x000000008005b134                GYCAS_AsmGetCmdArg
                0x000000008005af08                GYCAS_VmDesBlocks
                0x000000008005b0c8                GYCAS_AsmPush
                0x000000008005b740                GYCAS_AsmValidAddress
                0x000000008005b5a8                GYCAS_AsmLoadZ
                0x000000008005b104                GYCAS_AsmPop
                0x000000008005ca10                GYCAS_VmGetCodeMem
 .text          0x000000008005cf60      0x278 /d/3202c/prj/app/demo/dvbc/jade_demo_new_geeya/mcf_data_broadcast_3202c//release/lib//libgycas.a(gycas_crc.o)
                0x000000008005d1a0                GYCAS_CRCGet
                0x000000008005cf60                GYCAS_CRCInitialize
                0x000000008005d124                GYCAS_CRCReset
                0x000000008005d134                GYCAS_CRCNextByte
 .text          0x000000008005d1d8      0xa0c /d/3202c/prj/app/demo/dvbc/jade_demo_new_geeya/mcf_data_broadcast_3202c//release/lib//libgycas.a(gycas_des.o)
                0x000000008005d4dc                GYCAS_cpkey
                0x000000008005d518                GYCAS_usekey
                0x000000008005daec                GYCAS_des_dec
                0x000000008005d1d8                GYCAS_deskey
                0x000000008005d554                GYCAS_des
                0x000000008005db80                GYCAS_CRCKey
                0x000000008005d9ec                GYCAS_des_key
                0x000000008005da58                GYCAS_des_enc
 .text          0x000000008005dbe4     0x1810 /d/3202c/prj/app/demo/dvbc/jade_demo_new_geeya/mcf_data_broadcast_3202c//release/lib//libgycas.a(gycas_emm.o)
                0x000000008005e750                GYCAS_emm_OnCardInfoMsgSection
                0x000000008005ef84                GYCAS_emm_OnVmCodeMsgSection
                0x000000008005eeb8                GYCAS_EMM_Initialize
                0x000000008005e0c4                GYCAS_emm_OnGroupStbInfoMsg
                0x000000008005f348                GYCAS_PlainEMM
                0x000000008005e2fc                GYCAS_emm_OnCardBaseInfo
                0x000000008005dbe4                GYCAS_emm_OnCardEntitlementMsgSection
                0x000000008005ddb4                GYCAS_emm_OnGroupEntitlementMsg
 .text          0x000000008005f3f4      0xafc /d/3202c//sdk/libmlzo.a(slzo.o)
                0x000000008005f890                lzo1x_decompress_safe
                0x000000008005f3f4                lzo1x_decompress
                0x000000008005feb8                unlzo
 .text          0x000000008005fef0     0x2b38 /d/3202c/prj/app/demo/dvbc/jade_demo_new_geeya/mcf_data_broadcast_3202c//release/lib//liball.a(i2c_gpio.o)
                0x0000000080061ccc                i2c_gpio_write_no_stop
                0x0000000080062344                i2c_gpio_write
                0x000000008006255c                i2c_gpio_mbyte_write_read
                0x0000000080062950                i2c_gpio_write_plus_read
                0x0000000080062268                i2c_gpio_read
                0x00000000800626cc                i2c_gpio_write_write_read
                0x0000000080062808                i2c_gpio_write_read_std
                0x000000008005ff28                i2c_gpio_attach
                0x000000008005fef0                i2c_gpio_set
                0x0000000080062420                i2c_gpio_write_read
                0x0000000080061e3c                i2c_gpio_mode_set
 .text          0x0000000080062a28     0x1ed4 /d/3202c/prj/app/demo/dvbc/jade_demo_new_geeya/mcf_data_broadcast_3202c//release/lib//liball.a(i2c_scb.o)
                0x0000000080064384                i2c_scb_write_write_read
                0x0000000080064824                i2c_scb_write_plus_read
                0x0000000080062f0c                i2c_scb_read
                0x0000000080063718                i2c_isr
                0x0000000080063194                i2c_scb_write
                0x0000000080063a50                i2c_scb_write_read_multi
                0x0000000080064064                scb_get_data
                0x0000000080062a28                i2c_scb_attach
                0x0000000080063d4c                i2c_scb_write_read_std
                0x00000000800637e8                i2c_scb_write_multi
                0x0000000080062ba8                i2c_scb_mode_set
                0x0000000080064110                i2c_scb_eddc_read
                0x0000000080063400                i2c_scb_write_read
 .text          0x00000000800648fc      0xc88 /d/3202c/prj/app/demo/dvbc/jade_demo_new_geeya/mcf_data_broadcast_3202c//release/lib//liball.a(sci_16550uart.o)
                0x0000000080065544                sci_16550uart_clear_buff
                0x0000000080065348                sci_16550uart_loopback
                0x00000000800650d0                sci_16550uart_read
                0x0000000080064b20                sci_16550uart_set_mode
                0x0000000080065388                sci_16550uart_write
                0x00000000800651e0                sci_16550uart_read_tm
                0x000000008006553c                sci_16550uart_fifowrite
                0x00000000800648fc                sci_16550uart_attach
 .text          0x0000000080065584      0x3b4 /d/3202c/prj/app/demo/dvbc/jade_demo_new_geeya/mcf_data_broadcast_3202c//release/lib//liball.a(hld_dev.o)
                0x00000000800655ec                dev_get_by_type
                0x00000000800658d8                dev_free
                0x00000000800657a4                dev_alloc
                0x0000000080065630                dev_get_by_id
                0x00000000800658b8                dev_register
                0x0000000080065918                dev_list_all
                0x0000000080065584                dev_get_by_name
 .text          0x0000000080065938      0x6cc /d/3202c/prj/app/demo/dvbc/jade_demo_new_geeya/mcf_data_broadcast_3202c//release/lib//liball.a(deca.o)
                0x0000000080065a2c                deca_set_sync_mode
                0x0000000080065e14                deca_process_pcm_samples
                0x0000000080065ba8                deca_io_control
                0x0000000080065cac                deca_request_desc_write
                0x0000000080065fbc                deca_init_ase
                0x0000000080065938                deca_pcm_buf_resume
                0x00000000800659dc                deca_close
                0x0000000080065970                deca_open
                0x0000000080065ed4                deca_process_pcm_bitstream
                0x0000000080065ddc                deca_stop_tone_voice
                0x0000000080065c48                deca_request_write
                0x0000000080065a88                deca_start
                0x0000000080065d10                deca_update_write
                0x0000000080065d58                deca_update_desc_write
                0x0000000080065b58                deca_pause
                0x0000000080065af0                deca_stop
                0x0000000080065da0                deca_tone_voice
 .text          0x0000000080066004      0x4a0 /d/3202c/prj/app/demo/dvbc/jade_demo_new_geeya/mcf_data_broadcast_3202c//release/lib//liball.a(decv.o)
                0x000000008006645c                h264_decoder_select
                0x00000000800660c4                vdec_vbv_request
                0x00000000800663b4                vdec_dvr_pause
                0x000000008006633c                vdec_playmode
                0x000000008006613c                vdec_set_output
                0x0000000080066244                vdec_switch_pip
                0x00000000800662a4                vdec_sync_mode
                0x000000008006642c                vdec_step
                0x000000008006630c                vdec_io_control
                0x0000000080066064                vdec_start
                0x0000000080066464                get_selected_decoder
                0x0000000080066094                vdec_stop
                0x00000000800662dc                vdec_extrawin_store_last_pic
                0x0000000080066378                vdec_dvr_set_param
                0x0000000080066034                vdec_close
                0x000000008006610c                vdec_vbv_update
                0x0000000080066004                vdec_open
                0x000000008006648c                is_cur_decoder_avc
                0x00000000800663f0                vdec_dvr_resume
                0x0000000080066274                vdec_switch_pip_ext
                0x0000000080066498                set_avc_output_mode_check_cb
 .text          0x00000000800664a4      0x47c /d/3202c/prj/app/demo/dvbc/jade_demo_new_geeya/mcf_data_broadcast_3202c//release/lib//liball.a(dmx.o)
                0x0000000080066868                dmx_register_service_new
                0x0000000080066818                dmx_pause
                0x0000000080066704                dmx_async_req_section
                0x000000008006664c                dmx_io_control
                0x0000000080066760                dmx_start
                0x00000000800668c4                dmx_unregister_service_new
                0x00000000800665ac                dmx_open
                0x00000000800666a8                dmx_req_section
                0x00000000800664ec                dmx_register_service
                0x000000008006654c                dmx_unregister_service
                0x00000000800667bc                dmx_stop
                0x00000000800664a4                dmx_cfg_cw
                0x00000000800665fc                dmx_close
 .text          0x0000000080066920     0x36f0 /d/3202c/prj/app/demo/dvbc/jade_demo_new_geeya/mcf_data_broadcast_3202c//release/lib//liball.a(ge.o)
                0x000000008006853c                ge_set_src_mode
                0x0000000080068440                ge_cmd_list_stop
                0x0000000080068590                ge_set_msk_mode
                0x0000000080068398                ge_cmd_list_get_param
                0x00000000800692ac                ge_get_colorkey_range
                0x0000000080068fb8                ge_get_global_alpha_mode
                0x00000000800681f4                ge_cmd_list_get_next
                0x0000000080066c08                ge_blt_ex
                0x0000000080067bb8                ge_modify_pallette_deo
                0x0000000080067ffc                ge_cmd_list_get_base
                0x0000000080068c1c                ge_get_rop_mode
                0x0000000080066a34                ge_read_pixel
                0x0000000080068a24                ge_get_back_color
                0x00000000800694ac                ge_set_font_data_format
                0x0000000080069458                ge_set_rgb_expansion
                0x0000000080069a18                ge_gma_set_pallette
                0x0000000080068bc8                ge_set_bop_mode
                0x0000000080067cdc                ge_set_region_pos_deo
                0x0000000080069ae8                ge_gma_modify_pallette
                0x0000000080069d44                ge_gma_set_region_to_cmd_list
                0x0000000080069204                ge_get_colorkey_mode
                0x0000000080067228                ge_get_resize
                0x000000008006700c                ge_get_region_pos
                0x0000000080067940                ge_draw_line
                0x0000000080068acc                ge_get_draw_color
                0x00000000800688bc                ge_get_xy2
                0x0000000080067df0                ge_disable_clip_deo
                0x00000000800676d4                ge_set_planmask
                0x00000000800677f8                ge_set_region_pars
                0x00000000800696f8                ge_set_clip_mode
                0x0000000080068e14                ge_set_global_alpha_layer
                0x00000000800689d0                ge_set_draw_color
                0x0000000080067a48                ge_show_onoff_deo
                0x00000000800695fc                ge_set_clut_rgb_order
                0x0000000080068f10                ge_set_dst_alpha_out
                0x0000000080066ba4                ge_blt
                0x00000000800691b0                ge_set_colorkey_range
                0x0000000080067c88                ge_delete_region_deo
                0x0000000080068cc4                ge_set_global_alpha
                0x0000000080068e68                ge_set_bitmap_alpha_mode
                0x0000000080067fa8                ge_cmd_list_is_valid
                0x00000000800678d8                ge_draw_bitmap
                0x0000000080066a88                ge_draw_hor_line
                0x0000000080068d18                ge_set_global_alpha_mode
                0x0000000080069804                ge_set_bitmask
                0x00000000800673f4                ge_set_colorredc
                0x0000000080066920                ge_lock
                0x0000000080066d78                ge_region_show_onoff
                0x00000000800685e4                ge_get_primitive_mode
                0x0000000080067114                ge_set_rop
                0x0000000080067450                ge_get_colorredc
                0x0000000080067c30                ge_create_region_deo
                0x0000000080068798                ge_get_xy
                0x0000000080069354                ge_set_subbyte_endian
                0x0000000080069650                ge_set_clut_update
                0x00000000800695a8                ge_set_clut_addr
                0x0000000080068a78                ge_get_font_color
                0x0000000080067868                ge_get_region_pars
                0x0000000080068850                ge_set_xy2
                0x0000000080066fb0                ge_set_region_pos
                0x00000000800680a4                ge_cmd_list_end
                0x0000000080069bc8                ge_gma_delete_region
                0x0000000080067e40                ge_io_ctrl_deo
                0x0000000080069b68                ge_gma_create_region
                0x0000000080068494                ge_set_base_addr
                0x0000000080068248                ge_cmd_list_get_prev
                0x0000000080066aec                ge_draw_ver_line
                0x00000000800675c0                ge_get_rgb2yuv
                0x0000000080069908                ge_gma_show_onoff
                0x0000000080066e30                ge_get_pallette
                0x0000000080067f54                ge_cmd_list_destroy
                0x000000008006733c                ge_set_alpha
                0x0000000080067d94                ge_set_clip_deo
                0x0000000080067170                ge_get_rop
                0x00000000800669d8                ge_draw_pixel
                0x00000000800681a0                ge_cmd_list_get_last
                0x000000008006868c                ge_get_msk_mode
                0x00000000800693a8                ge_set_rgb_order
                0x00000000800680f8                ge_cmd_list_get_num
                0x00000000800697b0                ge_enable_bitmask
                0x00000000800679fc                ge_release_surface_deo
                0x000000008006829c                ge_cmd_begin
                0x0000000080067af8                ge_set_pallette_deo
                0x0000000080067678                ge_get_yuv2rgb
                0x0000000080069e6c                ge_gma_close
                0x0000000080068dc0                ge_set_global_alpha_sel
                0x0000000080066f08                ge_create_region
                0x0000000080068344                ge_cmd_list_set_param
                0x0000000080066b50                ge_fill_rect
                0x00000000800682f0                ge_cmd_end
                0x000000008006761c                ge_set_yuv2rgb
                0x000000008006697c                ge_unlock
                0x00000000800670c4                ge_disable_clip
                0x0000000080069e00                ge_gma_set_region_clip_rect
                0x00000000800696a4                ge_set_clut_color_cvt
                0x0000000080068638                ge_get_src_mode
                0x0000000080069da4                ge_gma_set_region_clip_mode
                0x0000000080068c70                ge_get_bop_mode
                0x0000000080069f18                ge_open
                0x0000000080068928                ge_set_back_color
                0x0000000080069060                ge_get_alpha_out_mode
                0x00000000800683ec                ge_cmd_list_start
                0x0000000080069554                ge_set_clut_mode
                0x0000000080069500                ge_set_font_stretch
                0x0000000080067508                ge_get_flickfilt
                0x0000000080067f00                ge_cmd_list_create
                0x00000000800686e0                ge_set_xy
                0x0000000080067ea0                ge_io_ctrl_ext
                0x0000000080067730                ge_get_planmask
                0x00000000800679a4                ge_create_surface_deo
                0x0000000080067398                ge_get_alpha
                0x00000000800690b4                ge_get_dst_alpha_out
                0x0000000080068b74                ge_set_rop_mode
                0x000000008006873c                ge_set_wh
                0x0000000080069300                ge_set_byte_endian
                0x0000000080067284                ge_set_colorkey
                0x0000000080069108                ge_set_colorkey_mode
                0x0000000080067b58                ge_get_pallette_deo
                0x0000000080067aa0                ge_region_show_onoff_deo
                0x00000000800698ac                ge_set_scan_order
                0x0000000080067068                ge_set_clip
                0x0000000080066f60                ge_delete_region
                0x0000000080067d38                ge_get_region_pos_deo
                0x0000000080069ce4                ge_gma_get_region_info
                0x0000000080069f98                ge_close
                0x00000000800671cc                ge_set_resize
                0x0000000080069c24                ge_gma_move_region
                0x0000000080069858                ge_enable_dither
                0x0000000080069eb8                ge_io_ctrl
                0x0000000080068ebc                ge_set_alpha_out_mode
                0x0000000080066c7c                ge_create_surface
                0x000000008006900c                ge_get_global_alpha_sel
                0x0000000080067564                ge_set_rgb2yuv
                0x000000008006778c                ge_set_cur_region
                0x00000000800672e0                ge_get_colorkey
                0x0000000080069c84                ge_gma_show_region
                0x0000000080068d6c                ge_set_alpha_blend_mode
                0x000000008006974c                ge_set_clip_rect
                0x00000000800674ac                ge_set_flickfilt
                0x000000008006814c                ge_cmd_list_get_first
                0x0000000080069964                ge_gma_scale
                0x0000000080066cd4                ge_release_surface
                0x00000000800693fc                ge_set_alpha_attr
                0x0000000080066d20                ge_show_onoff
                0x0000000080066dd0                ge_set_pallette
                0x000000008006897c                ge_set_font_color
                0x0000000080066e90                ge_modify_pallette
                0x0000000080068f64                ge_get_global_alpha
                0x000000008006915c                ge_set_colorkey_match_mode
                0x00000000800687f4                ge_get_wh
                0x0000000080068b20                ge_set_color_format
                0x0000000080069258                ge_get_colorkey_match_mode
                0x00000000800699c4                ge_set_scale_info
                0x0000000080069a80                ge_gma_get_pallette
                0x0000000080068050                ge_cmd_list_new
                0x00000000800684e8                ge_get_base_addr
 .text          0x000000008006a010      0x5ac /d/3202c/prj/app/demo/dvbc/jade_demo_new_geeya/mcf_data_broadcast_3202c//release/lib//liball.a(nim.o)
                0x000000008006a4d8                nim_get_sym
                0x000000008006a30c                nim_get_SNR
                0x000000008006a1c8                nim_get_lock
                0x000000008006a234                nim_get_freq
                0x000000008006a088                nim_close
                0x000000008006a440                nim_channel_search
                0x000000008006a010                nim_open
                0x000000008006a158                nim_io_control
                0x000000008006a524                nim_get_BER
                0x000000008006a48c                nim_get_AGC
                0x000000008006a378                nim_channel_change
                0x000000008006a100                nim_ioctl_ext
                0x000000008006a570                nim_get_fft_result
                0x000000008006a2a0                nim_get_FEC
                0x000000008006a3dc                nim_quick_channel_change
 .text          0x000000008006a5bc      0xa1c /d/3202c/prj/app/demo/dvbc/jade_demo_new_geeya/mcf_data_broadcast_3202c//release/lib//liball.a(osddrv.o)
                0x000000008006addc                OSDDrv_DrawHorLine
                0x000000008006af64                OSDDrv_GetRegionAddr
                0x000000008006ab28                OSDDrv_RegionWrite
                0x000000008006ab8c                OSDDrv_RegionRead
                0x000000008006ac54                OSDDrv_RegionWriteInverse
                0x000000008006ae50                OSDDrv_Scale
                0x000000008006a784                OSDDrv_ShowOnOff
                0x000000008006acac                OSDDrv_RegionReadInverse
                0x000000008006a644                OSDDrv_Close
                0x000000008006aeb0                OSDDrv_SetClip
                0x000000008006a724                OSDDrv_GetPara
                0x000000008006a5bc                OSDDrv_Open
                0x000000008006af10                OSDDrv_ClearClip
                0x000000008006aa60                OSDDrv_GetRegionPos
                0x000000008006a998                OSDDrv_DeleteRegion
                0x000000008006a7e8                OSDDrv_SetPallette
                0x000000008006a934                OSDDrv_CreateRegion
                0x000000008006aac4                OSDDrv_RegionShow
                0x000000008006a9fc                OSDDrv_SetRegionPos
                0x000000008006a850                OSDDrv_GetPallette
                0x000000008006ad04                OSDDrv_RegionFillInverse
                0x000000008006a6c4                OSDDrv_IoCtl
                0x000000008006a8b8                OSDDrv_ModifyPallette
                0x000000008006abf0                OSDDrv_RegionFill
                0x000000008006ad5c                OSDDrv_RegionWrite2
 .text          0x000000008006afd8      0x3d8 /d/3202c/prj/app/demo/dvbc/jade_demo_new_geeya/mcf_data_broadcast_3202c//release/lib//liball.a(pan.o)
                0x000000008006b0d0                pan_get_key
                0x000000008006b358                pan_io_control
                0x000000008006b250                pan_buff_clear
                0x000000008006b2f0                pan_buff_set_repeat
                0x000000008006b1e0                pan_receive_data
                0x000000008006b280                pan_buff_queue_tail
                0x000000008006b060                pan_close
                0x000000008006b2fc                pan_buff_get_repeat
                0x000000008006b170                pan_send_data
                0x000000008006afd8                pan_open
                0x000000008006b308                pan_display
 .text          0x000000008006b3b0      0xbc8 /d/3202c/prj/app/demo/dvbc/jade_demo_new_geeya/mcf_data_broadcast_3202c//release/lib//liball.a(snd.o)
                0x000000008006bc28                snd_gen_tone_voice
                0x000000008006b4f0                set_stc_divisor
                0x000000008006bf20                snd_write_desc_pcm_data
                0x000000008006bc64                snd_stop_tone_voice
                0x000000008006bb88                snd_start
                0x000000008006be4c                snd_enable_bass
                0x000000008006bb24                snd_config
                0x000000008006bc9c                snd_ena_pp_8ch
                0x000000008006b638                snd_open
                0x000000008006b4a8                get_stc_divisor
                0x000000008006b450                set_stc
                0x000000008006bd08                snd_set_pp_delay
                0x000000008006b3b0                get_stc
                0x000000008006b844                snd_request_pcm_buff
                0x000000008006b590                stc_invalid
                0x000000008006b95c                snd_io_control
                0x000000008006bd74                snd_enable_virtual_surround
                0x000000008006b7f4                snd_data_enough
                0x000000008006b6d8                snd_set_mute
                0x000000008006bbd0                snd_stop
                0x000000008006b538                stc_pause
                0x000000008006bac8                snd_set_spdif_type
                0x000000008006b688                snd_close
                0x000000008006b600                snd_output_config
                0x000000008006b5c8                stc_valid
                0x000000008006b744                snd_set_volume
                0x000000008006b8ac                snd_write_pcm_data
                0x000000008006b9f0                snd_set_sub_blk
                0x000000008006ba60                snd_set_duplicate
                0x000000008006beb8                snd_request_desc_pcm_buff
                0x000000008006bde0                snd_enable_eq
                0x000000008006b904                snd_write_pcm_data2
                0x000000008006b7b0                snd_get_volume
 .text          0x000000008006bf78      0x314 /d/3202c/prj/app/demo/dvbc/jade_demo_new_geeya/mcf_data_broadcast_3202c//release/lib//liball.a(sto.o)
                0x000000008006c068                sto_close
                0x000000008006c15c                sto_read
                0x000000008006c1f4                sto_put_data
                0x000000008006c240                sto_get_data
                0x000000008006c1a8                sto_io_control
                0x000000008006c110                sto_write
                0x000000008006bfd4                sto_mutex_exit
                0x000000008006bff8                sto_open
                0x000000008006c0c4                sto_lseek
                0x000000008006bf78                sto_mutex_enter
 .text          0x000000008006c28c      0x35c /d/3202c/prj/app/demo/dvbc/jade_demo_new_geeya/mcf_data_broadcast_3202c//release/lib//liball.a(vpo.o)
                0x000000008006c508                tvenc_register_dac
                0x000000008006c330                vpo_zoom
                0x000000008006c584                tvenc_write_cc
                0x000000008006c3fc                vpo_config_source_window
                0x000000008006c2b4                vpo_close
                0x000000008006c48c                tvenc_close
                0x000000008006c2dc                vpo_win_onoff
                0x000000008006c304                vpo_win_mode
                0x000000008006c5b4                tvenc_write_ttx
                0x000000008006c4b4                tvenc_set_tvsys
                0x000000008006c358                vpo_aspect_mode
                0x000000008006c3d4                vpo_ioctl
                0x000000008006c430                vpo_set_progres_interl
                0x000000008006c3ac                vpo_tvsys_ex
                0x000000008006c558                tvenc_write_wss
                0x000000008006c380                vpo_tvsys
                0x000000008006c464                tvenc_open
                0x000000008006c28c                vpo_open
                0x000000008006c530                tvenc_unregister_dac
                0x000000008006c4e0                tvenc_set_tvsys_ex
 .text          0x000000008006c5e8      0x5fc /d/3202c/prj/app/demo/dvbc/jade_demo_new_geeya/mcf_data_broadcast_3202c//release/lib//liball.a(lib_ash.o)
                0x000000008006caa0                lib_ash_process_old
                0x000000008006c7bc                lib_ash_process_new
                0x000000008006cb5c                lib_ash_shell
 .text          0x000000008006cbe4     0x1f40 /d/3202c/prj/app/demo/dvbc/jade_demo_new_geeya/mcf_data_broadcast_3202c//release/lib//liball.a(lib_ashcmd.o)
                0x000000008006cc44                boot_uart_get_id
                0x000000008006cc50                upgrade_buf_addr_set
                0x000000008006cbe4                cmd_reg_callback
                0x000000008006cc38                boot_uart_set_id
 .text          0x000000008006eb24      0x98c /d/3202c/prj/app/demo/dvbc/jade_demo_new_geeya/mcf_data_broadcast_3202c//release/lib//liball.a(Packet.o)
                0x000000008006ee30                packet_send
                0x000000008006ecc8                MakePacketHeadBuffer
                0x000000008006f394                IsBlankPacket
                0x000000008006f308                SendStatusPacket
                0x000000008006eb90                com_read
                0x000000008006ef20                packet_receive
                0x000000008006edb0                MakePacketHead
                0x000000008006ec20                com_read_tm
                0x000000008006eb24                com_send
                0x000000008006f3e0                SendDataPacket
 .text          0x000000008006f4b0      0x4c8 /d/3202c/prj/app/demo/dvbc/jade_demo_new_geeya/mcf_data_broadcast_3202c//release/lib//liball.a(gif.o)
                0x000000008006f8a0                gif_io_ctrl
                0x000000008006f854                gif_stop
                0x000000008006f804                gif_dec
                0x000000008006f78c                gif_close
                0x000000008006f6b8                gif_open
                0x000000008006f4b0                gif_init
 .text          0x000000008006f978      0xaac /d/3202c/prj/app/demo/dvbc/jade_demo_new_geeya/mcf_data_broadcast_3202c//release/lib//liball.a(gif_main.o)
                0x000000008006f978                gif_main_init
                0x000000008006fca4                gif_main_start
                0x000000008006fee4                gif_main_stop
                0x000000008006ffa0                gif_check_first_frame
                0x000000008006fed8                gif_main_pause
                0x000000008006fc2c                gif_main_free
 .text          0x0000000080070424     0x1ba0 /d/3202c/prj/app/demo/dvbc/jade_demo_new_geeya/mcf_data_broadcast_3202c//release/lib//liball.a(gif_out_ge.o)
                0x0000000080071f98                gif_out_init_ge
 .text          0x0000000080071fc4      0x280 /d/3202c/prj/app/demo/dvbc/jade_demo_new_geeya/mcf_data_broadcast_3202c//release/lib//liball.a(gif_sync.o)
                0x00000000800720ac                gif_sync_free
                0x00000000800721bc                gif_sync_set
                0x00000000800720d8                gif_sync_wait
                0x0000000080071fc4                gif_sync_alloc
 .text          0x0000000080072244     0x1e5c /d/3202c/prj/app/demo/dvbc/jade_demo_new_geeya/mcf_data_broadcast_3202c//release/lib//liball.a(imagedec.o)
                0x0000000080073d54                imagedec_rotate
                0x0000000080073dd0                imagedec_ioctl
                0x000000008007279c                imagedec_release
                0x00000000800724b0                imagedec_mp_release
                0x0000000080073844                imagedec_zoom
                0x00000000800724c4                imagedec_mp_release_ext
                0x0000000080072844                imagedec_getinfo
                0x00000000800729a8                imagedec_decode
                0x0000000080072244                imagedec_mp_request
                0x0000000080073328                imagedec_stop
                0x00000000800724bc                imagedec_mp_request_ext
                0x000000008007361c                imagedec_dis_next_pic
                0x0000000080073418                imagedec_set_mode
                0x00000000800724cc                imagedec_init
 .text          0x00000000800740a0     0x4c28 /d/3202c/prj/app/demo/dvbc/jade_demo_new_geeya/mcf_data_broadcast_3202c//release/lib//liball.a(imagedec_bmp_decoder.o)
                0x0000000080078ba8                imagedec_bmp_decode_row
                0x00000000800783c8                imagedec_bmp_init
 .text          0x0000000080078cc8     0x52cc /d/3202c/prj/app/demo/dvbc/jade_demo_new_geeya/mcf_data_broadcast_3202c//release/lib//liball.a(imagedec_covs.o)
                0x000000008007a568                jhcovs_m3329e_init
                0x0000000080078d64                jhcovs_m3329e_init_full
                0x000000008007962c                jhcovs_m3329e_init_full_90
                0x000000008007a6b4                jhconvs_buffer_init
                0x0000000080078cc8                jh_mem_cpy
                0x000000008007a778                jhcovs_m3329e_op
                0x0000000080079e8c                jhcovs_m3329e_init_thum
                0x0000000080078d18                jh_mem_set
 .text          0x000000008007df94     0x98ac /d/3202c/prj/app/demo/dvbc/jade_demo_new_geeya/mcf_data_broadcast_3202c//release/lib//liball.a(imagedec_main.o)
                0x0000000080086f84                imagedec_jpeg_init
                0x000000008007e17c                get_bits_1_lit_end
                0x000000008007e608                prep_in_buffer
                0x0000000080086f6c                IsProgressive
                0x0000000080086e84                imagedec_malloc
                0x000000008007dfc0                get_bits_1
                0x0000000080086f78                IsPro2_big
                0x0000000080087030                imagedec_jpeg_decode
                0x0000000080086f3c                max_ycbcr_comp
                0x0000000080087564                IsTerminated
                0x000000008007e4c4                imagedec_m33_fill_vld_buff
                0x00000000800874ac                jpeg_quick_parsing_sof
                0x0000000080086f14                set_comp
                0x0000000080086fa8                imagedec_jpeg_begin
                0x0000000080087570                clamp
 .text          0x0000000080087840      0x54c /d/3202c/prj/app/demo/dvbc/jade_demo_new_geeya/mcf_data_broadcast_3202c//release/lib//liball.a(imagedec_osd.o)
                0x0000000080087d20                imagedec_osd_init
 .text          0x0000000080087d8c     0x1b04 /d/3202c/prj/app/demo/dvbc/jade_demo_new_geeya/mcf_data_broadcast_3202c//release/lib//liball.a(imagedec_show.o)
                0x0000000080089848                img_show_opn
 .text          0x0000000080089890     0x1540 /d/3202c/prj/app/demo/dvbc/jade_demo_new_geeya/mcf_data_broadcast_3202c//release/lib//liball.a(imagedec_sub.o)
                0x000000008008a104                imagedec_sub_file_pos_init
                0x000000008008a600                imagedec_sub_clear_dis_buf
                0x000000008008a13c                imagedec_sub_judge_file_format
                0x0000000080089bbc                imagedec_sub_buffer_init
                0x000000008008a69c                imagedec_sub_get_frm_buf
                0x000000008008a2b4                imagedec_sub_set_pic_size
                0x000000008008a1f8                imagedec_get_file_info
                0x0000000080089e10                imagedec_sub_response_to_api
                0x000000008008a498                imagedec_sub_status_init
 .text          0x000000008008add0     0x8974 /d/3202c/prj/app/demo/dvbc/jade_demo_new_geeya/mcf_data_broadcast_3202c//release/lib//liball.a(imagedec_trans.o)
                0x0000000080091a3c                PrepareForNextRow
                0x0000000080093630                combine_sw_scale_row
                0x000000008009372c                Rotate270
                0x0000000080091fb0                Init_Scaling_factors
                0x000000008009373c                Rotate180
                0x0000000080091928                IDCT_Scaling_Cb
                0x0000000080093734                Rotate90
                0x0000000080091814                IDCT_Scaling_Cr
 .text          0x0000000080093744      0xfc4 /d/3202c/prj/app/demo/dvbc/jade_demo_new_geeya/mcf_data_broadcast_3202c//release/lib//liball.a(imagedec_trans_dup.o)
                0x0000000080093db0                imagedec_idct_dup_next_row
                0x0000000080093e80                IDCT_Duplication
                0x0000000080093b10                imagedec_idct_dup_init
                0x0000000080093d84                imagedec_idct_dup_next_mcu
                0x0000000080094680                imagedec_copy_frm_buf
 .text          0x0000000080094708      0x200 /d/3202c/prj/app/demo/dvbc/jade_demo_new_geeya/mcf_data_broadcast_3202c//release/lib//liball.a(png.o)
                0x0000000080094708                png_dec
                0x000000008009475c                png_poll
                0x00000000800948c8                png_close
                0x00000000800947b0                png_control
                0x00000000800947f0                png_open
                0x0000000080094780                png_view
                0x000000008009473c                png_stop
 .text          0x0000000080094908      0x568 /d/3202c/prj/app/demo/dvbc/jade_demo_new_geeya/mcf_data_broadcast_3202c//release/lib//liball.a(png_core.o)
                0x0000000080094ab8                png_core_status
                0x0000000080094908                png_core_error
                0x0000000080094a20                PNG_MEMCPY
                0x0000000080094d04                png_core_finish
                0x0000000080094d54                png_core_init
                0x0000000080094914                png_core_set_error
                0x0000000080094b78                png_core_start
                0x0000000080094e34                png_core_free
                0x00000000800949cc                PNG_MALLOC
                0x0000000080094ccc                png_core_show_img
 .text          0x0000000080094e70      0x244 /d/3202c/prj/app/demo/dvbc/jade_demo_new_geeya/mcf_data_broadcast_3202c//release/lib//liball.a(png_in.o)
                0x0000000080094ffc                png_in_write_byte
                0x000000008009502c                png_in_init
                0x0000000080094f44                png_in_next_byte
                0x0000000080094f9c                png_in_read_byte
                0x0000000080094f34                png_in_file_end
 .text          0x00000000800950b4     0x12e8 /d/3202c/prj/app/demo/dvbc/jade_demo_new_geeya/mcf_data_broadcast_3202c//release/lib//liball.a(png_inflate.o)
                0x00000000800950c8                png_inflate_dec
                0x00000000800950b4                png_inflate_pass_done
 .text          0x000000008009639c      0xa90 /d/3202c/prj/app/demo/dvbc/jade_demo_new_geeya/mcf_data_broadcast_3202c//release/lib//liball.a(png_info.o)
                0x0000000080096d80                png_info_file_identification
                0x0000000080096a28                png_info_parse_chunk
 .text          0x0000000080096e2c      0xbe4 /d/3202c/prj/app/demo/dvbc/jade_demo_new_geeya/mcf_data_broadcast_3202c//release/lib//liball.a(png_out.o)
                0x00000000800976ec                png_out_line
                0x0000000080097758                png_out_init
 .text          0x0000000080097a10     0x1e18 /d/3202c/prj/app/demo/dvbc/jade_demo_new_geeya/mcf_data_broadcast_3202c//release/lib//liball.a(lib_cc.o)
                0x0000000080099400                chchg_pause_video
                0x00000000800994cc                chchg_resume_video
                0x0000000080098d98                cc_stop_channel
                0x0000000080098994                cc_play_channel
                0x0000000080099194                chchg_init
                0x0000000080099748                chchg_show_logo
                0x000000008009966c                chchg_switch_audio_chan
                0x0000000080099208                chchg_play_channel
                0x000000008009981c                cc_get_cmd_cnt
                0x0000000080097a98                enable_fill_blk_screen
                0x0000000080099598                chchg_switch_audio_pid
                0x0000000080098cec                cc_pre_stop_channel
                0x0000000080099328                chchg_stop_channel
 .text          0x0000000080099828      0x8c0 /d/3202c/prj/app/demo/dvbc/jade_demo_new_geeya/mcf_data_broadcast_3202c//release/lib//liball.a(lib_device_manage.o)
                0x0000000080099b64                dev_set_nim_config
                0x0000000080099954                dev_select_nim
                0x0000000080099828                dev_select_nim_ext
                0x0000000080099a74                dev_get_nim_config
                0x0000000080099d5c                dev_get_device_status
                0x0000000080099f0c                dev_register_device
                0x0000000080099e54                dev_get_device_cnt
                0x0000000080099c54                dev_get_dmx_config
 .text          0x000000008009a0e8     0x10fc /d/3202c/prj/app/demo/dvbc/jade_demo_new_geeya/mcf_data_broadcast_3202c//release/lib//liball.a(lib_frontend.o)
                0x000000008009ab68                ts_route_update
                0x000000008009afd4                is_ca_info_in_ts_route
                0x000000008009ade0                ts_route_get_by_prog_id
                0x000000008009a0f4                ts_route_is_av_scrambled
                0x000000008009aa74                ts_route_get_record
                0x000000008009a408                frontend_set_ts_route
                0x000000008009acf0                ts_route_check_tp_route
                0x000000008009a824                ts_route_delete
                0x000000008009a8a8                ts_route_get_num
                0x000000008009b1b4                ts_route_get_nim_tsiid
                0x000000008009a444                frontend_check_nim_param
                0x000000008009a998                ts_route_get_by_type
                0x000000008009abf4                ts_route_check_ci_route
                0x000000008009a310                frontend_set_nim
                0x000000008009b1cc                ts_route_set_nim_tsiid
                0x000000008009ac00                ts_route_check_TS_by_dmx
                0x000000008009a534                _ts_route_get_dev_state
                0x000000008009af1c                ts_route_set_ci_info
                0x000000008009a764                ts_route_create
                0x000000008009a0e8                UIChChgSet12VSetCB
                0x000000008009abe8                ts_route_check_ci
                0x000000008009ac74                ts_route_check_dmx_route
                0x000000008009b03c                ts_route_get_by_sim_id
                0x000000008009a3e4                frontend_tuning
                0x000000008009a900                ts_route_get_by_id
                0x000000008009a650                _ts_route_get_dmx_config
                0x000000008009ad68                ts_route_check_nim_route
 .text          0x000000008009b1e4      0xccc /d/3202c/prj/app/demo/dvbc/jade_demo_new_geeya/mcf_data_broadcast_3202c//release/lib//liball.a(lib_hde.o)
                0x000000008009bc1c                hde_config_preview_window
                0x000000008009bca0                hde_config_preview_method
                0x000000008009b748                hde_set_mode
                0x000000008009bcac                hde_set_mode_HD_dec_restart
                0x000000008009b1e4                hde_back_color
                0x000000008009bc94                hde_get_mode
                0x000000008009b22c                hde_set_mode_smoothly_switch
 .text          0x000000008009beb0      0x3c0 /d/3202c/prj/app/demo/dvbc/jade_demo_new_geeya/mcf_data_broadcast_3202c//release/lib//liball.a(lib_monitor.o)
                0x000000008009c024                MonitorInit
                0x000000008009c084                MonitorRst
                0x000000008009bfc8                monitor_switch_dev_monitor
                0x000000008009c15c                MonitorProc
                0x000000008009c0d4                MonitorSwitch
 .text          0x000000008009c270      0x570 /d/3202c/prj/app/demo/dvbc/jade_demo_new_geeya/mcf_data_broadcast_3202c//release/lib//liball.a(lib_pub.o)
                0x000000008009c668                libpub_send_cmd
                0x000000008009c6d8                libpub_declare_cmd_finish
                0x000000008009c69c                libpub_wait_cmd_finish
                0x000000008009c560                libpub_cmd_handler_register
                0x000000008009c62c                libpub_clear_message_queue
                0x000000008009c700                libpub_init
                0x000000008009c5d0                libpub_overlay_cmd_register
 .text          0x000000008009c7e0     0x1418 /d/3202c/prj/app/demo/dvbc/jade_demo_new_geeya/mcf_data_broadcast_3202c//release/lib//liball.a(lib_as.o)
                0x000000008009dadc                as_prog_pid_search
                0x000000008009da0c                as_service_stop
                0x000000008009d910                as_service_start
                0x000000008009dabc                as_service_query_stat
                0x000000008009d8e0                as_service_register
 .text          0x000000008009dbf8      0xfa0 /d/3202c/prj/app/demo/dvbc/jade_demo_new_geeya/mcf_data_broadcast_3202c//release/lib//liball.a(cas_gy.o)
                0x000000008009e310                gyca_setmail_one_oldstatus_ram
                0x000000008009e128                gyca_delmail_one_from_ram
                0x000000008009e2b8                gyca_delmail_all_from_ram
                0x000000008009e95c                mjd_to_tm
                0x000000008009df50                gyca_getmail_condition_from_ram
                0x000000008009e508                gyca_readmail_one_from_ram
                0x000000008009eaf4                gyca_mail_test
                0x000000008009e3e0                gyca_check_new_mail
                0x000000008009e8ec                gyca_check_writemail_to_flash
                0x000000008009e4fc                gyca_getmail_status
                0x000000008009e040                gyca_addmail_one_to_ram
                0x000000008009e4f0                gyca_setmail_status
                0x000000008009ddfc                gyca_mail_init
 .text          0x000000008009eb98     0x1754 /d/3202c/prj/app/demo/dvbc/jade_demo_new_geeya/mcf_data_broadcast_3202c//release/lib//liball.a(gy_catask.o)
                0x00000000800a0034                gycas_show_msg_cb
                0x000000008009fca0                gycas_get_noticemsg_info
                0x000000008009ebb8                cas_free_filter
                0x000000008009fe1c                gycas_save_ippvmsg_info
                0x000000008009ecd8                cas_parse_pmt
                0x000000008009fcc0                gycas_get_fingermsg_info
                0x000000008009fcd0                gycas_get_ippvmsg_info
                0x000000008009ec90                cas_send_msg
                0x000000008009f11c                cas_cat_sec_cb
                0x000000008009eba8                gycas_get_priv
                0x000000008009fcb0                gycas_get_osdmsg_info
                0x000000008009f274                cas_cat_stop
                0x000000008009fdc4                gycas_save_fingermsg_info
                0x000000008009f7f0                cas_monitor_init
                0x000000008009fb2c                api_mcas_start_service
                0x000000008009f318                gyca_area_control
                0x000000008009eccc                gyca_curchl_is_scramble
                0x000000008009ef84                cas_pmt_callback
                0x000000008009fb64                api_mcas_stop_service
                0x000000008009fd6c                gycas_save_osdmsg_info
                0x000000008009fc94                api_mcas_switch_audiopid
                0x000000008009fce0                gycas_save_noticmsg_info
                0x000000008009f164                cas_cat_start
                0x000000008009f00c                cas_parse_cat
                0x000000008009fc20                api_mcas_stop_transponder
                0x000000008009f2b4                gy_get_sc_status
                0x000000008009fbe8                api_mcas_start_transponder
                0x000000008009eb98                gy_get_forcechgchl_info
 .text          0x00000000800a02ec      0xdb8 /d/3202c/prj/app/demo/dvbc/jade_demo_new_geeya/mcf_data_broadcast_3202c//release/lib//liball.a(gyca_dmx.o)
                0x00000000800a08b8                cas_demux_request
                0x00000000800a1058                dvt_cas_stop_dmx
                0x00000000800a05e0                cas_dmx_timeout_check
                0x00000000800a0c8c                gyca_tablestart
                0x00000000800a0dc4                GYCA_TableStart
                0x00000000800a02ec                calCRC32
                0x00000000800a07dc                cas_demux_set_mv
                0x00000000800a0498                cas_demux_free_channel
                0x00000000800a056c                cas_demux_free
                0x00000000800a1014                GYCA_SetCW
                0x00000000800a0388                cas_demux_init
                0x00000000800a0e0c                gyca_setcw
 .text          0x00000000800a10a4      0x424 /d/3202c/prj/app/demo/dvbc/jade_demo_new_geeya/mcf_data_broadcast_3202c//release/lib//liball.a(gyca_nvm.o)
                0x00000000800a10a4                GYCA_GetBuffer
                0x00000000800a1304                cas_flash_status_check
                0x00000000800a11e0                GYCA_ReadBuffer
                0x00000000800a1270                GYCA_WriteBuffer
 .text          0x00000000800a14c8      0x638 /d/3202c/prj/app/demo/dvbc/jade_demo_new_geeya/mcf_data_broadcast_3202c//release/lib//liball.a(gyca_os.o)
                0x00000000800a1760                GYCA_OSPMalloc
                0x00000000800a14c8                GYCA_GetRandomNumber
                0x00000000800a181c                GYCA_OSPFree
                0x00000000800a18dc                GYCA_OSPQueueCreate
                0x00000000800a19c4                GYCA_OSPQueueGetMessage
                0x00000000800a1674                GYCA_OSPSemaphoreCreate
                0x00000000800a1a28                GYCA_OSPQueueSendMessage
                0x00000000800a14e8                GYCA_DBG_Print
                0x00000000800a1650                GYCA_OSPTaskTemporarySleep
                0x00000000800a1734                GYCA_OSPSemaphoreReturnToken
                0x00000000800a153c                GYCA_OSPTaskCreate
                0x00000000800a1a5c                GYCA_GetStbSn
                0x00000000800a1adc                GYCA_HideIppvDlg
                0x00000000800a16d4                GYCA_OSPSemaphoreGetToken
 .text          0x00000000800a1b00      0x39c /d/3202c/prj/app/demo/dvbc/jade_demo_new_geeya/mcf_data_broadcast_3202c//release/lib//liball.a(gyca_sc.o)
                0x00000000800a1b40                GYCA_SC_DRV_ResetCard
                0x00000000800a1b00                GYCA_SC_DRV_Initialize
                0x00000000800a1b0c                GYCA_SCStatus_RegisterEN2Notify
                0x00000000800a1c34                GYCA_SC_DRV_SendDataEx
 .text          0x00000000800a1e9c     0x137c /d/3202c/prj/app/demo/dvbc/jade_demo_new_geeya/mcf_data_broadcast_3202c//release/lib//liball.a(alloc.o)
                0x00000000800a1f00                see_heaptop_init
                0x00000000800a21e0                malloc
                0x00000000800a31b8                calloc
                0x00000000800a2e80                realloc
                0x00000000800a2da0                free
 .text          0x00000000800a3218      0x1e4 /d/3202c/prj/app/demo/dvbc/jade_demo_new_geeya/mcf_data_broadcast_3202c//release/lib//liball.a(fastCRC.o)
                0x00000000800a3218                MG_Compute_CRC
                0x00000000800a33bc                MG_FCS_Decoder
                0x00000000800a3358                MG_FCS_Coder
                0x00000000800a3294                MG_Setup_CRC_Table
                0x00000000800a3304                MG_Table_Driven_CRC
 .text          0x00000000800a33fc     0x20a4 /d/3202c/prj/app/demo/dvbc/jade_demo_new_geeya/mcf_data_broadcast_3202c//release/lib//liball.a(printf.o)
                0x00000000800a3408                set_dsh_task_id
                0x00000000800a4348                __v_printf
                0x00000000800a5410                printf
                0x00000000800a5470                vsprintf
                0x00000000800a5444                snprintf
                0x00000000800a3694                __dtostr
                0x00000000800a5228                vsnprintf
                0x00000000800a5410                libc_printf
                0x00000000800a33fc                libc_printf_uart_id_set
                0x00000000800a53c8                vprintf
                0x00000000800a3414                set_switch_display_mode
                0x00000000800a3420                outbyte
                0x00000000800a348c                ComMemFindChar
                0x00000000800a5304                sprintf
 .text          0x00000000800a54a0     0x111c /d/3202c/prj/app/demo/dvbc/jade_demo_new_geeya/mcf_data_broadcast_3202c//release/lib//liball.a(string.o)
                0x00000000800a5abc                strcpy
                0x00000000800a5e90                libc_strlen
                0x00000000800a64f0                strtok_r
                0x00000000800a59cc                memmove
                0x00000000800a5600                memcpy
                0x00000000800a5df0                libc_memset
                0x00000000800a55a4                MemSet4
                0x00000000800a5cac                ali_atoi16
                0x00000000800a5e70                libc_strcmp
                0x00000000800a5f10                strtod
                0x00000000800a5e10                libc_memcmp
                0x00000000800a633c                atof
                0x00000000800a54a0                rand_r
                0x00000000800a5960                ali_memcmp
                0x00000000800a5abc                ali_strcpy
                0x00000000800a5dd0                libc_memcpy
                0x00000000800a5e50                libc_strcpy
                0x00000000800a6598                strtok
                0x00000000800a5960                memcmp
                0x00000000800a5600                ali_memcpy
                0x00000000800a5d64                com_atoi
                0x00000000800a5eb0                libc_itoa
                0x00000000800a5864                memset
                0x00000000800a5b04                ali_strcmp
                0x00000000800a5b04                strcmp
                0x00000000800a5ef0                libc_atoi16
                0x00000000800a5b70                ali_itoa
                0x00000000800a641c                strcspn
                0x00000000800a5bf4                ali_atoi
                0x00000000800a5db0                libc_rand
                0x00000000800a59cc                ali_memmove
                0x00000000800a55c8                MemCopy4
                0x00000000800a5e30                libc_memmove
                0x00000000800a555c                ali_rand
                0x00000000800a5bf4                atoi
                0x00000000800a5864                ali_memset
                0x00000000800a5ed0                libc_atoi
                0x00000000800a6360                strspn
                0x00000000800a5b40                strlen
                0x00000000800a5b40                ali_strlen
 .text          0x00000000800a65bc      0x1f8 /d/3202c/prj/app/demo/dvbc/jade_demo_new_geeya/mcf_data_broadcast_3202c//release/lib//liball.a(gb_2312.o)
                0x00000000800a65bc                convert_gb2312_to_unicode
 .text          0x00000000800a67b4     0x1778 /d/3202c/prj/app/demo/dvbc/jade_demo_new_geeya/mcf_data_broadcast_3202c//release/lib//liball.a(lib_char.o)
                0x00000000800a7e5c                compare_iso639_lang
                0x00000000800a7308                dvb_to_unicode
                0x00000000800a67b4                get_iso639_refcode
 .text          0x00000000800a7f2c       0xfc /d/3202c/prj/app/demo/dvbc/jade_demo_new_geeya/mcf_data_broadcast_3202c//release/lib//liball.a(un7zip.o)
                0x00000000800a7f2c                un7zip
 .text          0x00000000800a8028      0xc58 /d/3202c/prj/app/demo/dvbc/jade_demo_new_geeya/mcf_data_broadcast_3202c//release/lib//liball.a(eit_parser.o)
                0x00000000800a8b6c                eit_sec_parser
                0x00000000800a80f8                lang2tolang3
 .text          0x00000000800a8c80      0xc58 /d/3202c/prj/app/demo/dvbc/jade_demo_new_geeya/mcf_data_broadcast_3202c//release/lib//liball.a(epg_api.o)
                0x00000000800a9830                epg_get_service_event
                0x00000000800a8c80                eit_compare_time
                0x00000000800a8dcc                get_event_end_time
                0x00000000800a95fc                epg_get_schedule_event
                0x00000000800a8d14                get_event_start_time
                0x00000000800a9870                epg_create_view_by_user
                0x00000000800a977c                epg_get_service_event_ext
 .text          0x00000000800a98d8     0x1400 /d/3202c/prj/app/demo/dvbc/jade_demo_new_geeya/mcf_data_broadcast_3202c//release/lib//liball.a(epg_db.o)
                0x00000000800a99fc                reset_epg_db
                0x00000000800aaaf0                get_event_by_pos
                0x00000000800a9940                init_epg_db
                0x00000000800aa3a0                del_events
                0x00000000800a9d0c                _node_op
                0x00000000800aaaac                reset_epg_view
                0x00000000800a9a88                release_epg_db
                0x00000000800aaa24                create_view
                0x00000000800aa234                add_event
                0x00000000800a9ad8                get_epg_db_status
 .text          0x00000000800aacd8     0x17e8 /d/3202c/prj/app/demo/dvbc/jade_demo_new_geeya/mcf_data_broadcast_3202c//release/lib//liball.a(lib_epg.o)
                0x00000000800ac310                epg_release
                0x00000000800ac094                epg_off
                0x00000000800aad68                epg_reset
                0x00000000800ac124                epg_init
                0x00000000800ac0dc                epg_off_ext
                0x00000000800ac394                epg_get_cur_tp_id
                0x00000000800ac41c                epg_check_active_service
                0x00000000800aaf40                epg_del_service
                0x00000000800abf30                epg_on_ext
                0x00000000800ac3a4                epg_set_active_service
                0x00000000800aad10                epg_leave_mutex
                0x00000000800aacd8                epg_enter_mutex
                0x00000000800ac054                epg_on
 .text          0x00000000800ac4c0      0x560 /d/3202c/prj/app/demo/dvbc/jade_demo_new_geeya/mcf_data_broadcast_3202c//release/lib//liball.a(x_alloc.o)
                0x00000000800ac974                x_reset_mem
                0x00000000800ac7ec                x_alloc
                0x00000000800ac85c                x_free
                0x00000000800ac9c8                x_release_mem
                0x00000000800ac8bc                x_init_mem
                0x00000000800aca10                x_get_mem_status
 .text          0x00000000800aca20     0x4190 /d/3202c/prj/app/demo/dvbc/jade_demo_new_geeya/mcf_data_broadcast_3202c//release/lib//liball.a(lib_nvod.o)
                0x00000000800b0b2c                nvod_get_module_status
                0x00000000800af2cc                nvod_sort_ref_event
                0x00000000800af188                nvod_get_event_byid
                0x00000000800b0480                nvod_nit_parse
                0x00000000800b0180                nvod_close
                0x00000000800ae664                nvod_scan_start
                0x00000000800b0b38                back_to_last_nvod_tp
                0x00000000800afd50                nvod_get_channel_progid
                0x00000000800af414                nvod_rearrange_event
                0x00000000800ae8b4                nvod_get_ref_event
                0x00000000800ae9a8                nvod_get_ref_event_byid
                0x00000000800aef1c                nvod_get_cur_event
                0x00000000800ae844                nvod_get_ref_event_cnt
                0x00000000800b090c                nvod_get_tp_entry
                0x00000000800b07c8                nvod_init
                0x00000000800afe74                nvod_open
                0x00000000800ae390                nvod_start_eit
                0x00000000800afb10                nvod_save_program
                0x00000000800aed8c                nvod_get_refevent_timelist
                0x00000000800afcdc                nvod_saveorload_tp_eit
                0x00000000800ae4c8                nvod_add_tp
                0x00000000800b08b0                nvod_release
                0x00000000800aeb34                nvod_create_refevent_timelist
 .text          0x00000000800b0bb0      0xe54 /d/3202c/prj/app/demo/dvbc/jade_demo_new_geeya/mcf_data_broadcast_3202c//release/lib//liball.a(psi_db.o)
                0x00000000800b1864                get_prog_flg
                0x00000000800b1870                psi_install_prog
                0x00000000800b0e18                psi_pg2db
                0x00000000800b0bb0                get_usr_lang_idx
                0x00000000800b118c                psi_monitor_pg2db
                0x00000000800b0e08                prog_callback_unregister
                0x00000000800b0bcc                translate_idx_to_service_lang
                0x00000000800b0c00                find_usr_sel_audio_com
                0x00000000800b0dec                prog_callback_register
                0x00000000800b1654                psi_fake_name
                0x00000000800b15f8                psi_update_name
                0x00000000800b1464                psi_update_pids
                0x00000000800b0bbc                set_usr_lang_idx
 .text          0x00000000800b1a04      0x138 /d/3202c/prj/app/demo/dvbc/jade_demo_new_geeya/mcf_data_broadcast_3202c//release/lib//liball.a(si_desc_cab_delivery.o)
                0x00000000800b1a04                si_on_cab_delivery_desc
 .text          0x00000000800b1b3c       0xb4 /d/3202c/prj/app/demo/dvbc/jade_demo_new_geeya/mcf_data_broadcast_3202c//release/lib//liball.a(si_desc_service_list.o)
                0x00000000800b1b3c                nit_on_service_list_desc
 .text          0x00000000800b1bf0     0x291c /d/3202c/prj/app/demo/dvbc/jade_demo_new_geeya/mcf_data_broadcast_3202c//release/lib//liball.a(sie.o)
                0x00000000800b3f44                sie_config_filter
                0x00000000800b4500                sie_set_continue
                0x00000000800b3e04                sie_abort_ext
                0x00000000800b3fd8                sie_open
                0x00000000800b3ff8                sie_close
                0x00000000800b38ec                sie_alloc_filter_ext
                0x00000000800b3b14                sie_enable_filter
                0x00000000800b293c                sie_open_dmx
                0x00000000800b2ca0                sie_close_dmx
                0x00000000800b3eb8                sie_query_stat
                0x00000000800b3f98                sie_copy_config
                0x00000000800b3f14                sie_get_pid
                0x00000000800b4480                sie_abort
                0x00000000800b4270                sie_alloc_filter
                0x00000000800b2f28                sie_module_init
 .text          0x00000000800b450c      0x170 /d/3202c/prj/app/demo/dvbc/jade_demo_new_geeya/mcf_data_broadcast_3202c//release/lib//liball.a(si_nit.o)
                0x00000000800b450c                si_nit_parser
 .text          0x00000000800b467c      0x528 /d/3202c/prj/app/demo/dvbc/jade_demo_new_geeya/mcf_data_broadcast_3202c//release/lib//liball.a(sie_eit.o)
                0x00000000800b489c                start_eit_ext
                0x00000000800b4b38                stop_eit_ext
                0x00000000800b467c                start_eit
                0x00000000800b4ae4                stop_eit
 .text          0x00000000800b4ba4     0x2e58 /d/3202c/prj/app/demo/dvbc/jade_demo_new_geeya/mcf_data_broadcast_3202c//release/lib//liball.a(sie_monitor_core.o)
                0x00000000800b4ef0                get_free_monitor_id
                0x00000000800b4bb4                sim_get_monitor_param
                0x00000000800b7618                si_monitor_pre_register
                0x00000000800b7624                si_monitor_register_pmt_cb
                0x00000000800b7684                pmt_monitor_on
                0x00000000800b4fa0                get_table_index
                0x00000000800b6f1c                si_set_default_dmx
                0x00000000800b7760                sie_start_emm_service
                0x00000000800b4de0                get_free_buffer
                0x00000000800b77a4                sie_stop_emm_service
                0x00000000800b50b4                run_callback
                0x00000000800b4e9c                release_buffer
                0x00000000800b760c                si_monitor_register
                0x00000000800b77d0                si_get_cur_channel
                0x00000000800b7710                pmt_monitor_off
                0x00000000800b4ba4                monitor_id_valid
                0x00000000800b724c                ttx_descriptor_reset
                0x00000000800b643c                sim_stop_monitor
                0x00000000800b6188                sim_close_monitor
                0x00000000800b7570                si_monitor_off
                0x00000000800b72a8                sub_handler
                0x00000000800b6030                sim_open_monitor
                0x00000000800b5a70                __si_start_monitor
                0x00000000800b6bdc                sim_register_scb
                0x00000000800b4c6c                check_monitor
                0x00000000800b6a88                sim_unregister_ncb
                0x00000000800b725c                subt_descriptor_reset
                0x00000000800b62e4                sim_start_monitor
                0x00000000800b7654                si_monitor_unregister_pmt_cb
                0x00000000800b68c8                sim_register_ncb
                0x00000000800b726c                hold_ttx_enable
                0x00000000800b7278                ttx_is_holded
                0x00000000800b7284                ttx_handler
                0x00000000800b4f5c                release_monitor_id
                0x00000000800b6db8                sim_unregister_scb
                0x00000000800b7418                si_monitor_on
 .text          0x00000000800b79fc      0xfc8 /d/3202c/prj/app/demo/dvbc/jade_demo_new_geeya/mcf_data_broadcast_3202c//release/lib//liball.a(sie_monitor_dtg.o)
                0x00000000800b7ae0                sdt_monitor_off
                0x00000000800b86c8                si_get_preferred_name
                0x00000000800b8910                si_get_short_service_name
                0x00000000800b7a0c                sdt_monitor_on
                0x00000000800b829c                si_get_service_name
                0x00000000800b8350                si_get_provider_name
                0x00000000800b79fc                sdt_monitor_callback
 .text          0x00000000800b89c4      0xf10 /d/3202c/prj/app/demo/dvbc/jade_demo_new_geeya/mcf_data_broadcast_3202c//release/lib//liball.a(sie_monitor_query.o)
                0x00000000800b9810                sie_get_ecm_emm_cnt
                0x00000000800b97b8                sie_get_ecm_pid
                0x00000000800b91d8                sim_get_video_pid
                0x00000000800b8b4c                sim_get_ca_info
                0x00000000800b90c0                sim_get_pcr_pid
                0x00000000800b92f0                sim_get_prog_info
                0x00000000800b9674                sim_get_pmt
                0x00000000800b8f08                sim_get_emm_pid
                0x00000000800b8d2c                sim_get_ecm_pid
                0x00000000800b987c                sie_get_emm_pid
                0x00000000800b97ac                si_get_service_new_tsid
                0x00000000800b89c4                sim_get_prog_pmt_pid
                0x00000000800b9404                sim_get_audio_info
                0x00000000800b97a0                si_get_service_new_orinid
 .text          0x00000000800b98d4     0x1edc /d/3202c/prj/app/demo/dvbc/jade_demo_new_geeya/mcf_data_broadcast_3202c//release/lib//liball.a(si_search.o)
                0x00000000800bb010                psi_nvod_eit_complete
                0x00000000800b98d4                psi_service_type_exist
                0x00000000800b9a58                psi_info_init
                0x00000000800bb038                psi_search_start
                0x00000000800b9974                psi_module_init
                0x00000000800bb6e0                psi_search_stop
 .text          0x00000000800bb7b0     0x180c /d/3202c/prj/app/demo/dvbc/jade_demo_new_geeya/mcf_data_broadcast_3202c//release/lib//liball.a(si_tdt.o)
                0x00000000800bb7b0                mjd_to_ymd
                0x00000000800bc5dc                enable_time_parse
                0x00000000800bca14                init_time_offset_from_stream
                0x00000000800bc4b0                set_UTC_offset
                0x00000000800bc4e4                tdt_set_country_code
                0x00000000800bbc54                get_time_offset
                0x00000000800bc7b8                enable_time_offset_parse
                0x00000000800bbb28                relative_day
                0x00000000800bbb8c                date_time_compare
                0x00000000800bc5d0                is_time_parse_enable
                0x00000000800bc758                get_stream_UTC_time
                0x00000000800bc4c4                get_UTC_offset
                0x00000000800bc558                init_clock
                0x00000000800bc300                set_STC_time
                0x00000000800bc5f8                init_time_from_stream
                0x00000000800bc6cc                set_time_from_stream
                0x00000000800bc3e0                get_STC_offset
                0x00000000800bc3a4                set_STC_offset
                0x00000000800bce38                stop_tdt
                0x00000000800bc54c                enable_summer_time
                0x00000000800bc7d4                set_time_of_change
                0x00000000800bc784                is_time_offset_delay_flag
                0x00000000800bbad8                bcd_to_hm
                0x00000000800bc5c4                is_time_inited
                0x00000000800bc4f0                get_local_time
                0x00000000800bb9a0                ymd_to_mjd
                0x00000000800bc7ac                is_time_offset_inited
                0x00000000800bbe3c                convert_time_by_offset2
                0x00000000800bc7fc                set_next_time_offset
                0x00000000800bc2d8                get_UTC
                0x00000000800bc26c                init_UTC
                0x00000000800bbcd4                convert_time_by_offset
                0x00000000800bc3b8                get_STC_time
                0x00000000800bc7c4                disable_time_offset_parse
                0x00000000800bcedc                tdt_register_callback
                0x00000000800bcbfc                start_tdt
                0x00000000800bba64                bcd_to_hms
                0x00000000800bc790                set_time_offset_delay_flag
                0x00000000800bc7a0                reset_time_offset_delay_flag
                0x00000000800bc5ec                disable_time_parse
 .text          0x00000000800bcfbc       0x6c /d/3202c/prj/app/demo/dvbc/jade_demo_new_geeya/mcf_data_broadcast_3202c//release/lib//liball.a(si_utility.o)
                0x00000000800bcfbc                bcd2integer
 .text          0x00000000800bd028     0x15dc /d/3202c/prj/app/demo/dvbc/jade_demo_new_geeya/mcf_data_broadcast_3202c//release/lib//liball.a(lib_ota.o)
                0x00000000800be2ec                ota_cmd_implement
                0x00000000800be180                ota_cmd_service_stopped
                0x00000000800be1c8                ota_mem_config
                0x00000000800bd778                ota_cmd_get_download_info
                0x00000000800bd050                parse_dsmcc_sec
                0x00000000800be43c                ota_task_resume
                0x00000000800be42c                ota_task_suspend
                0x00000000800bd028                ota_reg_disp_callback
                0x00000000800be4e0                ota_init
                0x00000000800be5a4                ota_close
                0x00000000800bd994                ota_cmd_start_download
                0x00000000800be448                ota_task
                0x00000000800be3fc                ota_cmd_implement_wrapped
                0x00000000800be2b8                ota_send_cmd
                0x00000000800bdae0                ota_cmd_start_burnflash
                0x00000000800bd03c                ota_reg_parse_callback
                0x00000000800be214                ota_start_service
                0x00000000800bda94                mem_cmp
                0x00000000800bd3e8                si_private_sec_parsing_start
                0x00000000800bd240                ddb_section
                0x00000000800be250                ota_stop_service
 .text          0x00000000800be604      0x8d0 /d/3202c/prj/app/demo/dvbc/jade_demo_new_geeya/mcf_data_broadcast_3202c//release/lib//liball.a(chunk.o)
                0x00000000800bed44                chunk_get_idarray
                0x00000000800be634                store_long
                0x00000000800bed38                chunk_get_num
                0x00000000800be860                chunk_reg_bootloader_id
                0x00000000800bed60                backup_chunk_data
                0x00000000800be92c                get_chunk_header_by_addr
                0x00000000800bed54                chunk_get_valid_len
                0x00000000800bea9c                get_chunk_header
                0x00000000800beaec                chunk_check_single_crc
                0x00000000800be86c                get_chunk_list
                0x00000000800be658                chunk_goto
                0x00000000800bec7c                chunk_check_crc
                0x00000000800be848                chunk_init
                0x00000000800be604                fetch_long
                0x00000000800be748                chunk_count
 .text          0x00000000800beed4      0xe3c /d/3202c/prj/app/demo/dvbc/jade_demo_new_geeya/mcf_data_broadcast_3202c//release/lib//liball.a(chunk_sto.o)
                0x00000000800bf7a8                sto_get_subblock_header
                0x00000000800bef4c                sto_chunk_goto
                0x00000000800bf86c                sto_chunk_check
                0x00000000800bf040                sto_chunk_count
                0x00000000800bf1ac                sto_get_chunk_list
                0x00000000800bf2a8                sto_get_chunk_header
                0x00000000800bf140                sto_chunk_init
                0x00000000800bf4f0                sto_subblock_count
                0x00000000800bf444                sto_fetch_long_ext
                0x00000000800beed4                sto_fetch_long
                0x00000000800bfaa0                sto_chunk_check_ext
                0x00000000800bf634                sto_subblock_goto
                0x00000000800bf3b0                sto_chunk_goto_ext
                0x00000000800bf864                forlink
 .text          0x00000000800bfd10     0x2f94 /d/3202c/prj/app/demo/dvbc/jade_demo_new_geeya/mcf_data_broadcast_3202c//release/lib//liball.a(db_interface.o)
                0x00000000800c0e70                del_child_prog
                0x00000000800c0d6c                del_node_by_id
                0x00000000800c2b40                set_prog_del_flag
                0x00000000800c1f54                db_search_exit
                0x00000000800c2170                db_search_lookup_node
                0x00000000800c29b4                set_node_del_flag
                0x00000000800c1244                get_prog_pos
                0x00000000800c0568                get_tp_by_pos
                0x00000000800bfd10                set_default_value
                0x00000000800c1310                db_unsave_data_changed
                0x00000000800c1920                recreate_prog_view
                0x00000000800c0ccc                del_node_by_pos
                0x00000000800c0a18                modify_node
                0x00000000800c251c                get_prog_num
                0x00000000800c0b80                modify_prog
                0x00000000800c0e40                del_prog_by_id
                0x00000000800c2634                get_specific_prog_num
                0x00000000800c0618                get_tp_by_id
                0x00000000800c1ebc                db_search_init
                0x00000000800c2c8c                db_get_search_nodebuf
                0x00000000800c2298                db_search_lookup_tpnode
                0x00000000800c0768                db_node_cmp_callback_unreg
                0x00000000800c2a8c                get_node_del_flag
                0x00000000800c11a4                get_node_pos
                0x00000000800c2c28                get_audio_lang3b
                0x00000000800c2b7c                get_prog_del_flag
                0x00000000800c23ec                get_node_num
                0x00000000800c1b14                db_search_create_tp_view
                0x00000000800c19b8                recreate_special_pip_view
                0x00000000800c18b0                get_cur_view
                0x00000000800c2bb0                get_audio_lang2b
                0x00000000800c0e0c                del_prog_at
                0x00000000800c052c                get_prog_by_id
                0x00000000800c0244                get_node_by_pos
                0x00000000800c0774                add_node
                0x00000000800c1fb8                lookup_node
                0x00000000800c2924                check_node_modified
                0x00000000800c18c0                get_cur_view_feature
                0x00000000800c075c                db_node_cmp_callback_reg
                0x00000000800c0bbc                modify_tp
                0x00000000800c1170                del_tp_by_id
                0x00000000800c1a8c                recreate_tp_view
                0x00000000800c00e0                init_db
                0x00000000800c04ec                get_prog_at
                0x00000000800c1d6c                db_search_create_pg_view
                0x00000000800c0ff0                del_child_prog_except_fav_prog
                0x00000000800c23a0                update_data
                0x00000000800c03ac                get_node_by_id
                0x00000000800c1274                move_prog
                0x00000000800c01f8                clear_db
 .text          0x00000000800c2ca4     0x355c /d/3202c/prj/app/demo/dvbc/jade_demo_new_geeya/mcf_data_broadcast_3202c//release/lib//liball.a(db_interface_ext.o)
                0x00000000800c2d3c                node_name_cmp
                0x00000000800c3574                sort_assign_buf
                0x00000000800c2d0c                DB_STRLEN
                0x00000000800c5c20                sort_prog_node_advance
                0x00000000800c34f0                clear_node_find_flag
                0x00000000800c5cd4                sort_tp_node
                0x00000000800c5a78                sort_prog_node
                0x00000000800c3160                find_prog_by_name
                0x00000000800c3364                get_prog_by_event
                0x00000000800c2ca4                DB_STRCMP
                0x00000000800c601c                get_cas_num
                0x00000000800c5da8                get_provider_num
                0x00000000800c2ce0                DB_STRCPY
                0x00000000800c3448                get_find_prog_by_pos
 .text          0x00000000800c6200      0x588 /d/3202c/prj/app/demo/dvbc/jade_demo_new_geeya/mcf_data_broadcast_3202c//release/lib//liball.a(tmp_info.o)
                0x00000000800c667c                load_tmp_data
                0x00000000800c6758                init_tmp_info
                0x00000000800c64f0                erase_tmp_sector
                0x00000000800c6590                save_tmp_data
 .text          0x00000000800c6788     0x13d0 /d/3202c/prj/app/demo/dvbc/jade_demo_new_geeya/mcf_data_broadcast_3202c//release/lib//liball.a(db_plugin_C.o)
                0x00000000800c77d0                update_stream_info
                0x00000000800c7998                undo_prog_modify
                0x00000000800c69e4                node_unpacker
                0x00000000800c73a0                del_sat_by_pos
                0x00000000800c73d4                del_sat_by_id
                0x00000000800c7284                del_tp_on_sat
                0x00000000800c7128                get_tp_num_sat
                0x00000000800c7a0c                db_channel_logicnum_to_id
                0x00000000800c6788                node_packer
                0x00000000800c7568                get_sat_at
                0x00000000800c7760                get_sat_num
                0x00000000800c7320                get_sat_by_id
                0x00000000800c76d8                recreate_sat_view
                0x00000000800c6bf0                db_same_node_checker
                0x00000000800c6dcc                db_same_tpnode_checker
                0x00000000800c7360                modify_sat
                0x00000000800c6f40                get_tp_at
 .text          0x00000000800c7b58      0xecc /d/3202c/prj/app/demo/dvbc/jade_demo_new_geeya/mcf_data_broadcast_3202c//release/lib//liball.a(stb_info.o)
                0x00000000800c8120                erase_stbinfo_sector
                0x00000000800c81ac                save_stbinfo_data
                0x00000000800c8594                load_stbinfo
                0x00000000800c873c                get_stbinfo_len
                0x00000000800c8978                load_stbinfo_buf
                0x00000000800c89f4                init_stb_info
                0x00000000800c88f4                get_stbinfo_f_addr
 .text          0x00000000800c8a24     0x16ac /d/3202c/prj/app/demo/dvbc/jade_demo_new_geeya/mcf_data_broadcast_3202c//release/lib//liball.a(stb_info_data.o)
                0x00000000800c8efc                stb_info_data_print_part
                0x00000000800c9474                stb_info_data_get_sw_version
                0x00000000800c9484                stb_info_data_get_nor_size
                0x00000000800c9b14                stb_info_data_get_upginfo
                0x00000000800c9394                stb_info_data_update_part_size
                0x00000000800c94b8                stb_info_data_set_backup_partid
                0x00000000800c95fc                stb_info_data_add_chunk
                0x00000000800c8b84                stb_info_data_check
                0x00000000800c94cc                stb_info_data_set_state
                0x00000000800c9944                stb_info_data_restore_check
                0x00000000800ca078                stb_info_data_update_info
                0x00000000800c995c                stb_info_data_clear_allchunk
                0x00000000800c9278                stb_info_data_get_info_by_id
                0x00000000800c9860                stb_info_data_get_chunk
                0x00000000800c94ac                stb_info_data_get_total_size
                0x00000000800c97ac                stb_info_data_update_chunk
                0x00000000800c94e0                stb_info_data_set_info_by_id
                0x00000000800c982c                stb_info_data_update_chunk_list
                0x00000000800c99f8                stb_info_data_save
                0x00000000800c9b90                stb_info_data_load
                0x00000000800c9da4                stb_info_data_update_part
                0x00000000800c9b40                stb_info_data_get
                0x00000000800c9034                stb_info_data_print
                0x00000000800c98c4                stb_info_data_get_chunk_by_id
                0x00000000800c96d0                stb_info_data_delete_chunk
                0x00000000800c9140                stb_info_data_get_info_by_name
 .text          0x00000000800ca0d0     0x4a8c /d/3202c/prj/app/demo/dvbc/jade_demo_new_geeya/mcf_data_broadcast_3202c//release/lib//liball.a(ge_draw_primitive.o)
                0x00000000800ce194                gedraw_creatergn
                0x00000000800cea40                gedraw_retrieveslave
                0x00000000800ca198                gedraw_link2rgntbl
                0x00000000800cdb58                gedraw_getrgnpos
                0x00000000800cdf5c                gedraw_scale
                0x00000000800cbf84                gedraw_drawbmp
                0x00000000800cdfd4                gedraw_rgn_showonoff
                0x00000000800cce90                gedraw_backup_restore
                0x00000000800cd3b8                gedraw_colorkey_rgn
                0x00000000800cbac8                gedraw_drawpixel
                0x00000000800ce39c                gedraw_createsurf
                0x00000000800cdd08                gedraw_setpallette
                0x00000000800ca0d0                gedraw_getdstlayer
                0x00000000800ce7fc                gelib_dualoutput_onoff
                0x00000000800cd734                gedraw_flush_rgn
                0x00000000800ca914                app_popup_init
                0x00000000800cc7c4                gedraw_update2scrn
                0x00000000800ccd00                gedraw_retrievescrn
                0x00000000800cd544                gedraw_blend_rgn
                0x00000000800ce904                gedraw_update2slave
                0x00000000800cbe60                gedraw_fillroundrect
                0x00000000800ce500                app_dualoutput_init
                0x00000000800cc67c                gedraw_drawfont
                0x00000000800ca748                app_gui_release
                0x00000000800cda90                gedraw_setrgnpos
                0x00000000800cba50                app_gui_switch
                0x00000000800ce808                app_dualoutput_release
                0x00000000800cab70                app_popup_release
                0x00000000800cc260                gedraw_renderbmp
                0x00000000800ca858                app_ge_release
                0x00000000800cac5c                gedraw_getdstrgn
                0x00000000800ca49c                app_gui_init
                0x00000000800cbe54                gedraw_lineto
                0x00000000800cd1f0                gedraw_setclip
                0x00000000800cd2e0                gedraw_clearclip
                0x00000000800ca104                gedraw_getdst_surf
                0x00000000800cdea4                gedraw_setgalpha
                0x00000000800ce484                gedraw_releasesurf
                0x00000000800cbbd8                gedraw_drawline
                0x00000000800ce070                gedraw_surf_showonoff
                0x00000000800cdc30                gedraw_modifypallette
                0x00000000800cbe6c                gedraw_fillrect
                0x00000000800ce0f8                gedraw_deletergn
                0x00000000800cddf8                gedraw_getpallette
                0x00000000800ca13c                gedraw_link2layertbl
 .text          0x00000000800ceb5c      0x2dc /d/3202c/prj/app/demo/dvbc/jade_demo_new_geeya/mcf_data_broadcast_3202c//release/lib//liball.a(ge_primitive_init.o)
                0x00000000800cee2c                gelib_getstates
                0x00000000800cec94                gecmd_primitive_attach
                0x00000000800ceb5c                gedraw_primitive_attach
                0x00000000800cedcc                gelib_init
 .text          0x00000000800cee38     0x33d4 /d/3202c/prj/app/demo/dvbc/jade_demo_new_geeya/mcf_data_broadcast_3202c//release/lib//liball.a(gecmd_primitive.o)
                0x00000000800cf048                gecmd_popup_init
                0x00000000800d0e3c                gecmd_colorkey_rgn
                0x00000000800d1974                gecmd_setrgnpos
                0x00000000800cf9d4                gecmd_fillroundrect
                0x00000000800cf7d0                gecmd_lineto
                0x00000000800cf000                gecmd_release
                0x00000000800d0454                gecmd_drawfont
                0x00000000800d1894                gecmd_setclip
                0x00000000800d1f94                gecmd_creatergn
                0x00000000800cf9e8                gecmd_fillrect
                0x00000000800d1ef4                gecmd_deletergn
                0x00000000800cf0dc                gecmd_popup_release
                0x00000000800d1e44                gecmd_scale
                0x00000000800cee38                gecmd_getdstrgn
                0x00000000800d1d90                gecmd_getpallette
                0x00000000800d1594                gecmd_flush_rgn
                0x00000000800cfc28                gecmd_drawbmp
                0x00000000800d1af0                gecmd_modifypallette
                0x00000000800cf4b8                gecmd_drawline
                0x00000000800d1d18                gecmd_setgalpha
                0x00000000800cffd4                gecmd_renderbmp
                0x00000000800d1e78                gecmd_rgn_showonoff
                0x00000000800d124c                gecmd_blend_rgn
                0x00000000800d1c14                gecmd_setpallette
                0x00000000800cf120                gecmd_tvsys_scale
                0x00000000800d1928                gecmd_clearclip
                0x00000000800cef8c                gecmd_init
                0x00000000800cf2a4                gecmd_drawpixel
                0x00000000800d0af0                gecmd_retrievescrn
                0x00000000800d07d8                gecmd_update2scrn
                0x00000000800d1a2c                gecmd_getrgnpos
 .text          0x00000000800d220c      0x714 /d/3202c/prj/app/demo/dvbc/jade_demo_new_geeya/mcf_data_broadcast_3202c//release/lib//liball.a(obj_container.o)
                0x00000000800d26e0                OSD_ContainerProc
                0x00000000800d220c                OSD_DrawContainerCell
                0x00000000800d265c                OSD_ContainerKeyMap
                0x00000000800d237c                OSD_ContainerChgFocus
 .text          0x00000000800d2920     0x2d24 /d/3202c/prj/app/demo/dvbc/jade_demo_new_geeya/mcf_data_broadcast_3202c//release/lib//liball.a(obj_editfield.o)
                0x00000000800d4630                OSD_GetEditFieldIntValue
                0x00000000800d42ac                OSD_SetEditFieldContent
                0x00000000800d2ff0                get_next_cursor_pos
                0x00000000800d4fa4                OSD_EditFieldKeyMap
                0x00000000800d44b4                OSD_SetEditFieldSuffix
                0x00000000800d4e38                OSD_EditFieldKeyMap1
                0x00000000800d31f0                check_number_edit_mode
                0x00000000800d43d0                OSD_SetEditFieldPrefix
                0x00000000800d4598                OSD_GetEditFieldContent
                0x00000000800d4fe4                OSD_EditFieldProc
                0x00000000800d4878                OSD_DrawEditFieldCell
                0x00000000800d4ef8                OSD_EditFieldKeyMap2
                0x00000000800d46e8                OSD_GetEditFieldTimeDate
 .text          0x00000000800d5644     0x1190 /d/3202c/prj/app/demo/dvbc/jade_demo_new_geeya/mcf_data_broadcast_3202c//release/lib//liball.a(obj_multitext.o)
                0x00000000800d5db8                OSD_DrawMultiTextCell
                0x00000000800d5694                OSD_GetWordLen
                0x00000000800d5644                IS_WORD_END
                0x00000000800d58d0                OSD_GetTextTotalLine
                0x00000000800d5dac                OSD_SetMultiTextContent
                0x00000000800d6568                OSD_MultiTextProc
                0x00000000800d64e4                OSD_MultiTextKeyMap
                0x00000000800d5aec                OSD_GetMTextInfor
 .text          0x00000000800d67d4     0x169c /d/3202c/prj/app/demo/dvbc/jade_demo_new_geeya/mcf_data_broadcast_3202c//release/lib//liball.a(obj_objectlist.o)
                0x00000000800d7450                OSD_ObjListChgTopFocus
                0x00000000800d79d8                OSD_ObjListDefMap
                0x00000000800d71b4                OSD_CheckObjListMultiSelect
                0x00000000800d6d68                OSD_GetObjListShift
                0x00000000800d7a48                OSD_ObjectListProc
                0x00000000800d7414                OSD_SetObjListAspect
                0x00000000800d7770                OSD_ObjListChgFocus
                0x00000000800d7118                OSD_GetObjListMultiSelItemNum
                0x00000000800d7808                OSD_DrawObjectListCell
                0x00000000800d71e8                OSD_SwitchObjListMultiSelect
                0x00000000800d7230                OSD_ObjListDelItemUpdateSelect
                0x00000000800d73a8                OSD_SetObjListVerScrollBar
                0x00000000800d6d50                OSD_GetObjListAspect
 .text          0x00000000800d7e70      0x48c /d/3202c/prj/app/demo/dvbc/jade_demo_new_geeya/mcf_data_broadcast_3202c//release/lib//liball.a(obj_textfield.o)
                0x00000000800d7e70                OSD_SetSDTxtContent
                0x00000000800d8014                OSD_DrawTextFieldCell
                0x00000000800d81f8                OSD_TextFieldProc
                0x00000000800d81d8                OSD_TextFieldKeyMap
                0x00000000800d7f3c                OSD_SetTextFieldContent
 .text          0x00000000800d82fc      0xd70 /d/3202c/prj/app/demo/dvbc/jade_demo_new_geeya/mcf_data_broadcast_3202c//release/lib//liball.a(osd_common.o)
                0x00000000800d850c                ComUTF8Str2Uni
                0x00000000800d8bf0                ComUniStr2IntExt
                0x00000000800d8814                ComUniStrCopyChar
                0x00000000800d82fc                ComAscStr2Uni
                0x00000000800d88b4                ComUniStrCopyCharN
                0x00000000800d8d70                ComUniStrCat
                0x00000000800d8d0c                ComUniStrToMB
                0x00000000800d8a38                ComUniAnyStr2Int
                0x00000000800d8fd4                ComStr2UniStrExt
                0x00000000800d8738                ComUniStrCopy
                0x00000000800d87a4                ComUniStrCopyEx
                0x00000000800d8e14                ComUniStrCmp
                0x00000000800d8b28                SetUniStrCharAt
                0x00000000800d899c                ComUniStr2Int
                0x00000000800d8ce8                IS_NEWLINE
                0x00000000800d85dc                ComInt2UniStr
                0x00000000800d8b88                SetUniStrUniCharAt
                0x00000000800d86b4                ComUniStrLen
                0x00000000800d8560                ComUniStrToAsc
                0x00000000800d8cc4                ComMB16ToUINT16
                0x00000000800d8950                ComUniStrMemSet
                0x00000000800d8ac0                GetUniStrCharAt
                0x00000000800d8eec                ComUniStrCmpExt
                0x00000000800d86f0                ComUniStrLenExt
 .text          0x00000000800d906c     0x2f4c /d/3202c/prj/app/demo/dvbc/jade_demo_new_geeya/mcf_data_broadcast_3202c//release/lib//liball.a(osd_common_draw.o)
                0x00000000800d9154                OSD_DrawBmp2Vscr
                0x00000000800d9934                OSD_DrawText
                0x00000000800db394                OSD_DrawStyleRect
                0x00000000800d9f70                OSDDrawPicSolidRectangle
                0x00000000800da1f8                OSDDrawCircleRectangle
                0x00000000800da878                OSDDrawSolidRectangle
                0x00000000800dbc58                OSD_GetTaskSlvscr
                0x00000000800db8f4                OSD_GetVscr
                0x00000000800db470                OSD_DrawThaiCell
                0x00000000800d906c                OSD_DrawRect2Vscr
                0x00000000800d9434                OSD_DrawChar2Vscr
                0x00000000800db858                OSD_ClearVscr
                0x00000000800d9c18                OSD_DrawText_ext
                0x00000000800dbc90                OSD_SetVscrDst
                0x00000000800dbca0                OSD_ClearScrn
                0x00000000800d9690                OSD_DrawChar2Vscr_ext
                0x00000000800dbe1c                OSD_ClearRct
                0x00000000800daa18                OSDDrawPICRectangle
                0x00000000800dbc20                OSD_GetTaskVscr
                0x00000000800db67c                OSD_UpdateVscr
                0x00000000800dbac0                OSD_GetSlvscr
 .text          0x00000000800dbfb8     0x24d8 /d/3202c/prj/app/demo/dvbc/jade_demo_new_geeya/mcf_data_broadcast_3202c//release/lib//liball.a(osd_lib.o)
                0x00000000800ddb64                OSD_ObjCommonProc
                0x00000000800dda28                OSD_ObjClose
                0x00000000800dd06c                OSD_DrawObject
                0x00000000800dd4e0                OSD_HideObject
                0x00000000800dbfd0                OSD_RegOpenNotifyFunc
                0x00000000800dc3a0                OSD_GetAdjacentObject
                0x00000000800ddf24                app_rsc_init
                0x00000000800dc164                OSD_SetWholeObjAttr
                0x00000000800dce94                OSD_DrawObjectCell
                0x00000000800de254                OSD_GetThaiCellWidthHeight
                0x00000000800dc70c                OSD_GetAdjacentObjID
                0x00000000800ddce8                OSD_ObjProc
                0x00000000800dc208                OSD_GetFocusID
                0x00000000800dc53c                OSD_MoveObject
                0x00000000800dce38                OSD_GetSlaveWstyle
                0x00000000800de3b4                OSD_GetLibInfoByWordIdx
                0x00000000800dd848                OSD_NotifyEvent
                0x00000000800ddfec                OSD_GetCharWidthHeight
                0x00000000800dd3a0                OSD_SelObject
                0x00000000800dd234                OSD_TrackObject
                0x00000000800dbfc8                reset_object_record
                0x00000000800dd87c                OSD_EventPassToChild
                0x00000000800dcd7c                OSD_DrawObjectFrame
                0x00000000800dbfdc                OSD_RegCloseNotifyFunc
                0x00000000800dbfb8                add_object_record
                0x00000000800dc058                OSD_GetRectsCross
                0x00000000800dc1e8                OSD_GetTopRootObject
                0x00000000800de434                OSD_GetRscPallette
                0x00000000800dccc0                OSD_DrawSlaveFrame
                0x00000000800de384                OSD_GetShowIndex
                0x00000000800de480                OSD_ResumeCloseClrbackFlag
                0x00000000800dc298                OSD_GetObject
                0x00000000800dd6bc                OSD_ClearObject
                0x00000000800ddf7c                OSD_GetUnicodeString
                0x00000000800de46c                OSD_SetCloseClrbackFlag
                0x00000000800dc4c8                OSD_ChangeFocus
                0x00000000800dbfe8                OSD_RectInRect
                0x00000000800dc364                OSD_GetFocusObject
                0x00000000800dd914                OSD_ObjOpen
                0x00000000800de0a4                OSD_MultiFontLibStrMaxHW
 .text          0x00000000800de490      0xe5c /d/3202c/prj/app/demo/dvbc/jade_demo_new_geeya/mcf_data_broadcast_3202c//release/lib//liball.a(osd_plugin.o)
                0x00000000800df23c                OSD_DrawFrame
                0x00000000800de4c8                OSD_DrawPixel
                0x00000000800df1a4                OSD_SetCurRegion
                0x00000000800de500                OSD_DrawHorLine
                0x00000000800ded78                OSD_Scale
                0x00000000800df230                OSD_GetTaskVscrBuffer
                0x00000000800df1b0                OSD_GetCurRegion
                0x00000000800de59c                OSD_DrawFill
                0x00000000800def90                OSD_ClearClipRect
                0x00000000800de490                OSD_DrawPicture
                0x00000000800de5d8                OSD_RegionFill
                0x00000000800de674                OSD_ShowOnOff
                0x00000000800de844                OSD_GetRegionData
                0x00000000800de6fc                OSD_SetRectOnScreen
                0x00000000800df1fc                OSD_RegionInit2
                0x00000000800df0f0                OSD_DeleteRegion
                0x00000000800de814                OSD_GetVscrBuffSize
                0x00000000800df1c8                OSD_RegionInit
                0x00000000800deef4                OSD_SetClipRect
                0x00000000800de788                OSD_GetRectOnScreen
                0x00000000800df1bc                OSD_SetDeviceHandle
                0x00000000800de54c                OSD_DrawVerLine
                0x00000000800deaf8                OSD_RegionWrite
                0x00000000800dee68                OSD_SetPallette
                0x00000000800df00c                OSD_CreateRegion
 .text          0x00000000800df2ec      0x750 /d/3202c/prj/app/demo/dvbc/jade_demo_new_geeya/mcf_data_broadcast_3202c//release/lib//liball.a(osd_popup.o)
                0x00000000800df2ec                OSD_RectBackUp
                0x00000000800df354                OSD_UpdateMsgPopup
                0x00000000800df310                OSD_RectRestore
                0x00000000800dfa30                OSD_Detach_Popcb
                0x00000000800df50c                OSD_ModalPopupInit
                0x00000000800df624                OSD_ModalPopupRelease
                0x00000000800df414                OSD_ClearMsgPopup
                0x00000000800dfa1c                OSD_Attach_Popcb
 .text          0x00000000800dfa3c      0x65c /d/3202c/prj/app/demo/dvbc/jade_demo_new_geeya/mcf_data_broadcast_3202c//release/lib//liball.a(osd_window.o)
                0x00000000800dfa3c                osdwnd_getwndregion
                0x00000000800dfd98                osdwnd_hidewnd
                0x00000000800dfa84                osdwnd_destroywnd
                0x00000000800dfa78                osdwnd_createwnd
                0x00000000800dfa6c                osdwnd_releasewndregion
                0x00000000800dff6c                osdwnd_get_wndshow
                0x00000000800dfa90                osdwnd_showwnd
                0x00000000800dffd0                gelib_disable_wnd_monitors
                0x00000000800dff88                gelib_enable_wnd_monitors
 .text          0x00000000800e0098     0x4084 /d/3202c/prj/app/demo/dvbc/jade_demo_new_geeya/mcf_data_broadcast_3202c//release/lib//liball.a(nim_s3202.o)
                0x00000000800e00e4                nim_s3202_write
                0x00000000800e0098                nim_s3202_read
                0x00000000800e4110                nim_s3202_register_RF_Level_cb
                0x00000000800e2bc0                nim_s3202_attach
 .text          0x00000000800e411c      0x39c /d/3202c/prj/app/demo/dvbc/jade_demo_new_geeya/mcf_data_broadcast_3202c//release/lib//liball.a(tun_alpstdae.o)
                0x00000000800e411c                tun_alpstdae_init
                0x00000000800e4278                tun_alpstdae_control
                0x00000000800e41d0                tun_alpstdae_status
 .text          0x00000000800e44b8      0x33c /d/3202c/prj/app/demo/dvbc/jade_demo_new_geeya/mcf_data_broadcast_3202c//release/lib//liball.a(tun_dct70701.o)
                0x00000000800e4614                tun_dct70701_control
                0x00000000800e456c                tun_dct70701_status
                0x00000000800e44b8                tun_dct70701_init
 .text          0x00000000800e47f4      0x69c /d/3202c/prj/app/demo/dvbc/jade_demo_new_geeya/mcf_data_broadcast_3202c//release/lib//liball.a(tun_rt820.o)
                0x00000000800e48b4                tun_rt820_status
                0x00000000800e48ec                tun_rt820_control
                0x00000000800e4c90                read_i2c
                0x00000000800e4e54                I2C_Write
                0x00000000800e47f4                tun_rt820_init
                0x00000000800e4d64                R828_Convert
                0x00000000800e4ce8                I2C_Write_Len
                0x00000000800e4a04                R828_Delay_MS
                0x00000000800e4a58                write_i2c
                0x00000000800e4db8                I2C_Read_Len
 .text          0x00000000800e4e90     0x11bc /d/3202c/prj/app/demo/dvbc/jade_demo_new_geeya/mcf_data_broadcast_3202c//release/lib//liball.a(pan_ct1642.o)
                0x00000000800e557c                pan_ct1642_init
                0x00000000800e5d20                pan_ct1642_attach
 .text          0x00000000800e604c     0x2a5c /d/3202c/prj/app/demo/dvbc/jade_demo_new_geeya/mcf_data_broadcast_3202c//release/lib//liball.a(pan_tp6x0.o)
                0x00000000800e74d8                pan_tp6x0_led_onoff
                0x00000000800e7530                pan_tp6x0_update_led
                0x00000000800e76a8                pan_tp6x0_read_key
                0x00000000800e749c                pan_tp6x0_set_mode
                0x00000000800e7724                pan_tp6x0_attach
                0x00000000800e75d8                pan_tp6x0_led_init
                0x00000000800e604c                tp6x0_write
                0x00000000800e68d4                tp6x0_write_read
 .text          0x00000000800e8aa8     0x7738 /d/3202c/prj/app/demo/dvbc/jade_demo_new_geeya/mcf_data_broadcast_3202c//release/lib//liball.a(smartcard.o)
                0x00000000800e8e0c                t1_release
                0x00000000800e9a5c                smc_dev_disable
                0x00000000800e9eb0                smc_dev_attach
                0x00000000800e9a54                smc_dev_enable
                0x00000000800e91e4                t1_negociate_ifsd
                0x00000000800e9a64                smc_write_tx
                0x00000000800e8af0                t1_crc
                0x00000000800e9ac0                smc_write_rx
                0x00000000800ecc60                smc_dev_clear_tx_rx_buf
                0x00000000800e8da0                t1_init
                0x00000000800e9380                t1_transceive
                0x00000000800e8aa8                t1_lrc
                0x00000000800e9b04                smc_read_rx
                0x00000000800e8e44                t1_build
                0x00000000800e9c50                smc_gpio_detect_lsr
                0x00000000800e9a90                smc_read_tx
 .text          0x00000000800f01e0      0x1ec /d/3202c/prj/app/demo/dvbc/jade_demo_new_geeya/mcf_data_broadcast_3202c//release/lib//liball.a(smc_t1_buffer.o)
                0x00000000800f0270                t1_buf_get
                0x00000000800f03b8                t1_buf_head
                0x00000000800f0378                t1_buf_putc
                0x00000000800f0234                t1_buf_set
                0x00000000800f02ec                t1_buf_put
                0x00000000800f01e0                t1_buf_init
                0x00000000800f03a4                t1_buf_avail
 .text          0x00000000800f03cc      0x984 /d/3202c/prj/app/demo/dvbc/jade_demo_new_geeya/mcf_data_broadcast_3202c//release/lib//liball.a(flash_info.o)
                0x00000000800f04ec                flash_sector_align
                0x00000000800f05e0                flash_identify
                0x00000000800f0574                flash_sector_start
                0x00000000800f03cc                flash_sector_size
 .text          0x00000000800f0d50      0x170 /d/3202c/prj/app/demo/dvbc/jade_demo_new_geeya/mcf_data_broadcast_3202c//release/lib//liball.a(flash_info_s.o)
                0x00000000800f0e38                flash_info_sl_init
                0x00000000800f0d50                flash_info_sl_config
 .text          0x00000000800f0ec0     0x19e8 /d/3202c/prj/app/demo/dvbc/jade_demo_new_geeya/mcf_data_broadcast_3202c//release/lib//liball.a(flash_raw_sl_c.o)
                0x00000000800f1f44                sflash_read
                0x00000000800f137c                sflash_erase_chip
                0x00000000800f2448                sflash_verify
                0x00000000800f1010                sflash_get_id
                0x00000000800f1504                sflash_erase_sector
                0x00000000800f16fc                sflash_copy
 .text          0x00000000800f28a8      0x56c /d/3202c/prj/app/demo/dvbc/jade_demo_new_geeya/mcf_data_broadcast_3202c//release/lib//liball.a(flash_sl.o)
                0x00000000800f2a7c                sto_sflash_identify
                0x00000000800f28a8                sto_local_sflash_attach
 .text          0x00000000800f2e14      0xfa0 /d/3202c/prj/app/demo/dvbc/jade_demo_new_geeya/mcf_data_broadcast_3202c//release/lib//liball.a(sto_flash.o)
                0x00000000800f3d88                sto_flash_sector_erase
                0x00000000800f3d7c                sto_flash_disable_protect
                0x00000000800f3d58                sto_flash_soft_protect
                0x00000000800f3be0                sto_flash_sector_align
                0x00000000800f3c70                sto_flash_sector_start
                0x00000000800f3cec                sto_fp_init
                0x00000000800f3ac4                sto_flash_sector_size
 .text          0x00000000800f3db4      0x4d0 /d/3202c/prj/app/demo/dvbc/jade_demo_new_geeya/mcf_data_broadcast_3202c//release/lib//liball.a(smc.o)
                0x00000000800f41a0                smc_t1_transfer
                0x00000000800f40a4                smc_iso_transfer_t1
                0x00000000800f404c                smc_iso_transfer
                0x00000000800f3ecc                smc_reset
                0x00000000800f3e24                smc_close
                0x00000000800f4154                smc_io_control
                0x00000000800f3e8c                smc_card_exist
                0x00000000800f3fa4                smc_raw_write
                0x00000000800f3db4                smc_open
                0x00000000800f4244                smc_t1_negociate_ifsd
                0x00000000800f41f4                smc_t1_xcv
                0x00000000800f40fc                smc_iso_transfer_t14
                0x00000000800f3f0c                smc_deactive
                0x00000000800f3f50                smc_raw_read
                0x00000000800f3ff8                smc_raw_fifo_write
 .text          0x00000000800f4284      0x730 /d/3202c/prj/app/demo/dvbc/jade_demo_new_geeya/mcf_data_broadcast_3202c//release/lib//liball.a(gif_core.o)
                0x00000000800f438c                interlace2normal_image
                0x00000000800f4518                gif_core_dec
                0x00000000800f4500                gif_core_set_error
                0x00000000800f450c                gif_core_error
 .text          0x00000000800f49b4      0x480 /d/3202c/prj/app/demo/dvbc/jade_demo_new_geeya/mcf_data_broadcast_3202c//release/lib//liball.a(gif_in.o)
                0x00000000800f4d48                gif_in_init
                0x00000000800f4b34                gif_in_read_byte
                0x00000000800f4bac                gif_in_read_bits
                0x00000000800f49b4                gif_in_file_end
                0x00000000800f4a60                gif_in_next_byte
                0x00000000800f4b94                gif_in_init_bit
                0x00000000800f49d0                gif_in_file_set_offset
                0x00000000800f49c4                gif_in_file_offset
 .text          0x00000000800f4e34     0x1488 /d/3202c/prj/app/demo/dvbc/jade_demo_new_geeya/mcf_data_broadcast_3202c//release/lib//liball.a(gif_info.o)
                0x00000000800f4e34                gif_info_parse
                0x00000000800f5310                gif_info_init
 .text          0x00000000800f62bc      0x65c /d/3202c/prj/app/demo/dvbc/jade_demo_new_geeya/mcf_data_broadcast_3202c//release/lib//liball.a(gif_list.o)
                0x00000000800f6580                gif_list_check_unit
                0x00000000800f63b0                gif_list_delete_unit
                0x00000000800f6610                gif_list_init
                0x00000000800f62dc                gif_list_exit_mutex
                0x00000000800f67dc                gif_list_free
                0x00000000800f62fc                gif_list_add_unit
                0x00000000800f650c                gif_list_next_unit
                0x00000000800f64c4                gif_list_fetch_unit
                0x00000000800f62bc                gif_list_enter_mutex
 .text          0x00000000800f6918      0x920 /d/3202c/prj/app/demo/dvbc/jade_demo_new_geeya/mcf_data_broadcast_3202c//release/lib//liball.a(gif_lzw.o)
                0x00000000800f6a7c                gif_lzw_image_done
                0x00000000800f6aa0                gif_lzw_delay_slice
                0x00000000800f6fcc                gif_lzw_init
                0x00000000800f6af8                gif_lzw_decompress
                0x00000000800f6918                gif_lzw_make_ready
                0x00000000800f6ab8                gif_lzw_cur_ticks
 .text          0x00000000800f7238     0x1414 /d/3202c/prj/app/demo/dvbc/jade_demo_new_geeya/mcf_data_broadcast_3202c//release/lib//liball.a(imagedec_acc.o)
                0x00000000800f7e34                jh_hw_init
                0x00000000800f8064                jh_m33_hw_set_hw_vld_table
                0x00000000800f776c                jh_hw_reset
                0x00000000800f8434                jh_reg_mcu_coord_y
                0x00000000800f85e0                jh_hw_request_data
                0x00000000800f8610                jh_hw_vld_get_offset
                0x00000000800f85b4                jh_unit_start
                0x00000000800f8588                jh_mcu_start
                0x00000000800f7dd4                jh_frame_addr
                0x00000000800f83cc                jh_m33_config_hw_vld
                0x00000000800f85f8                jh_hw_clear_status
                0x00000000800f8570                jh_reset_dc_value
                0x00000000800f84ec                jh_hw_jpeg_busy
                0x00000000800f8490                jh_reg_mcu_coord_x
                0x00000000800f8520                jh_input_rlc_data
                0x00000000800f8504                jh_hw_iqis_buf_full
                0x00000000800f85c8                jh_hw_vld_busy
                0x00000000800f8620                jh_hw_vld_mcu_start
 .text          0x00000000800f864c      0x99c /d/3202c/prj/app/demo/dvbc/jade_demo_new_geeya/mcf_data_broadcast_3202c//release/lib//liball.a(imagedec_exif.o)
                0x00000000800f88c0                recover_bit_info
                0x00000000800f8eec                app_exif_decoder
                0x00000000800f8888                store_bit_info
 .text          0x00000000800f8fe8     0x1a84 /d/3202c/prj/app/demo/dvbc/jade_demo_new_geeya/mcf_data_broadcast_3202c//release/lib//liball.a(imagedec_idct.o)
                0x00000000800fa240                idct4x1
                0x00000000800f95a0                idct8x4
                0x00000000800f9d90                idct2x1
                0x00000000800f9588                idct1x1
                0x00000000800fa444                idct
                0x00000000800f8fe8                idct4x4
                0x00000000800f9abc                idct4x2
                0x00000000800f93f0                idct2x2
                0x00000000800f9e54                idct8x2
 .text          0x00000000800faa6c      0x668 /d/3202c/prj/app/demo/dvbc/jade_demo_new_geeya/mcf_data_broadcast_3202c//release/lib//liball.a(png_filter.o)
                0x00000000800fafd8                png_filter_init
                0x00000000800faea4                png_filter_scan_line
 .text          0x00000000800fb0d4      0x80c /d/3202c/prj/app/demo/dvbc/jade_demo_new_geeya/mcf_data_broadcast_3202c//release/lib//liball.a(png_huf_table.o)
                0x00000000800fb224                png_huf_table
 .text          0x00000000800fb8e0      0xf9c /d/3202c/prj/app/demo/dvbc/jade_demo_new_geeya/mcf_data_broadcast_3202c//release/lib//liball.a(lib_multiview.o)
                0x00000000800fc7a8                UIMultiviewExit
                0x00000000800fc50c                UIMultiviewInit
                0x00000000800fc428                mv_init
                0x00000000800fc858                get_mv_cancel
                0x00000000800fc610                UIMultiviewInitExt
                0x00000000800fc718                UIMultiviewDrawOneBox
                0x00000000800fc640                UIMultiviewEnter
                0x00000000800fc84c                UIMultiviewGetStatus
                0x00000000800fc4e8                get_mv_exit
 .text          0x00000000800fc87c      0x2e8 /d/3202c/prj/app/demo/dvbc/jade_demo_new_geeya/mcf_data_broadcast_3202c//release/lib//liball.a(as_dvbc.o)
                0x00000000800fc9f0                dvbc_alloc_transponder
                0x00000000800fc87c                dvbc_init_search_param
                0x00000000800fc9d0                dvbc_tp_sanity_check
 .text          0x00000000800fcb64      0xcb0 /d/3202c/prj/app/demo/dvbc/jade_demo_new_geeya/mcf_data_broadcast_3202c//release/lib//liball.a(arabic_convert.o)
                0x00000000800fd49c                hebrew_punctuation_process
                0x00000000800fd190                get_ligature
                0x00000000800fcd28                absorb_spc
                0x00000000800fcb64                get_dir
                0x00000000800fd2c8                arabic_line
                0x00000000800fd090                seek_info
                0x00000000800fcee0                dir_split
                0x00000000800fd1ec                out_char
                0x00000000800fd6d8                persian_process
                0x00000000800fcc94                merge_seg
                0x00000000800fd5a0                arabic_process
                0x00000000800fd058                latin_line
 .text          0x00000000800fd814       0xf4 /d/3202c/prj/app/demo/dvbc/jade_demo_new_geeya/mcf_data_broadcast_3202c//release/lib//liball.a(char_map.o)
                0x00000000800fd8a4                reverse_lookup
                0x00000000800fd814                u8u16_lookup
 .text          0x00000000800fd908      0x248 /d/3202c/prj/app/demo/dvbc/jade_demo_new_geeya/mcf_data_broadcast_3202c//release/lib//liball.a(iso_5937.o)
                0x00000000800fd908                iso6937_convert_ch
 .text          0x00000000800fdb50      0x320 /d/3202c/prj/app/demo/dvbc/jade_demo_new_geeya/mcf_data_broadcast_3202c//release/lib//liball.a(Thai.o)
                0x00000000800fdb50                thai_seek_info
                0x00000000800fddc8                thai_get_cell_size
                0x00000000800fde58                is_thai_unicode
                0x00000000800fdc40                thai_get_cell
 .text          0x00000000800fde70      0xa48 /d/3202c/prj/app/demo/dvbc/jade_demo_new_geeya/mcf_data_broadcast_3202c//release/lib//liball.a(lib_dbc.o)
                0x00000000800fe230                dii_message
                0x00000000800fe6ec                ddb_data
                0x00000000800fde70                dsi_message
 .text          0x00000000800fe8b8      0x2e4 /d/3202c/prj/app/demo/dvbc/jade_demo_new_geeya/mcf_data_broadcast_3202c//release/lib//liball.a(desc_loop_parser.o)
                0x00000000800fea18                si_descriptor_parser
                0x00000000800fe8b8                desc_loop_parser
 .text          0x00000000800feb9c      0x168 /d/3202c/prj/app/demo/dvbc/jade_demo_new_geeya/mcf_data_broadcast_3202c//release/lib//liball.a(psi_pat.o)
                0x00000000800feb9c                psi_pat_parser
 .text          0x00000000800fed04      0x968 /d/3202c/prj/app/demo/dvbc/jade_demo_new_geeya/mcf_data_broadcast_3202c//release/lib//liball.a(psi_pmt.o)
                0x00000000800ff328                psi_pmt_parser
                0x00000000800ff424                psi_pmt_get_ecm_pid
 .text          0x00000000800ff66c      0x900 /d/3202c/prj/app/demo/dvbc/jade_demo_new_geeya/mcf_data_broadcast_3202c//release/lib//liball.a(si_sdt.o)
                0x00000000800ffca0                si_sdt_parser
                0x00000000800ffba4                si_sdt_add_priv_descriptor
                0x00000000800fff0c                psi_get_service_type
                0x00000000800ffe10                psi_get_service
 .text          0x00000000800fff6c     0x1860 /d/3202c/prj/app/demo/dvbc/jade_demo_new_geeya/mcf_data_broadcast_3202c//release/lib//liball.a(db_basic_operation.o)
                0x0000000080100218                BO_set_cur_data_sec
                0x00000000801001dc                BO_get_header_sec
                0x0000000080100c74                BO_read_data
                0x0000000080100344                BO_set_sec_list
                0x0000000080100a1c                BO_get_header
                0x00000000801001e8                BO_set_header_sec
                0x0000000080100304                BO_write_sec_info
                0x0000000080100f1c                BO_write_operation
                0x0000000080100144                BO_get_reserve_sec
                0x00000000801000cc                BO_get_free_sector
                0x000000008010020c                BO_get_cur_data_sec
                0x00000000801005f8                BO_get_sec_num
                0x000000008010094c                BO_flash_write
                0x00000000801009fc                BO_set_data_freeaddr
                0x0000000080100ce0                BO_write_data
                0x00000000801009bc                BO_set_head_freeaddr
                0x0000000080101194                BO_init
                0x00000000801009dc                BO_set_header_addr
                0x00000000800fff6c                BO_get_max_logicnum
                0x0000000080101154                BO_get_db_data_space
                0x00000000801002c4                BO_read_sec_info
                0x000000008010177c                BO_reset
                0x0000000080100fd8                BO_erase_sector
 .text          0x00000000801017cc     0x2c40 /d/3202c/prj/app/demo/dvbc/jade_demo_new_geeya/mcf_data_broadcast_3202c//release/lib//liball.a(db_data_object.o)
                0x000000008010359c                DO_v_modify_node
                0x0000000080102190                DO_check_type_node_cnt
                0x00000000801018a0                DO_set_table_node_length
                0x0000000080103890                DO_t_add_node
                0x0000000080102aa0                DO_create_view
                0x00000000801030c4                DO_v_add_node
                0x0000000080101950                DO_get_table_node_length
                0x0000000080103930                DO_check_node_changed
                0x000000008010367c                DO_v_move_node
                0x00000000801031c8                DO_v_del_node_by_pos
                0x00000000801020ec                DO_set_update_buf
                0x00000000801020a0                DO_get_db_data_space
                0x0000000080104194                DO_get_cur_view_type
                0x0000000080102c88                DO_read_node
                0x0000000080102108                DO_get_update_buf
                0x00000000801019ec                DO_clear_cmd_buf
                0x0000000080103d34                DO_update_operation
                0x0000000080102d6c                DO_write_node
                0x0000000080101a64                DO_get_cmdbuf_node_len
                0x00000000801041bc                DO_init
                0x0000000080102114                DO_get_node_type
                0x00000000801020c0                DO_regist_packer_unpacker
                0x0000000080104320                DO_clear_db
 .text          0x000000008010440c     0x1360 /d/3202c/prj/app/demo/dvbc/jade_demo_new_geeya/mcf_data_broadcast_3202c//release/lib//liball.a(db_node_api.o)
                0x0000000080104838                DB_add_node_to_table
                0x000000008010555c                DB_get_node_pos
                0x0000000080104c3c                DB_pre_add_node
                0x000000008010446c                DB_create_view
                0x000000008010571c                DB_clear_db
                0x00000000801044a0                DB_update_operation
                0x00000000801047a8                DB_get_node_id_addr_by_pos
                0x000000008010455c                DB_get_node_by_id_from_table
                0x0000000080105134                DB_del_node_by_pos
                0x0000000080104634                DB_get_node_by_pos
                0x000000008010524c                DB_del_node_by_parent_id
                0x00000000801056dc                DB_init
                0x000000008010480c                DB_read_node
                0x0000000080105514                DB_move_node
                0x0000000080105350                DB_del_node_by_parent_id_except_fav_prog
                0x00000000801056fc                DB_get_cur_view_type
                0x0000000080104d9c                DB_add_node
                0x000000008010442c                DB_regist_packer_unpacker
                0x000000008010553c                DB_check_node_changed
                0x000000008010444c                DB_set_update_buf
                0x00000000801046d0                DB_get_node_by_id
                0x0000000080104f3c                DB_modify_node_by_id
                0x00000000801044c0                DB_get_node_by_pos_from_table
                0x000000008010440c                DB_clear_cmd_buf
                0x00000000801055e8                DB_get_node_num
                0x00000000801051ac                DB_del_node_by_id
 .text          0x000000008010576c      0xf94 /d/3202c/prj/app/demo/dvbc/jade_demo_new_geeya/mcf_data_broadcast_3202c//release/lib//liball.a(db_reclaim_ext.o)
                0x00000000801066a8                DB_reclaim
                0x0000000080105d48                DB_reclaim_data
                0x0000000080105b64                DB_reclaim_write_header
                0x000000008010576c                DB_reclaim_operation
 .text          0x0000000080106700      0xc9c /d/3202c/prj/app/demo/dvbc/jade_demo_new_geeya/mcf_data_broadcast_3202c//release/lib//liball.a(gelib_effects.o)
                0x0000000080106700                gelib_win_slideshow
                0x0000000080106f14                gelib_olst_focuslide
                0x0000000080106a8c                gelib_item_focuslide
                0x0000000080106944                gelib_win_fadeout
 .text          0x000000008010739c      0x324 /d/3202c/prj/app/demo/dvbc/jade_demo_new_geeya/mcf_data_broadcast_3202c//release/lib//liball.a(obj_bitmap.o)
                0x000000008010759c                OSD_BitmapKeyMap
                0x000000008010739c                OSD_DrawBitmapCell
                0x00000000801075bc                OSD_BitmapProc
 .text          0x00000000801076c0     0x11f4 /d/3202c/prj/app/demo/dvbc/jade_demo_new_geeya/mcf_data_broadcast_3202c//release/lib//liball.a(obj_list.o)
                0x00000000801082d0                OSD_GetListCount
                0x000000008010846c                OSD_CheckListSelect
                0x0000000080108650                OSD_ListKeyMap
                0x0000000080108310                OSD_SetListContent
                0x00000000801084bc                OSD_DrawListCell
                0x000000008010818c                OSD_SetListCurPoint
                0x000000008010838c                OSD_SetListCurSel
                0x0000000080108174                OSD_SetListPageSize
                0x0000000080107740                OSD_DrawListItem
                0x000000008010833c                OSD_SwitchListSelect
                0x0000000080108120                OSD_SetListVerScrollBar
                0x0000000080108234                OSD_SetListTopPoint
                0x0000000080107d30                OSD_ListMoveCursor
                0x000000008010841c                OSD_SetListCurHide
                0x00000000801082dc                OSD_SetListCount
                0x0000000080108710                OSD_ListProc
                0x00000000801076c0                CheckItem
                0x0000000080108168                OSD_GetListPageSize
                0x0000000080108180                OSD_GetListCurPoint
                0x0000000080108228                OSD_GetListTopPoint
                0x0000000080108320                OSD_SetListStyle
 .text          0x00000000801088b4      0xcd0 /d/3202c/prj/app/demo/dvbc/jade_demo_new_geeya/mcf_data_broadcast_3202c//release/lib//liball.a(obj_matrixbox.o)
                0x0000000080109358                OSD_GetMtrxboxCurPos
                0x0000000080108db4                CheckCell
                0x0000000080108f30                OSD_DrawMatrixBoxCell
                0x000000008010893c                OSD_DrawMatrixBoxItem
                0x0000000080108ef4                OSD_GetMtrxBoxCellLocation
                0x0000000080109364                OSD_SetMtrxboxCurPos
                0x00000000801091dc                OSD_ShiftMatrixBoxSelVer
                0x000000008010901c                OSD_ShiftMatrixBoxSelHor
                0x0000000080109324                OSD_SetMtrxboxCount
                0x00000000801093f8                OSD_MatrixboxProc
                0x0000000080109384                OSD_MatrixboxKeyMap
 .text          0x0000000080109584      0x594 /d/3202c/prj/app/demo/dvbc/jade_demo_new_geeya/mcf_data_broadcast_3202c//release/lib//liball.a(obj_multisel.o)
                0x0000000080109880                OSD_MultiselKeyMap
                0x00000000801098c0                OSD_MultiselProc
                0x0000000080109714                OSD_DrawMultiselCell
 .text          0x0000000080109b18      0xeb8 /d/3202c/prj/app/demo/dvbc/jade_demo_new_geeya/mcf_data_broadcast_3202c//release/lib//liball.a(obj_progressbar.o)
                0x0000000080109b38                OSD_SetProgressBarValue
                0x000000008010a6f4                OSD_ProgressBarKeyMap
                0x0000000080109d94                OSD_DrawProgressBarCell
                0x0000000080109b28                OSD_SetProgressBarRange
                0x0000000080109b18                OSD_SetProgressBarTick
                0x000000008010a7d4                OSD_ProgressBarProc
                0x0000000080109cd0                OSD_DrawProgressBarTick
 .text          0x000000008010a9d0      0x7b8 /d/3202c/prj/app/demo/dvbc/jade_demo_new_geeya/mcf_data_broadcast_3202c//release/lib//liball.a(obj_scrollbar.o)
                0x000000008010b078                OSD_ScrollBarKeyMap
                0x000000008010b084                OSD_ScrollBarProc
                0x000000008010af20                OSD_DrawScrollBarCell
                0x000000008010aadc                GetThumbRect
 .text          0x000000008010b188     0x413c /d/3202c/prj/app/demo/dvbc/jade_demo_new_geeya/mcf_data_broadcast_3202c//release/lib//liball.a(R820C.o)
                0x000000008010cc74                R828_MUX
                0x000000008010d5c0                R828_Muti_Read
                0x000000008010f018                R828_GetRfGain
                0x000000008010ddbc                R828_GPIO
                0x000000008010f270                R828_ReadIMR
                0x000000008010bf94                R828_IMR_Prepare
                0x000000008010de2c                R828_SetStandard
                0x000000008010d6c0                R828_Section
                0x000000008010c234                R828_IMR
                0x000000008010e534                R828_SetFrequency
                0x000000008010b268                R828_Freq_Sel
                0x000000008010b87c                R828_Xtal_Check
                0x000000008010d89c                R828_IMR_Cross
                0x000000008010bf18                R828_InitReg
                0x000000008010edc4                R828_Standby
                0x000000008010d468                R828_CompreStep
                0x000000008010d3f4                R828_CompreCor
                0x000000008010f09c                R828_RfGainMode
                0x000000008010e378                R828_Filt_Cal
                0x000000008010c630                R828_PLL
                0x000000008010d250                R828_IQ_Tree
                0x000000008010b188                R828_Sys_Sel
                0x000000008010b7c4                R828_SysFreq_Sel
                0x000000008010ceec                R828_IQ
                0x000000008010db38                R828_F_IMR
                0x000000008010bd10                R828_Init
 .text          0x000000008010f2c4      0x4f0 /d/3202c/prj/app/demo/dvbc/jade_demo_new_geeya/mcf_data_broadcast_3202c//release/lib//liball.a(irc_6303.o)
                0x000000008010f390                irc_m6303irc_close
                0x000000008010f2c4                irc_m6303irc_init
 .text          0x000000008010f7b4      0xa70 /d/3202c/prj/app/demo/dvbc/jade_demo_new_geeya/mcf_data_broadcast_3202c//release/lib//liball.a(irc_std.o)
                0x0000000080110188                irc_pulse_to_code
 .text          0x0000000080110224       0x8c /d/3202c//sdk/libcore.a(cache.o)
                0x0000000080110250                osal_tds2_cache_flush
                0x0000000080110224                osal_tds2_cache_flush_all
                0x0000000080110280                osal_tds2_cache_invalidate
 .text          0x00000000801102b0      0xa10 /d/3202c//sdk/libcore.a(tds_mips.o)
                0x0000000080110a74                IRQ_DisableInterrupt
                0x0000000080110c24                t2os_setjmp
                0x00000000801107b0                FirstDispatch
                0x0000000080110c58                t2os_longjmp
                0x0000000080110be8                set_stack
                0x00000000801102b0                INT_General_Exception_Hdlr
                0x0000000080110c94                read_tsc
                0x0000000080110ab8                IRQ_EnableInterrupt
                0x0000000080110b48                SetupTimerStack
                0x0000000080110ba0                fill_stack
                0x0000000080110af0                SetupTaskStack
                0x00000000801108a8                IntDispatch1
                0x0000000080110780                SysTimerInit
 .text          0x0000000080110cc0      0xc0c /d/3202c//sdk/libcore.a(power_down_detect.o)
                0x0000000080111604                pdd_polling
                0x00000000801115a0                pdd_register_dev
                0x0000000080110eb8                pdd_init
                0x0000000080110da8                pdd_palert_lsr
                0x0000000080110cc0                pdd_pok_lsr
 .text          0x00000000801118cc     0x1ce4 /d/3202c//sdk/libcore.a(sgdma_m36.o)
                0x000000008011317c                dma_poll
                0x0000000080111e54                sgdma_alloc_ch_mem
                0x0000000080112ed0                dma_wait
                0x0000000080112944                dma_close
                0x0000000080111ad0                sgdma_sync
                0x0000000080111b18                sgdma_isr
                0x0000000080111f38                sgdma_wait_nonsharable_ch_by_polling
                0x0000000080112af4                dma_copy
                0x0000000080111ffc                dma_init
                0x0000000080112330                dma_open
                0x00000000801132f4                dma_get_start_code
                0x0000000080111bdc                sgdma_init_regs
                0x0000000080111d44                sgdma_alloc_sc_mem
 .text          0x00000000801135b0      0x9f0 /d/3202c//sdk/libcore.a(sgdma_m36_reg.o)
                0x0000000080113f04                sgdma_sc_ovflw_status
                0x00000000801136a4                sgdma_set_lst_rd_ptr
                0x000000008011361c                sgdma_set_lst_dis_mode
                0x00000000801135b0                sgdma_set_lst_base
                0x00000000801135ec                sgdma_set_lst_size
                0x00000000801137d4                sgdma_set_sc_base
                0x0000000080113908                sgdma_set_sc_wr_ptr
                0x0000000080113ba8                sgdma_en_lst_desp_irq
                0x0000000080113c50                sgdma_en_lst_empty_irq
                0x0000000080113f50                sgdma_clr_sc_ovflw_status_bymsk
                0x00000000801138b0                sgdma_set_sc_rd_ptr
                0x0000000080113de0                sgdma_get_lst_wr_ptr
                0x0000000080113e10                sgdma_dma_start
                0x0000000080113d28                sgdma_set_lst_wr_ptr
                0x0000000080113a94                sgdma_en_sc_ovflw
                0x0000000080113e64                sgdma_is_dma_busy
                0x0000000080113960                sgdma_en_sc
                0x0000000080113eb0                sgdma_get_sc_wr_ptr
                0x0000000080113b38                sgdma_clr_sc_ovflw_status
                0x0000000080113810                sgdma_set_sc_size
                0x00000000801139f4                sgdma_set_sc_range
                0x000000008011375c                sgdma_en_lst
                0x0000000080113cf8                sgdma_get_lst_rd_ptr
 .text          0x0000000080113fa0      0x170 /d/3202c//sdk/libcore.a(tsi_m3202.o)
                0x0000000080113fa0                tsi_m3202_mode_set
                0x0000000080114084                tsi_m3202_select
 .text          0x0000000080114110      0x6a8 /d/3202c//sdk/libcore.a(deca_m33_dolby.o)
                0x00000000801144f4                deca_m33_dolby_decoder_init
                0x00000000801141dc                deca_m33_decode_ac3_frame
                0x0000000080114620                deca_m33_dolby_decoder_io_control
                0x0000000080114198                deca_m33_set_ac3mode
                0x0000000080114110                deca_m33_audiostream_decoder_count
                0x0000000080114774                deca_dolby_decode_enable
                0x0000000080114150                deca_m33_get_audiostream_decoder
 .text          0x00000000801147b8      0x3c0 /d/3202c//sdk/libcore.a(deca_m33_init_ext.o)
                0x00000000801147b8                deca_m33_open_ext
                0x00000000801149b4                deca_m33_attach
 .text          0x0000000080114b78      0x5bc /d/3202c//sdk/libcore.a(deca_m33_tone.o)
                0x00000000801150d0                deca_init_tone_voice
                0x0000000080114b78                deca_m33_tone_voice
                0x00000000801150ac                deca_m33_stop_tone_voice
                0x0000000080114d9c                deca_tone_voice_2ch
 .text          0x0000000080115134      0x38c /d/3202c//sdk/libcore.a(feature_extra_dv.o)
                0x00000000801154a0                vdec_enable_extra_dview_feature
                0x0000000080115134                sw_scale
 .text          0x00000000801154c0     0x17f0 /d/3202c//sdk/libcore.a(sw_scale.o)
                0x0000000080116a24                gen_ruler
 .text          0x0000000080116cb0    0x12ea8 /d/3202c//sdk/libcore.a(vdec_m3327.o)
                0x00000000801172fc                vdec_hal_iqm
                0x000000008011fbb4                vdec_m3327_de_mp_request_ext
                0x000000008011a564                vdec_dview_decision
                0x0000000080122874                vdec_m3327_de_pip_release
                0x00000000801225f8                vdec_m3327_de_pip_request_ext
                0x0000000080118c9c                vdec_vbv_next_header_code_sc
                0x0000000080116d98                vdec_de_enable_extra_win
                0x0000000080119904                vdec_vbv_tmp_next_byte
                0x0000000080116cbc                vdec_sw_scale_task
                0x00000000801185cc                vdec_queue_next
                0x000000008011f95c                vdec_entry_dmx_update
                0x00000000801228c0                vdec_m3327_dettach
                0x0000000080117394                vdec_sequenceheader_action
                0x0000000080122d7c                vdec_m3327_start
                0x00000000801183d8                vdec_queue_push
                0x000000008011ec00                vdec_judge_error_level
                0x0000000080118bd4                vdec_sc_next
                0x0000000080119660                vdec_vbv_tmp_reset
                0x0000000080122688                vdec_m3327_de_pip_release_ext
                0x00000000801257f4                vdec_m3327_switch_pip
                0x0000000080119880                vdec_vbv_tmp_next_word
                0x000000008011776c                vdec_frm_malloc_other
                0x000000008011ab18                vdec_reset_ve_hw
                0x00000000801192dc                vdec_vbv_next_start_code
                0x0000000080117008                vdec_hal_get_status
                0x0000000080117240                vdec_hal_deve_same_pic
                0x000000008011a978                vdec_into_ind_mp_action
                0x0000000080117764                vdec_frm_malloc_2M
                0x0000000080116d64                vdec_de_hal_get_win_onoff
                0x0000000080118794                vdec_queue_update
                0x0000000080117040                vdec_hal_vld_config_data
                0x00000000801196c4                vdec_vbv_tmp_read_dword
                0x000000008011999c                vdec_get_stc
                0x0000000080120694                vdec_m3327_de_mp_release_ext
                0x0000000080117e10                vdec_frm_status_reset
                0x000000008011ded8                vdec_continue_picture
                0x0000000080119a4c                vdec_set_stc
                0x0000000080123560                vdec_m3327_stop
                0x000000008011fae4                vdec_m3327_de_hw_using
                0x00000000801173d0                vdec_pictureheader_action
                0x0000000080119674                vdec_vbv_tmp_update_read_p
                0x0000000080126094                vdec_dbg_run_check_info
                0x000000008011c5fc                vdec_new_picture_3
                0x0000000080123a34                vdec_m3327_ioctl
                0x0000000080116cb0                vdec_set_force_sync
                0x000000008011a970                vdec_into_preview_action
                0x00000000801171b0                vdec_hal_frmbuf_addr
                0x000000008011f9f8                vdec_entry_de_release_frm
                0x0000000080119ac8                SwScale_FillBlack
                0x0000000080122830                vdec_m3327_de_pip_request
                0x0000000080119394                vdec_vbv_response_hw_update
                0x0000000080119964                vdec_avsync_reset
                0x000000008011df70                vdec_vbv_config
                0x0000000080117294                vdec_hal_dview_addr
                0x000000008011aa20                vdec_into_ind_pip_action
                0x0000000080122790                vdec_m3327_de_bg_request
                0x0000000080125af4                decv_request_write_2
                0x0000000080117c9c                vdec_frm_malloc_sec_dev
                0x0000000080118a64                vdec_sc_init
                0x0000000080122c94                vdec_m3327_close
                0x0000000080117eec                vdec_frm_set_status
                0x0000000080119300                vdec_parse_update
                0x0000000080117030                vdec_hal_set_status
                0x00000000801209a4                vdec_m3327_de_bg_release_ext
                0x00000000801183b0                vdec_queue_reset
                0x0000000080119744                vdec_vbv_tmp_read_dword_n
                0x000000008011a624                vdec_into_dview_action
                0x0000000080118184                vdec_fill_logo_rect
                0x00000000801209bc                vdec_m3327_de_pip_request_hw_pip
                0x0000000080116e6c                vdec_hal_write_frm_addr
                0x0000000080118b10                vdec_sc_write
                0x0000000080116d2c                vdec_sw_scale_hsr
                0x00000000801195d8                vdec_vbv_update_read_p
                0x0000000080118684                vdec_queue_pop
                0x000000008011fa8c                vdec_entry_de_consume_frm
                0x00000000801197cc                vdec_vbv_tmp_next_dword
                0x000000008011f1bc                vdec_m3327_isr
                0x0000000080120768                vdec_m3327_de_bg_request_ext
                0x000000008011abfc                vdec_new_picture_4
                0x0000000080117340                vdec_hal_deve_same_buff
                0x0000000080125a2c                vdec_m3327_extrawin_store_last_pic
                0x0000000080122918                vdec_m3327_open
                0x0000000080116f44                vdec_hal_switch_register
                0x000000008012226c                vdec_m3327_de_pip_request_without_extra_dv
                0x0000000080125e28                decv_update_write_2
                0x000000008011ab94                vdec_new_picture
                0x0000000080118c24                vdec_sc_update
                0x0000000080118c60                vdec_vbv_reset
                0x00000000801226f0                vdec_m3327_de_mp_request
                0x0000000080122734                vdec_m3327_de_mp_release
                0x0000000080125908                vdec_m3327_switch_pip_ext
                0x000000008012157c                vdec_m3327_de_pip_request_with_extra_dv
                0x00000000801257d8                vdec_m3327_sync_mode
                0x000000008011a21c                vdec_into_mp_action
                0x000000008011905c                vdec_vbv_next_header_code
                0x00000000801227d4                vdec_m3327_de_bg_release
                0x0000000080125228                vdec_m3327_set_output
                0x000000008011a5cc                vdec_dview_decision_pip
                0x0000000080116fc4                vdec_hal_picture_mode
                0x0000000080117f54                vdec_frm_fill_frm
 .text          0x0000000080129b58      0x7d8 /d/3202c//sdk/libcore.a(vdec_m3327_init_ext.o)
                0x0000000080129c5c                vdec_m33_attach
                0x0000000080129ff0                vdec_m33e_attach
                0x0000000080129b58                vdec_m3327_get_mem_info
 .text          0x000000008012a330     0x34c4 /d/3202c//sdk/libcore.a(tv_enc.o)
                0x000000008012d7b8                tve_set_vbi_startline
                0x000000008012a86c                tve_init
                0x000000008012d608                tve_write_wss
                0x000000008012d71c                tve_half_current_mode_on
                0x000000008012d32c                tve_unregister_dac
                0x000000008012a860                tve_advance_config
                0x000000008012d628                tve_write_cc
                0x000000008012d7cc                tve_component_upsampling
                0x000000008012d7ec                sub_sdhd_write_cc_data
                0x000000008012b58c                tve_set_tvsys
                0x000000008012a76c                tve_config
                0x000000008012d750                tve_enable_vbi
                0x000000008012d6d4                tve_cc_onoff
                0x000000008012d674                tve_write_ttx
                0x000000008012c52c                tve_register_dac
 .text          0x000000008012d7f4      0x328 /d/3202c//sdk/libcore.a(vpo_m3327_init_ext.o)
                0x000000008012db10                vpo_set_logo_switch
                0x000000008012d7f4                vpo_m33_attach
 .text          0x000000008012db1c       0x50 /d/3202c//sdk/libcore.a(dmx_m33_api_ext.o)
                0x000000008012db1c                dmx_m33_attach
 .text          0x000000008012db6c      0xad8 /d/3202c//sdk/libcore.a(dmx_m33_ca.o)
                0x000000008012db6c                DmxCsaApiShow
                0x000000008012e008                dmx_pid_validity_notify
                0x000000008012e084                dmx_m33_ca_ioctl
                0x000000008012dfa8                dmx_set_csa_conform
                0x000000008012dc98                dmx_m33_set_ocw
                0x000000008012e5bc                dmx_ca_enable
                0x000000008012dbb4                dmx_m33_set_ecw
                0x000000008012dd20                dmx_m33_get_ocw
                0x000000008012dc3c                dmx_m33_get_ecw
                0x000000008012dd7c                dmx_m33_cfg_cw
 .text          0x000000008012e644      0xfa0 /d/3202c//sdk/libcore.a(dmx_m33_dbg.o)
                0x000000008012f590                dmx_m33_dbg_disable
                0x000000008012e798                DmxAvSyncShow
                0x000000008012f584                dmx_m33_set_debug_level
                0x000000008012e938                DmxShowHwRegValue
                0x000000008012eb14                DmxShowTsStatistics
                0x000000008012ea10                DmxShowGlobalStatistics
                0x000000008012f108                dmx_m33_get_flt_err_code
                0x000000008012f4f8                dmx_m33_dbg_enable
                0x000000008012f2a8                dmx_m33_debug_task
                0x000000008012f578                dmx_m33_debug_set_interval
                0x000000008012f5d0                dmx_m33_set_debug_show_function
                0x000000008012e644                DmxDumpOutputData
                0x000000008012e7ec                DmxShowHwPidMaskValue
                0x000000008012ec28                DmxShowChStatistics
 .text          0x000000008012f5e4      0x374 /d/3202c//sdk/libcore.a(dmx_m33_dma.o)
                0x000000008012f5e4                dmx_finish_prev_dma
                0x000000008012f820                dmx_m33_set_dma_channel_to_vdec
                0x000000008012f650                dmx_get_dma_ch
                0x000000008012f8f8                dmx_m33_dma_enable
                0x000000008012f73c                dmx_release_dma_ch
                0x000000008012f898                dmx_m33_dma_ioctl
 .text          0x000000008012f958     0x3b7c /d/3202c//sdk/libcore.a(dmx_m33_pes.o)
                0x0000000080130394                dmx_m33_pes_locate_payload
                0x000000008012f958                DmxEsBufReturn
                0x000000008012fa84                dmx_m33_dbg_pes_ctrl_print
                0x0000000080132238                dmx_m33_pes_ioctl
                0x000000008012f9c8                DmxSetAvSyncMode
                0x0000000080131924                dmx_m33_parse_pes
                0x0000000080132074                dmx_m33_unregister_service
                0x0000000080133404                dmx_m33_pes_enable
                0x000000008012fac8                dmx_m33_is_av_scrambled
                0x000000008013030c                dmx_m33_reset_pes_param
                0x000000008012fa24                dmx_m33_dbg_pes_data_print
                0x0000000080130148                dmx_m33_is_av_source_scrambled
                0x0000000080130d98                dmx_m33_parse_pes_header
                0x00000000801304a8                dmx_m33_copy_es_data
                0x000000008012fd38                dmx_m33_is_av_scrambled_ext
                0x000000008013027c                dmx_m33_stream_type
                0x0000000080131e4c                dmx_m33_register_service
 .text          0x00000000801334d4     0x101c /d/3202c//sdk/libcore.a(dmx_m33_reg.o)
                0x0000000080133c00                dmx_m33_set_ram
                0x00000000801342dc                dmx_m33_get_read
                0x0000000080134380                dmx_m33_get_write
                0x00000000801334d4                dmx_m33_is_dma_running
                0x0000000080133a80                dmx_m33_bypass_all
                0x0000000080133ae0                dmx_m33_en_filter
                0x0000000080133a08                dmx_m33_en_dcw
                0x00000000801339cc                dmx_m33_en_dmx
                0x0000000080133abc                dmx_m33_err_polar
                0x000000008013432c                dmx_m33_set_read
                0x0000000080133e00                dmx_m33_get_dcw
                0x000000008013428c                dmx_m33_set_united_buff
                0x0000000080133e18                dmx_m33_set_divided_buff
                0x0000000080133b70                dmx_m33_en_des
                0x00000000801335f0                dmx_m33_reset_all
                0x0000000080133de0                dmx_m33_set_dcw
                0x0000000080134460                dmx_m33_en_overlap
                0x00000000801339a8                dmx_m33_set_sync
                0x0000000080133cf4                dmx_m33_get_ram
                0x00000000801343d0                dmx_m33_en_threshold
                0x0000000080133a44                dmx_m33_bypass_des
 .text          0x00000000801344f0     0x1d04 /d/3202c//sdk/libcore.a(dmx_m33_sec.o)
                0x00000000801344f0                dmx_m33_build_multi_hit_linklist
                0x0000000080134970                dmx_m33_sec_hit
                0x000000008013604c                dmx_m33_sec_ioctl
                0x0000000080134d40                dmx_m33_parse_sec
                0x0000000080135c30                dmx_m33_async_get_section
                0x0000000080135dd4                dmx_m33_async_poll
                0x0000000080134c30                dmx_m33_sec_locate_payload
                0x00000000801347d0                dmx_m33_reset_sec_param
                0x000000008013614c                dmx_m33_sec_enable
                0x0000000080135958                dmx_m33_get_section
                0x0000000080135e3c                dmx_m33_async_close
                0x0000000080135fc0                dmx_m33_async_abort
                0x0000000080134d34                DmxShowSecBuf
                0x00000000801348c4                dmx_m33_return_filter
                0x0000000080134800                dmx_m33_req_filter
 .text          0x00000000801361f4      0xa88 /d/3202c//sdk/libcore.a(dmx_m33_stc.o)
                0x0000000080136288                dmx_m33_pcr_reliable
                0x00000000801361f4                dmx_m33_compare
                0x00000000801364a8                dmx_m33_adjust_stc
                0x000000008013690c                dmx_m33_select_pcr_channel
                0x0000000080136a48                dmx_check_actual_pcr_ch
 .text          0x0000000080136c7c     0x3054 /d/3202c//sdk/libcore.a(ge_m33.o)
                0x0000000080137cf4                ge_m33e_enable_16M
                0x00000000801382f4                ge_m33_detach
                0x0000000080136fa0                ge_hal_29e_set_pal_idx
                0x0000000080137c10                ge_29e_show_onoff
                0x0000000080136c7c                ge_hal_29e_VFilter
                0x0000000080138388                gma_pixel_fmt_convt_29e
                0x0000000080137358                ge_29e_get_pallette
                0x00000000801386bc                ge_hal_29e_global_alpha
                0x0000000080136cb4                ge_hal_29e_set_gma
                0x000000008013701c                ge_hal_32c_set_gma
                0x0000000080138508                get_gma_pix_ext_mode
                0x00000000801373dc                ge_29e_modify_pallette
                0x00000000801385cc                gma_pixel_fmt_convt_32c
                0x0000000080137d1c                ge_m33_attach
                0x0000000080137274                ge_29e_set_pallette
                0x0000000080137548                ge_29e_ioctl
 .text          0x0000000080139cd0     0x51c8 /d/3202c//sdk/libcore.a(osd_s3601.o)
                0x000000008013a32c                osd_hal_VFilter_29e
                0x000000008013b11c                osd_s3601_ioctl
                0x000000008013a2bc                convert_to_ge_pixel
                0x000000008013ae78                osd_s3601_open
                0x000000008013eb08                osd_s36_attach
                0x000000008013c7ac                osd_s3601_get_region_pos
                0x000000008013b56c                osd_s3601_set_pallette
                0x0000000080139ed4                get_rect_out_clip
                0x000000008013ee74                osd_hal_disable_AntiFlicker
                0x000000008013d360                osd_s3601_region_write2
                0x000000008013ee34                osd_s3601_detach
                0x000000008013d608                osd_s3601_draw_hor_line
                0x000000008013b05c                osd_s3601_close
                0x000000008013b6bc                osd_s3601_modify_pallette
                0x000000008013a364                osd_hal_p2n_onoff_29e
                0x000000008013d758                osd_s3601_scale
                0x000000008013b430                osd_s3601_get_para
                0x000000008013ccdc                osd_s3601_region_read
                0x000000008013b62c                osd_s3601_get_pallette
                0x000000008013b498                osd_s3601_show_onoff
                0x000000008013b724                osd_s3601_create_region
                0x000000008013ea3c                osd_s3601_clear_clip
                0x000000008013a3ac                osd_hal_af_29e
                0x000000008013c318                osd_s3601_set_region_pos
                0x000000008013d02c                osd_s3601_region_fill
                0x000000008013a8dc                osd_rect_scale
                0x000000008013e934                osd_s3601_set_clip
                0x000000008013c7e8                osd_s3601_region_write
                0x0000000080139cd0                get_rect_in_clip
                0x000000008013eaa8                osd_s3601_get_region_addr
                0x000000008013b4d8                osd_s3601_region_showonoff
                0x000000008013a47c                osd_hal_af_par_29e
                0x000000008013c1c8                osd_s3601_delete_region
 .text          0x000000008013ee98      0x37c /d/3202c//sdk/libcore.a(snd_m33_init_ext.o)
                0x000000008013ee98                snd_m33_attach
 .text          0x000000008013f214      0x2f4 /d/3202c//sdk/libcore.a(snd_m33_reg.o)
                0x000000008013f474                snd_m33_get_divisor
                0x000000008013f4d4                snd_m33_invalid_stc
                0x000000008013f2e0                snd_m33_en_dma
                0x000000008013f4a4                snd_m33_set_divisor
                0x000000008013f36c                snd_m33_get_stc
                0x000000008013f2a0                snd_m33_get_pts
                0x000000008013f214                snd_m33_set_music_volume
                0x000000008013f3dc                snd_m33_set_stc
                0x000000008013f4ec                snd_m33_valid_stc
                0x000000008013f308                snd_m33_stc_pause
 .text          0x000000008013f508      0x868 /d/3202c//sdk/libcore.a(snd_m33_spectrum.o)
                0x000000008013fd00                snd_init_spectrum
                0x000000008013fb24                snd_spectrum_cmd
                0x000000008013f980                snd_spectrum_clear
                0x000000008013f920                snd_spectrum_enter
                0x000000008013fa78                snd_spectrum_fft
                0x000000008013fa14                snd_spectrum_set_step
                0x000000008013fa08                snd_spectrum_quit
                0x000000008013fbe0                snd_spectrum_run
 .text          0x000000008013fd70      0xf6c /d/3202c//sdk/libcore.a(snd_m33_tone.o)
                0x00000000801407d4                snd_m33_gen_tone_voice2
                0x0000000080140c28                snd_init_tone_voice
                0x0000000080140b78                snd_m33_stop_tone_voice2
                0x00000000801405fc                beep_tone_task
                0x000000008013fd70                snd_m33_gen_tone_voice
                0x00000000801403d4                snd_m33_stop_tone_voice
 .text          0x0000000080140cdc      0x668 /d/3202c//sdk/libcore.a(flag.o)
                0x0000000080141110                OS_WaitFlagTimeOut
                0x0000000080140d74                OS_CreateFlag
                0x0000000080140e60                OS_DelFlag
                0x000000008014105c                OS_ClearFlag
                0x0000000080140f0c                OS_SetFlag
                0x0000000080140cdc                eventflag_initialize
 .text          0x0000000080141344      0x144 /d/3202c//sdk/libcore.a(hsr.o)
                0x0000000080141420                OS_RegisterHSR
                0x0000000080141384                OS_CreateHSRTask
                0x0000000080141344                HSR_Proc_Main
 .text          0x0000000080141488      0x5d4 /d/3202c//sdk/libcore.a(Interrupt.o)
                0x000000008014158c                ISRCBAdd
                0x00000000801414b4                OS_EnableInterrupt
                0x0000000080141964                irq_clear_ext_im
                0x0000000080141994                irq_initialize
                0x00000000801417e0                irq_set_im
                0x0000000080141938                irq_set_ext_im
                0x0000000080141550                ISRCBListWork
                0x0000000080141544                ISRCBFree
                0x000000008014163c                OS_DeleteISR
                0x0000000080141724                OS_RegisterISR
                0x00000000801414ec                ISRCBAlloc
                0x000000008014184c                irq_clear_im
                0x00000000801415b8                ISRCBDel
                0x0000000080141488                OS_DisableInterrupt
 .text          0x0000000080141a5c      0x19c /d/3202c//sdk/libcore.a(irq.o)
                0x0000000080141a68                ref_ie
                0x0000000080141a7c                irq_handler
                0x0000000080141a5c                check_inside_isr
 .text          0x0000000080141bf8      0xf18 /d/3202c//sdk/libcore.a(mbuffer.o)
                0x00000000801421a4                OS_DelMessageBuffer
                0x0000000080142800                i_snd_hsr_mbf
                0x0000000080141fac                OS_CreateMsgBuffer
                0x0000000080141e80                cre_mbf
                0x00000000801424f8                OS_GetMsgTimeOut
                0x0000000080141bf8                messagebuffer_initialize
                0x0000000080142784                OS_PeekMessage
                0x00000000801420f0                OS_ClearMsgBuffer
                0x00000000801424a8                OS_SendMessage
                0x000000008014275c                OS_GetMessage
                0x00000000801424d0                OS_PostMessage
                0x000000008014298c                i_rcv_hsr_mbf
                0x00000000801427ac                OS_MBF_Empty
                0x0000000080142274                OS_SendMsgTimeOut
 .text          0x0000000080142b10      0x470 /d/3202c//sdk/libcore.a(mutex.o)
                0x0000000080142dbc                OS_LockMutex
                0x0000000080142ccc                OS_DeleteMutex
                0x0000000080142ee8                OS_UnlockMutex
                0x0000000080142bf4                OS_CreateMutex
                0x0000000080142b10                mutex_initialize
 .text          0x0000000080142f80      0x11c /d/3202c//sdk/libcore.a(queue.o)
                0x0000000080142f90                queue_insert_tpri
                0x0000000080142f80                queue_initialize
                0x0000000080142fe0                queue_insert
                0x0000000080143000                queue_delete
                0x000000008014305c                queue_empty_p
 .text          0x000000008014309c      0x68c /d/3202c//sdk/libcore.a(sched_mq.o)
                0x0000000080143184                msbit
                0x000000008014309c                setbit
                0x00000000801430c4                clrbit
                0x0000000080143558                get_top_pri
                0x000000008014357c                dec_dsp_cnt
                0x000000008014311c                ClrInternalPri
                0x0000000080143338                increase_task_pri
                0x0000000080143678                OutDspState
                0x00000000801430f0                SetInternalPri
                0x0000000080143248                modify_priority
                0x000000008014362c                OS_DisableDispatch
                0x00000000801434a0                rdy_del
                0x0000000080143148                lsbit
                0x0000000080143214                sched_init
                0x000000008014339c                decrease_task_pri
                0x00000000801435a0                OS_EnableDispatch
                0x0000000080143428                rdy_add
 .text          0x0000000080143728      0x4e8 /d/3202c//sdk/libcore.a(semapho.o)
                0x0000000080143728                semaphore_initialize
                0x0000000080143984                OS_DelSemaphore
                0x00000000801437b8                cre_sem
                0x0000000080143a1c                OS_FreeSemaphore
                0x0000000080143aec                OS_AcquireSemaphoreTimeOut
                0x0000000080143880                OS_CreateSemaphore
 .text          0x0000000080143c10      0x7a8 /d/3202c//sdk/libcore.a(task.o)
                0x0000000080143f6c                OS_SuspendThread
                0x00000000801441d0                OS_FResumeThread
                0x00000000801440ac                OS_ResumeThread
                0x00000000801442fc                OS_Exit
                0x0000000080143c10                dly_tsk
                0x0000000080143f2c                OS_GetCurrentThreadID
                0x0000000080143e54                OS_CreateThread
                0x0000000080143c7c                del_tsk
                0x00000000801442d8                OS_LeaveCriticalSection
                0x0000000080143e30                OS_DeleteThread
                0x0000000080144290                OS_EnterCriticalSection
                0x0000000080143d7c                i_start_thread
 .text          0x00000000801443b8      0x5bc /d/3202c//sdk/libcore.a(taskc.o)
                0x000000008014494c                task_end
                0x00000000801445f8                make_ready
                0x0000000080144514                i_cre_tsk
                0x00000000801447fc                chg_pri
                0x000000008014467c                make_wait
                0x0000000080144754                wait_release_ok
                0x0000000080144780                wait_delete
                0x0000000080144708                wait_release
                0x00000000801448ec                look_thdid
                0x00000000801447dc                wait_tskid
                0x00000000801443b8                task_initialize
 .text          0x0000000080144974      0x470 /d/3202c//sdk/libcore.a(tds.o)
                0x0000000080144ad8                _INIT_M3701x
                0x0000000080144d88                CreateMainTask
                0x0000000080144c24                _INIT
                0x000000008014497c                sum_check
                0x0000000080144d68                TDS_Main
 .text          0x0000000080144de4      0x7e4 /d/3202c//sdk/libcore.a(timeout.o)
                0x00000000801455c0                timer_end
                0x00000000801452ec                OS_DeleteTimer
                0x0000000080144dfc                OS_Delay
                0x0000000080144e64                cyclic_handler
                0x0000000080145400                OS_SetTimer
                0x0000000080144de4                OS_GetTime
                0x0000000080145194                OS_CreateTimer
                0x0000000080144df0                OS_GetTickCount
                0x0000000080144f34                alarm_handler
                0x00000000801454f8                OS_ActivateTimer
 .text          0x00000000801455c8      0x59c /d/3202c//sdk/libcore.a(timerc.o)
                0x000000008014573c                inc_time_cnt
                0x0000000080145a88                print_info
                0x00000000801459dc                timer_delete
                0x00000000801458d4                timer_insert_abs
                0x0000000080145ad8                IntDispatch
                0x0000000080145964                timer_insert_rel
                0x00000000801455c8                InitTimer
                0x00000000801455f8                update_systime
                0x0000000080145b04                cal_tmout
 .text          0x0000000080145b64       0x10 /d/3202c//sdk/libcore.a(version.o)
                0x0000000080145b64                get_core_ver
 *fill*         0x0000000080145b74 0x6ef1700000000c
 .text          0x0000000080145b80       0x20 /d/3202c//sdk/libcore.a(mips_suspend.o)
                0x0000000080145b80                cpu_suspend
 .text          0x0000000080145ba0      0x4d0 /d/3202c//sdk/libcore.a(scale.o)
                0x0000000080145ba0                luma_scale
 .text          0x0000000080146070      0x4e0 /d/3202c//sdk/libcore.a(scale_c.o)
                0x0000000080146070                chroma_scale
 .text          0x0000000080146550      0x2a0 /d/3202c//sdk/libcore.a(Sched.o)
                0x0000000080146630                sched
                0x0000000080146690                timer_irq
                0x0000000080146550                OS_TaskDispatch
 .text          0x00000000801467f0     0x57d4 /d/3202c//sdk/libcore.a(deca_m33.o)
                0x0000000080146904                deca_m33_parse_bsmod
                0x0000000080147ed4                deca_m33_update_write
                0x00000000801470b0                deca_m33_sync_aac_frame
                0x0000000080147be8                deca_m33_pause
                0x00000000801495f4                deca_m33_ioctl
                0x0000000080147994                deca_m33_stop
                0x0000000080149528                deca_m33_decode_task
                0x00000000801478c8                deca_m33_start
                0x00000000801467f0                deca_m33_sprt_chg
                0x00000000801470a4                deca_m33_sync_dts_frame
                0x0000000080149a14                deca_m33_detach
                0x00000000801478b4                deca_m33_set_sync_mode
                0x000000008014806c                deca_m33_spdif_bypass_ac3_frame
                0x000000008014bf8c                deca_m33_pcm_bs_process
                0x0000000080148a50                deca_m33_decode_input
                0x0000000080148408                deca_m33_request_read
                0x000000008014814c                deca_m33_decode_mpeg_frame
                0x0000000080148238                deca_m33_decode_init
                0x0000000080146888                deca_m33_skip_cb
                0x000000008014783c                deca_m33_buf_resume
                0x0000000080146994                deca_m33_sync_ac3_frame
                0x00000000801499ac                deca_m33_close
                0x0000000080147868                deca_m33_reset_bs_buff
                0x000000008014bf54                deca_m33_pcm_process
                0x0000000080148114                deca_m33_spdif_bypass_aac_frame
                0x00000000801480dc                deca_m33_spdif_bypass_dts_frame
                0x0000000080147fac                deca_m33_decode_error
                0x00000000801468d8                deca_m33_remain_data
                0x0000000080148d44                deca_m33_decode_output
                0x0000000080147cd8                deca_m33_request_write
                0x00000000801470bc                deca_m33_sync_mpeg_frame
                0x0000000080147800                deca_m33_data_resume
 .text          0x000000008014bfc4      0xb9c /d/3202c//sdk/libcore.a(deca_m33_ase.o)
                0x000000008014c504                deca_m33_ase_task
                0x000000008014c414                deca_m33_stream_resume
                0x000000008014c39c                deca_m33_stream_pause
                0x000000008014c94c                deca_m33_ase_cmd
                0x000000008014cab0                deca_m33_init_ase
                0x000000008014c254                deca_m33_stream_play
                0x000000008014bfc4                deca_m33_ase_play
                0x000000008014c48c                deca_m33_stream_stop
 .text          0x000000008014cb60     0xb8a0 /d/3202c//sdk/libcore.a(vpo_driver.o)
                0x000000008015711c                vp_hal_pip_config_address
                0x000000008014cdf8                vpo_m3327_close
                0x000000008014fee8                vp_sub_ScaleHSR
                0x0000000080155f18                vp_WriteWord
                0x0000000080157f3c                dvi_hal_ClearPendingBit
                0x0000000080156660                vp_hal_MP_VerOffset
                0x0000000080157a64                dvi_656flag_Enable
                0x000000008014f184                tve_sub_ResetHW
                0x0000000080157b44                dvi_hal_Playback
                0x0000000080154ff4                vp_sub_Case_SingleOption
                0x000000008014e240                VPO_ISR
                0x0000000080157194                vp_hal_pip_config_position
                0x0000000080156424                vp_hal_MP_Addr
                0x00000000801568e4                vp_hal_OpenADPCM
                0x000000008014e1dc                vpo_m3327_get_case_idx
                0x0000000080156724                vp_hal_BackGround
                0x000000008014ee9c                VP_ISR_VBlanking
                0x0000000080155088                vp_sub_FetchMode_Vp
                0x00000000801578d0                vp_hal_gma_layer_blend_order_init
                0x0000000080157a24                dvi_WriteDword
                0x000000008015607c                vp_hal_InitReg
                0x0000000080155004                vp_sub_Case_FieldBased
                0x00000000801569bc                vp_hal_Win_OnOff
                0x0000000080157eec                dvi_hal_DisEnableInterrupt
                0x000000008014f8c4                vp_sub_CheckVPScanMode
                0x00000000801574b8                vp_hal_enhance_write
                0x00000000801553e0                vp_sub_MP
                0x000000008014d634                vpo_m3327_tvsys
                0x0000000080157da0                dvi_hal_Others
                0x000000008015476c                vp_sub_CaculateScale
                0x0000000080155f48                vp_ReadDword
                0x0000000080157aa0                dvi_Init
                0x000000008014f948                vp_sub_ResponseAPI
                0x0000000080154f68                vp_sub_NeedNewFrame
                0x0000000080157dec                dvi_hal_EnableInterrupt_I
                0x00000000801564b4                hal_sdhd_rd_mp_addr
                0x000000008015728c                vp_hal_pip_config_dis_scale_filter
                0x000000008014d14c                vpo_m3327_config_source_window
                0x000000008014cf04                vpo_m3327_win_onoff
                0x000000008015796c                hal_sdhd_get_mp_info
                0x0000000080152054                vp_sub_zoom
                0x00000000801571ec                vp_hal_pip_config_mode
                0x000000008014ff70                vp_sub_GetScalePara
                0x00000000801573e4                vp_hal_enhance_enable
                0x0000000080157334                vp_hal_pip_config_dit_mode
                0x0000000080157fe8                dvi_hal_ConfigOutput
                0x0000000080156840                vp_hal_FilterMode
                0x0000000080155118                vp_sub_PIP
                0x00000000801565c8                hal_sdhd_mp_addr
                0x000000008014f324                vp_sub_InitGlobal_pip
                0x000000008014cbb4                vpo_m3327_open
                0x000000008014f2b8                vp_sub_GetSrcMode
                0x0000000080156ac0                vp_hal_MP_FetchMode
                0x0000000080157090                vp_hal_pip_config_index_read
                0x0000000080157e40                dvi_hal_EnableInterrupt_P
                0x00000000801572e0                vp_hal_pip_config_bypass_filter
                0x0000000080156f3c                vp_hal_PN
                0x000000008014cfdc                vpo_m3327_win_mode
                0x0000000080154764                vp_sub_set_scart_switch
                0x0000000080150470                vp_sub_MHEG5CalcNormalZoomHorInOut
                0x0000000080155078                vp_sub_Case_FetchMode
                0x0000000080157bb0                dvi_hal_SetMask
                0x0000000080157a38                dvi_ReadDword
                0x0000000080157238                vp_hal_pip_config_field_base
                0x0000000080156658                vp_hal_MP_HorOffset
                0x0000000080155e18                vp_sub_set_contrast
                0x000000008014f858                vp_sub_CheckDVIScanMode
                0x0000000080150d0c                vp_sub_MHEG5CalcInOutRect
                0x0000000080157e94                dvi_api_EnableInterrupt
                0x0000000080156ab8                vp_hal_HFilterMode
                0x0000000080156b60                hal_sdhd_rd_mp_fetchmode
                0x00000000801562a8                vp_hal_top_frmbuf_mode
                0x0000000080157bec                dvi_hal_ClearMask
                0x000000008014e4e8                VP_ISR_update_Linemeet_par
                0x00000000801570c8                vp_hal_pip_config_index_write
                0x0000000080156e9c                vp_hal_SetMask
                0x00000000801573b4                vp_hal_pip_config_pitch
                0x0000000080157578                vp_hal_global_alpha
                0x000000008014f908                vp_sub_change_progres_interl
                0x0000000080156ff4                vp_hal_pip_win_onoff
                0x000000008015671c                vp_hal_MP_RectInScreen
                0x00000000801561f8                vp_hal_bot_frmbuf_mode
                0x0000000080155b88                vp_sub_SwitchLMPosi
                0x0000000080156bb0                vp_hal_adpcm_ratio
                0x000000008014e660                VP_ISR_LineMeet
                0x000000008014d474                vpo_m3327_zoom
                0x00000000801569b4                hal_sdhd_win_onoff
                0x00000000801561f0                vp_hal_Scale
                0x0000000080155030                vp_sub_FieldBased_Vp
                0x000000008015676c                vp_hal_ClipMode
                0x0000000080154a44                vp_sub_ResetVideoCore
                0x0000000080150ad4                vp_sub_MHEG5CalcNormalZoomVertInOut
                0x000000008014d6fc                vpo_m3327_ioctl
                0x0000000080156ed4                vp_hal_ClearMask
                0x0000000080154e38                vp_sub_StepForward
                0x0000000080157cf0                dvi_hal_SetYUVOrder
                0x000000008014e178                vpo_m3327_set_progres_interl
                0x0000000080157388                vp_hal_pip_config_size
                0x0000000080155eb0                vp_sub_set_saturation
                0x000000008014f464                vp_sub_InitGlobal
                0x0000000080156c18                vp_hal_MemReqThreshold
                0x0000000080156950                vp_hal_bypass_gataclock
                0x0000000080157d44                dvi_hal_ResetTVE
                0x0000000080155b5c                vp_sub_SetLMPosi
                0x000000008015527c                vp_sub_CheckNewFramePara
                0x0000000080155e64                vp_sub_set_brightness
                0x0000000080155f74                vp_hal_pip_initreg
                0x0000000080157c24                dvi_hal_ScanMode
                0x0000000080156348                vp_hal_EdgePreserve
                0x000000008014d6d0                ChangeRepeatMode
                0x00000000801577ec                vp_hal_mem_map_mode
                0x000000008014f1ec                vp_sub_adjust_step_table
                0x0000000080154aac                vp_sub_adjust_allcase
                0x000000008014e45c                VP_ISR_Linemeet_preview_bottom
                0x0000000080156c70                vp_hal_OutScanMode
                0x0000000080157f94                dvi_hal_linemeetPosi
                0x0000000080156f10                vp_hal_FieldBased
                0x000000008014f800                vp_sub_GetVPOutType
                0x0000000080154afc                vp_sub_InitCurCaseInfo
                0x000000008014cb60                vpo_m3327_dettach
                0x0000000080155f34                vp_WriteDword
                0x0000000080156668                vp_hal_MP_Info
                0x000000008014d5e0                vpo_m3327_aspect_mode
                0x0000000080157064                vp_hal_pip_onoff_29e
                0x0000000080156a88                hal_sdhd_win_onoff_status
                0x0000000080156fa0                vp_hal_ReqPriority
 .text          0x0000000080158400     0x205c /d/3202c//sdk/libcore.a(dmx_m33.o)
                0x0000000080159e1c                dmx_m33_switch_uni_buf
                0x0000000080158ebc                dmx_m33_rec_all_ts
                0x00000000801598c0                dmx_m33_overflow_event
                0x0000000080159e24                dmx_m33_switch_dvi_buf
                0x0000000080158ff8                dmx_m33_parse_task
                0x0000000080159780                dmx_m33_overlap_event
                0x00000000801588a8                dmx_m33_en_channel
                0x000000008015975c                dmx_m33_threshold_event
                0x00000000801586e8                dmx_m33_set_pid
                0x0000000080158e2c                dmx_m33_check_conti_cnt
                0x0000000080158400                dmx_m33_dbg_ts_data_print
                0x0000000080159908                dmx_m33_interrupt
                0x0000000080159a88                dmx_m33_init_register
                0x0000000080159e2c                dmx_m33_ioctl
 .text          0x000000008015a45c     0x1d74 /d/3202c//sdk/libcore.a(dmx_m33_api.o)
                0x000000008015b420                dmx_m33_pause
                0x000000008015bce8                dmx_m33_dev_detach
                0x000000008015a904                dmx_m33_open_ext
                0x000000008015a6e0                AvSyncIsVideoPtsReliable
                0x000000008015a7cc                AvSyncAudioCtrlCallback
                0x000000008015b434                DmxApiShow
                0x000000008015b098                dmx_m33_close
                0x000000008015a45c                AvSyncTimeLinesUpdate
                0x000000008015a5c0                AvSyncGetReliableStreamClk
                0x000000008015a8d4                AvSyncPcrCtrlCallback
                0x000000008015b35c                dmx_m33_stop
                0x000000008015b2a8                dmx_m33_start
                0x000000008015a8e0                dmx_8m_segment_check
                0x000000008015bad4                dmx_m33_api_ioctl
                0x000000008015bcf0                dmx_m33_dev_attach
                0x000000008015a684                AvSyncReset
 .text          0x000000008015c1d0     0x2edc /d/3202c//sdk/libcore.a(ge_hal.o)
                0x000000008015e614                constr_clut_cfg
                0x000000008015e178                get_colconv_cfg
                0x000000008015dd80                constr_src_cfg
                0x000000008015c1d0                ge_hal_init
                0x000000008015ea48                get_scan_order
                0x000000008015e798                get_src1_mode
                0x000000008015e9c0                get_pco_mode
                0x000000008015ef78                set_osd_position_29e
                0x000000008015d338                ge_hal_blt_optm_fill
                0x000000008015e544                constr_flick_filt_cfg
                0x000000008015c1f4                ge_hal_blt
                0x000000008015dd40                start_hw
                0x000000008015ec28                ge_write_mem
                0x000000008015dbe8                ge_hal_hsr
                0x000000008015e98c                get_src2_mode
                0x000000008015d57c                ge_hal_blt_optm
                0x000000008015e280                constr_resize_cfg
                0x000000008015dc20                ge_hal_interrupt
 .text          0x000000008015f0ac     0x51b8 /d/3202c//sdk/libcore.a(ge_lld.o)
                0x0000000080160920                ge_lld_create_region
                0x0000000080163928                update_region_blocks
                0x0000000080161ac0                ge_lld_get_resize
                0x0000000080161994                ge_lld_get_colorkey
                0x0000000080160188                ge_lld_create_surface
                0x0000000080162d70                allocate_blk_link_buffer
                0x000000008015f0ac                ge_lld_open
                0x0000000080161bb0                ge_lld_set_planmask
                0x0000000080160ea4                ge_lld_delete_region
                0x000000008015fee4                ge_lld_region_show_onoff
                0x000000008015f2f4                ge_lld_interrupt
                0x00000000801641b0                ge_29e_set_pal_idx
                0x00000000801619d0                ge_lld_set_alpha
                0x0000000080161b60                ge_lld_get_flickfilt
                0x00000000801615a4                ge_lld_get_region_pos
                0x0000000080161d64                ge_lld_draw_bitmap
                0x0000000080162360                ge_lld_draw_line
                0x00000000801607d8                ge_lld_release_surface
                0x0000000080161a70                ge_lld_set_resize
                0x0000000080161934                ge_lld_set_rop
                0x0000000080161b10                ge_lld_set_flickfilt
                0x0000000080161c40                ge_lld_get_yuv2rgb
                0x000000008015f618                ge_lld_draw_hor_line
                0x000000008015f698                ge_lld_fill_rect
                0x0000000080161bd4                ge_lld_set_rgb2yuv
                0x000000008015f204                ge_lld_close
                0x0000000080161a28                ge_lld_set_colorredc
                0x0000000080161944                ge_lld_get_rop
                0x0000000080161880                ge_lld_set_clip
                0x0000000080161bc0                ge_lld_get_planmask
                0x000000008015f658                ge_lld_draw_ver_line
                0x000000008015f4f0                ge_lld_read_pixel
                0x0000000080162fd4                malloc_region_blocks
                0x0000000080162cd4                convt_pallet_order
                0x0000000080161924                ge_lld_disable_clip
                0x0000000080161ce0                ge_lld_get_region_pars
                0x000000008015f900                ge_lld_blt_ex
                0x0000000080162eec                init_region_blocks
                0x0000000080161c64                ge_lld_set_cur_region
                0x000000008015f7a0                ge_lld_blt
                0x0000000080161698                ge_lld_update_block_link
                0x00000000801639a8                get_region_addr
                0x0000000080162e58                free_blk_link_buffer
                0x0000000080161660                ge_lld_clear_block_scale
                0x0000000080161c84                ge_lld_set_region_pars
                0x0000000080161a4c                ge_lld_get_colorredc
                0x0000000080161c1c                ge_lld_set_yuv2rgb
                0x0000000080161168                ge_lld_set_region_pos
                0x0000000080163580                free_region_blocks
                0x00000000801619fc                ge_lld_get_alpha
                0x0000000080161bf8                ge_lld_get_rgb2yuv
                0x000000008015f318                ge_lld_draw_pixel
                0x00000000801641e4                ge_29e_updt_blk_link
                0x0000000080161958                ge_lld_set_colorkey
 .text          0x0000000080164264      0x6dc /d/3202c//sdk/libcore.a(fix_fft.o)
                0x0000000080164764                spectrum_window
                0x000000008016437c                spectrum_fix_fft
                0x0000000080164858                spectrum_fix_loud
 .text          0x0000000080164940     0x5860 /d/3202c//sdk/libcore.a(snd_m33.o)
                0x0000000080169630                snd_m33_set_volume
                0x0000000080165770                snd_m33_cfg_i2so
                0x0000000080166404                snd_m33_start
                0x00000000801691b0                snd_m33_close
                0x000000008016a0e4                snd_m33_get_volume
                0x000000008016708c                snd_m33_write_pcm_data
                0x0000000080165b08                snd_m33_set_spdif_type
                0x0000000080165558                snd_m33_cc_mute_resume
                0x00000000801697ec                snd_m33_pcm_data_remain
                0x00000000801688f8                snd_m33_write_pcm_data2
                0x0000000080169740                snd_m33_set_duplicate
                0x000000008016979c                snd_m33_samples_remain
                0x0000000080164e80                set_dac_on
                0x00000000801699c8                snd_m33_ioctl
                0x00000000801652f0                snd_m33_cc_mute
                0x000000008016a0f4                snd_m33_detach
                0x0000000080166920                snd_m33_interrupt
                0x0000000080165b38                snd_m33_set_sub_blk
                0x0000000080165e80                snd_m33_config
                0x0000000080166bac                snd_m33_request_es_buff
                0x0000000080169904                snd_get_raw_pts
                0x00000000801665a4                snd_m33_stop
                0x0000000080165b98                snd_m33_reset
                0x0000000080166c1c                snd_m33_request_pcm_buff
                0x0000000080168900                snd_m33_open
                0x000000008016a0fc                snd_m33_output_config
                0x0000000080165990                snd_m33_cfg_spdo
                0x0000000080169754                snd_m33_data_remain
                0x00000000801694fc                snd_m33_set_mute
                0x0000000080164d98                set_dac_mute
                0x0000000080169734                snd_m33_set_output
                0x0000000080167014                snd_m33_data_enough
 .text          0x000000008016a1a0       0x84 /d/3202c//sdk/libcore.a(mempool.o)
                0x000000008016a204                OS_MemAlloc
                0x000000008016a1a0                i_pget_blk
                0x000000008016a1dc                i_rel_blk
 .text          0x000000008016a224      0x92c /d/3202c//sdk/liblog.a(stdio.o)
                0x000000008016a224                soc_printf
                0x000000008016aa1c                soc_putch
                0x000000008016ab10                soc_puts
 .text          0x000000008016ab50      0x5e8 /d/3202c//sdk/libyamadhw.a(frame.o)
                0x000000008016afa8                yamad_init_frame
                0x000000008016b09c                yamad_cal_frame_size
                0x000000008016ab50                yamad_parse_header
                0x000000008016b004                yamad_calculate_crc
                0x000000008016ad3c                yamad_decode_frame
 .text          0x000000008016b138     0x16d8 /d/3202c//sdk/libyamadhw.a(layer12.o)
                0x000000008016b7a8                yamad_decode_layer2
                0x000000008016b138                yamad_decode_layer1
 .text          0x000000008016c810       0x40 /d/3202c//sdk/libyamadhw.a(stream.o)
                0x000000008016c818                yamad_stream_in
                0x000000008016c82c                yamad_stream_out
                0x000000008016c848                yamad_sync_stream
                0x000000008016c810                yamad_init_stream
 .text          0x000000008016c850      0x5f0 /d/3202c//sdk/libyamadhw.a(synth.o)
                0x000000008016ce38                yamad_init_synth
                0x000000008016c850                yamad_synthesis
 .text          0x000000008016ce40       0xdc /d/3202c//sdk/libyamadhw.a(bitptr.o)
                0x000000008016ce40                yamad_init_bitp
                0x000000008016cef8                yamad_diff_bitp
 .text          0x000000008016cf1c      0xc48 /d/3202c//sdk/lib7zip.a(LzmaDecode.o)
                0x000000008016cf48                RangeDecoderInit
                0x000000008016cfbc                RangeDecoderDecodeDirectBits
                0x000000008016d188                RangeDecoderBitTreeDecode
                0x000000008016d3d4                LzmaLiteralDecode
                0x000000008016d070                RangeDecoderBitDecode
                0x000000008016d2a4                RangeDecoderReverseBitTreeDecode
                0x000000008016d6b4                LzmaLenDecode
                0x000000008016d758                LzmaDecode
                0x000000008016cf1c                RangeDecoderReadByte
                0x000000008016d4cc                LzmaLiteralDecodeMatch
 .text          0x000000008016db64       0x44 /D/ALi_IDE_2.1/compilers/gcc3.0.4/mips-t2-elf/lib/soft-float/el/libm.a(s_isinf.o)
                0x000000008016db64                isinf
 .text          0x000000008016dba8       0x34 /D/ALi_IDE_2.1/compilers/gcc3.0.4/mips-t2-elf/lib/soft-float/el/libm.a(s_isnan.o)
                0x000000008016dba8                isnan
 .text          0x000000008016dbdc      0x61c /D/ALi_IDE_2.1/compilers/gcc3.0.4/lib/gcc-lib/mips-t2-elf/3.0.4/soft-float/el/libgcc.a(_divdi3.o)
                0x000000008016dbdc                __divdi3
 .text          0x000000008016e1f8      0x5a0 /D/ALi_IDE_2.1/compilers/gcc3.0.4/lib/gcc-lib/mips-t2-elf/3.0.4/soft-float/el/libgcc.a(_moddi3.o)
                0x000000008016e1f8                __moddi3
 .text          0x000000008016e798      0x594 /D/ALi_IDE_2.1/compilers/gcc3.0.4/lib/gcc-lib/mips-t2-elf/3.0.4/soft-float/el/libgcc.a(_udivdi3.o)
                0x000000008016e798                __udivdi3
 .text          0x000000008016ed2c      0x518 /D/ALi_IDE_2.1/compilers/gcc3.0.4/lib/gcc-lib/mips-t2-elf/3.0.4/soft-float/el/libgcc.a(_umoddi3.o)
                0x000000008016ed2c                __umoddi3
 .text          0x000000008016f244      0x314 /D/ALi_IDE_2.1/compilers/gcc3.0.4/lib/gcc-lib/mips-t2-elf/3.0.4/soft-float/el/libgcc.a(_addsub_sf.o)
                0x000000008016f48c                fpadd
                0x000000008016f4ec                fpsub
 .text          0x000000008016f558      0x1f0 /D/ALi_IDE_2.1/compilers/gcc3.0.4/lib/gcc-lib/mips-t2-elf/3.0.4/soft-float/el/libgcc.a(_mul_sf.o)
                0x000000008016f558                fpmul
 .text          0x000000008016f748      0x16c /D/ALi_IDE_2.1/compilers/gcc3.0.4/lib/gcc-lib/mips-t2-elf/3.0.4/soft-float/el/libgcc.a(_div_sf.o)
                0x000000008016f748                fpdiv
 .text          0x000000008016f8b4       0x54 /D/ALi_IDE_2.1/compilers/gcc3.0.4/lib/gcc-lib/mips-t2-elf/3.0.4/soft-float/el/libgcc.a(_compare_sf.o)
                0x000000008016f8b4                fpcmp
 .text          0x000000008016f908       0xa4 /D/ALi_IDE_2.1/compilers/gcc3.0.4/lib/gcc-lib/mips-t2-elf/3.0.4/soft-float/el/libgcc.a(_si_to_sf.o)
                0x000000008016f908                sitofp
 .text          0x000000008016f9ac       0x5c /D/ALi_IDE_2.1/compilers/gcc3.0.4/lib/gcc-lib/mips-t2-elf/3.0.4/soft-float/el/libgcc.a(_sf_to_df.o)
                0x000000008016f9ac                fptodp
 .text          0x000000008016fa08       0xa4 /D/ALi_IDE_2.1/compilers/gcc3.0.4/lib/gcc-lib/mips-t2-elf/3.0.4/soft-float/el/libgcc.a(_sf_to_usi.o)
                0x000000008016fa08                fptoui
 .text          0x000000008016faac      0x44c /D/ALi_IDE_2.1/compilers/gcc3.0.4/lib/gcc-lib/mips-t2-elf/3.0.4/soft-float/el/libgcc.a(_addsub_df.o)
                0x000000008016fe84                dpsub
                0x000000008016fe1c                dpadd
 .text          0x000000008016fef8      0x394 /D/ALi_IDE_2.1/compilers/gcc3.0.4/lib/gcc-lib/mips-t2-elf/3.0.4/soft-float/el/libgcc.a(_mul_df.o)
                0x000000008016fef8                dpmul
 .text          0x000000008017028c      0x22c /D/ALi_IDE_2.1/compilers/gcc3.0.4/lib/gcc-lib/mips-t2-elf/3.0.4/soft-float/el/libgcc.a(_div_df.o)
                0x000000008017028c                dpdiv
 .text          0x00000000801704b8       0x5c /D/ALi_IDE_2.1/compilers/gcc3.0.4/lib/gcc-lib/mips-t2-elf/3.0.4/soft-float/el/libgcc.a(_compare_df.o)
                0x00000000801704b8                dpcmp
 .text          0x0000000080170514       0xd4 /D/ALi_IDE_2.1/compilers/gcc3.0.4/lib/gcc-lib/mips-t2-elf/3.0.4/soft-float/el/libgcc.a(_si_to_df.o)
                0x0000000080170514                litodp
 .text          0x00000000801705e8       0xf4 /D/ALi_IDE_2.1/compilers/gcc3.0.4/lib/gcc-lib/mips-t2-elf/3.0.4/soft-float/el/libgcc.a(_df_to_si.o)
                0x00000000801705e8                dptoli
 .text          0x00000000801706dc       0x40 /D/ALi_IDE_2.1/compilers/gcc3.0.4/lib/gcc-lib/mips-t2-elf/3.0.4/soft-float/el/libgcc.a(_make_df.o)
                0x00000000801706dc                __make_dp
 .text          0x000000008017071c      0x114 /D/ALi_IDE_2.1/compilers/gcc3.0.4/lib/gcc-lib/mips-t2-elf/3.0.4/soft-float/el/libgcc.a(_df_to_usi.o)
                0x000000008017071c                dptoul
 .text          0x0000000080170830      0x178 /D/ALi_IDE_2.1/compilers/gcc3.0.4/lib/gcc-lib/mips-t2-elf/3.0.4/soft-float/el/libgcc.a(_pack_sf.o)
                0x0000000080170830                __pack_f
 .text          0x00000000801709a8       0xd8 /D/ALi_IDE_2.1/compilers/gcc3.0.4/lib/gcc-lib/mips-t2-elf/3.0.4/soft-float/el/libgcc.a(_unpack_sf.o)
                0x00000000801709a8                __unpack_f
 .text          0x0000000080170a80      0x148 /D/ALi_IDE_2.1/compilers/gcc3.0.4/lib/gcc-lib/mips-t2-elf/3.0.4/soft-float/el/libgcc.a(_fpcmp_parts_sf.o)
                0x0000000080170a80                __fpcmp_parts_f
 .text          0x0000000080170bc8      0x278 /D/ALi_IDE_2.1/compilers/gcc3.0.4/lib/gcc-lib/mips-t2-elf/3.0.4/soft-float/el/libgcc.a(_pack_df.o)
                0x0000000080170bc8                __pack_d
 .text          0x0000000080170e40      0x130 /D/ALi_IDE_2.1/compilers/gcc3.0.4/lib/gcc-lib/mips-t2-elf/3.0.4/soft-float/el/libgcc.a(_unpack_df.o)
                0x0000000080170e40                __unpack_d
 .text          0x0000000080170f70      0x188 /D/ALi_IDE_2.1/compilers/gcc3.0.4/lib/gcc-lib/mips-t2-elf/3.0.4/soft-float/el/libgcc.a(_fpcmp_parts_df.o)
                0x0000000080170f70                __fpcmp_parts_d
 .text          0x00000000801710f8       0x18 /D/ALi_IDE_2.1/compilers/gcc3.0.4/mips-t2-elf/lib/soft-float/el/libc.a(isdigit.o)
                0x00000000801710f8                isdigit
 .text          0x0000000080171110       0x18 /D/ALi_IDE_2.1/compilers/gcc3.0.4/mips-t2-elf/lib/soft-float/el/libc.a(isspace.o)
                0x0000000080171110                isspace
 .text          0x0000000080171128       0xb8 /D/ALi_IDE_2.1/compilers/gcc3.0.4/mips-t2-elf/lib/soft-float/el/libc.a(strcat.o)
                0x0000000080171128                strcat
 .text          0x00000000801711e0      0x11c /D/ALi_IDE_2.1/compilers/gcc3.0.4/mips-t2-elf/lib/soft-float/el/libc.a(strchr.o)
                0x00000000801711e0                strchr
 .text          0x00000000801712fc      0x214 /D/ALi_IDE_2.1/compilers/gcc3.0.4/mips-t2-elf/lib/soft-float/el/libc.a(strtol.o)
                0x00000000801714dc                strtol
                0x00000000801712fc                _strtol_r
 .text          0x0000000080171510      0x1ec /D/ALi_IDE_2.1/compilers/gcc3.0.4/mips-t2-elf/lib/soft-float/el/libc.a(strtoul.o)
                0x00000000801716c8                strtoul
                0x0000000080171510                _strtoul_r
 *(.text.*)
 *(.gnu.linkonce.t*)
 *(.mips16.fn.*)
 *(.mips16.call.*)
                0x00000000801716fc                PROVIDE (__runtime_reloc_start, .)
 *(.rel.sdata)
                0x00000000801716fc                PROVIDE (__runtime_reloc_stop, .)
 *(.fini)
 *(.reuse)
                0x0000000080171700                . =  ALIGN (0x10)
 *fill*         0x00000000801716fc 0x6ef17000000004
                0x0000000080171700                __RODATA_RAM_ADDR = (__TEXT_RAM_ADDR +  SIZEOF (.text))
                0x0000000080171700                __RODATA_ROM_ADDR = (__TEXT_ROM_ADDR +  SIZEOF (.text))

.rodata         0x0000000080171700    0x254e4 load address 0x0000000080171700
 *(.rdata)
 *(.rodata)
 .rodata        0x0000000080171700       0xd0 cdca/win_ca_message.o
 .rodata        0x00000000801717d0       0x70 cdca/win_ca_operator_info.o
 .rodata        0x0000000080171840       0xd0 cdca/win_ca_operator_message.o
 .rodata        0x0000000080171910       0x18 cdca/win_ca_password.o
 .rodata        0x0000000080171928       0xc8 cdca/win_ca_popup_ipp.o
 .rodata        0x00000000801719f0       0x58 cdca/win_ca_watchlevel.o
 .rodata        0x0000000080171a48      0x200 cdca/win_cas_com.o
 .rodata        0x0000000080171c48      0x160 cdca/win_cas_proc.o
 .rodata        0x0000000080171da8      0x2e8 cdca/win_mail.o
 .rodata        0x0000000080172090       0xd8 cdca/win_mail_content.o
 .rodata        0x0000000080172168      0x1f0 cdca/win_osdmsg.o
 .rodata        0x0000000080172358       0xe8 cdca/win_smc_info.o
 .rodata        0x0000000080172440       0x60 control.o
 .rodata        0x00000000801724a0       0x30 copper_common/com_api.o
 .rodata        0x00000000801724d0       0x4c copper_common/com_epg.o
 .rodata        0x000000008017251c       0x2c copper_common/stb_data.o
 .rodata        0x0000000080172548       0x28 copper_common/system_data.o
 .rodata        0x0000000080172570       0xb0 game_box.o
 .rodata        0x0000000080172620       0x10 game_othello.o
                0x0000000080172620                delta_array
 .rodata        0x0000000080172630      0x72c geeya_ad/adv_geeya.o
 .rodata        0x0000000080172d5c     0x1040 geeya_ad/GYAD_Core.o
 .rodata        0x0000000080173d9c      0x368 key.o
                0x0000000080173d9c                ali00_itou_key_tab
                0x00000000801740b4                panel_itou_key_tab
                0x0000000080173f4c                geeya_itou_key_tab
 .rodata        0x0000000080174104    0x13a0c osd_rsc.o
                0x0000000080180c78                S_Chinese_strs_array
                0x00000000801874b8                g_LangRscMapTable
                0x00000000801876d8                palette_1
                0x00000000801874d8                argb1555_tbl
                0x0000000080174104                English_strs_array
 .rodata        0x0000000080187b10       0x18 power.o
 .rodata        0x0000000080187b28       0x30 root.o
 .rodata        0x0000000080187b58      0x12c single_pic_ad/ad_pic.o
 .rodata        0x0000000080187c84      0x198 single_pic_ad/ad_pic_gfx.o
 .rodata        0x0000000080187e1c       0x30 single_pic_ad/ad_pic_gif.o
 .rodata        0x0000000080187e4c       0xf8 single_pic_ad/ad_pic_img.o
 .rodata        0x0000000080187f44       0x34 single_pic_ad/ad_pic_png.o
 .rodata        0x0000000080187f78       0xc8 win_book_detail.o
 .rodata        0x0000000080188040       0xd0 win_ca_set.o
 .rodata        0x0000000080188110       0x88 win_chan_detail.o
 .rodata        0x0000000080188198      0x258 win_chan_edit.o
 .rodata        0x00000000801883f0      0x160 win_chan_list.o
 .rodata        0x0000000080188550       0xd0 win_chan_management.o
 .rodata        0x0000000080188620      0x100 win_channel_info.o
 .rodata        0x0000000080188720       0x68 win_child_lock_list.o
 .rodata        0x0000000080188788       0xa0 win_com.o
 .rodata        0x0000000080188828       0x68 win_com_list.o
 .rodata        0x0000000080188890       0x30 win_com_popup.o
 .rodata        0x00000000801888c0      0x110 win_common_item.o
 .rodata        0x00000000801889d0      0x210 win_epg.o
 .rodata        0x0000000080188be0       0xd0 win_factory_set.o
 .rodata        0x0000000080188cb0       0xe0 win_freqset.o
 .rodata        0x0000000080188d90       0xe0 win_full_band_scan.o
 .rodata        0x0000000080188e70       0x20 win_game_othello.o
 .rodata        0x0000000080188e90       0xd0 win_games.o
 .rodata        0x0000000080188f60      0x140 win_light_channel_list.o
 .rodata        0x00000000801890a0       0xf0 win_mainmenu.o
 .rodata        0x0000000080189190      0x140 win_manual_search.o
 .rodata        0x00000000801892d0       0x28 win_manual_update.o
 .rodata        0x00000000801892f8       0xf8 win_new_signal.o
 .rodata        0x00000000801893f0      0x270 win_nvod.o
 .rodata        0x0000000080189660      0x1b8 win_nvod_event_bar.o
 .rodata        0x0000000080189818       0xd0 win_nvod_warn.o
 .rodata        0x00000000801898e8      0x190 win_prog_input.o
 .rodata        0x0000000080189a78      0x218 win_prog_name.o
 .rodata        0x0000000080189c90       0xd0 win_prog_search.o
 .rodata        0x0000000080189d60      0x1e0 win_reserve_manage.o
 .rodata        0x0000000080189f40       0xd8 win_search.o
 .rodata        0x000000008018a018       0x18 win_signal.o
 .rodata        0x000000008018a030      0x2a0 win_signal_test.o
 .rodata        0x000000008018a2d0        0xc win_signalstatus.o
 *fill*         0x000000008018a2dc 0x6ef44000000004
 .rodata        0x000000008018a2e0       0xd0 win_stb_info.o
 .rodata        0x000000008018a3b0       0xd0 win_sys_items.o
 .rodata        0x000000008018a480       0xd0 win_system_management.o
 .rodata        0x000000008018a550       0x38 win_timer_set.o
 .rodata        0x000000008018a588       0xd0 win_volumebar.o
 .rodata        0x000000008018a658       0x78 ../../../../../sdk/boot.o
 .rodata        0x000000008018a6d0      0x9e0 /d/3202c/prj/app/demo/dvbc/jade_demo_new_geeya/mcf_data_broadcast_3202c//release/lib//libgycas.a(gycas_api.o)
 .rodata        0x000000008018b0b0      0x740 /d/3202c/prj/app/demo/dvbc/jade_demo_new_geeya/mcf_data_broadcast_3202c//release/lib//libgycas.a(gycas_ecm.o)
 .rodata        0x000000008018b7f0      0x440 /d/3202c/prj/app/demo/dvbc/jade_demo_new_geeya/mcf_data_broadcast_3202c//release/lib//libgycas.a(gycas_mgr.o)
 .rodata        0x000000008018bc30      0x408 /d/3202c/prj/app/demo/dvbc/jade_demo_new_geeya/mcf_data_broadcast_3202c//release/lib//libgycas.a(gycas_smc.o)
 .rodata        0x000000008018c038       0x38 /d/3202c/prj/app/demo/dvbc/jade_demo_new_geeya/mcf_data_broadcast_3202c//release/lib//libgycas.a(gycas_smc_drv.o)
 .rodata        0x000000008018c070     0x1188 /d/3202c/prj/app/demo/dvbc/jade_demo_new_geeya/mcf_data_broadcast_3202c//release/lib//libgycas.a(gycas_smc_hal.o)
 .rodata        0x000000008018d1f8      0x448 /d/3202c/prj/app/demo/dvbc/jade_demo_new_geeya/mcf_data_broadcast_3202c//release/lib//libgycas.a(gycas_vm.o)
 .rodata        0x000000008018d640      0x560 /d/3202c/prj/app/demo/dvbc/jade_demo_new_geeya/mcf_data_broadcast_3202c//release/lib//libgycas.a(gycas_emm.o)
 .rodata        0x000000008018dba0       0x1c /d/3202c/prj/app/demo/dvbc/jade_demo_new_geeya/mcf_data_broadcast_3202c//release/lib//liball.a(i2c_scb.o)
 *fill*         0x000000008018dbbc 0x6ef44000000004
 .rodata        0x000000008018dbc0       0x38 /d/3202c/prj/app/demo/dvbc/jade_demo_new_geeya/mcf_data_broadcast_3202c//release/lib//liball.a(sci_16550uart.o)
 .rodata        0x000000008018dbf8       0x30 /d/3202c/prj/app/demo/dvbc/jade_demo_new_geeya/mcf_data_broadcast_3202c//release/lib//liball.a(deca.o)
 .rodata        0x000000008018dc28        0xc /d/3202c/prj/app/demo/dvbc/jade_demo_new_geeya/mcf_data_broadcast_3202c//release/lib//liball.a(decv.o)
 .rodata        0x000000008018dc34       0x18 /d/3202c/prj/app/demo/dvbc/jade_demo_new_geeya/mcf_data_broadcast_3202c//release/lib//liball.a(lib_ashcmd.o)
 *fill*         0x000000008018dc4c 0x6ef44000000004
 .rodata        0x000000008018dc50       0x18 /d/3202c/prj/app/demo/dvbc/jade_demo_new_geeya/mcf_data_broadcast_3202c//release/lib//liball.a(gif.o)
 .rodata        0x000000008018dc68       0x48 /d/3202c/prj/app/demo/dvbc/jade_demo_new_geeya/mcf_data_broadcast_3202c//release/lib//liball.a(imagedec.o)
 .rodata        0x000000008018dcb0       0xb0 /d/3202c/prj/app/demo/dvbc/jade_demo_new_geeya/mcf_data_broadcast_3202c//release/lib//liball.a(imagedec_bmp_decoder.o)
 .rodata        0x000000008018dd60       0x48 /d/3202c/prj/app/demo/dvbc/jade_demo_new_geeya/mcf_data_broadcast_3202c//release/lib//liball.a(imagedec_covs.o)
 .rodata        0x000000008018dda8       0xd0 /d/3202c/prj/app/demo/dvbc/jade_demo_new_geeya/mcf_data_broadcast_3202c//release/lib//liball.a(imagedec_main.o)
 .rodata        0x000000008018de78      0x1b8 /d/3202c/prj/app/demo/dvbc/jade_demo_new_geeya/mcf_data_broadcast_3202c//release/lib//liball.a(imagedec_trans.o)
 .rodata        0x000000008018e030       0x48 /d/3202c/prj/app/demo/dvbc/jade_demo_new_geeya/mcf_data_broadcast_3202c//release/lib//liball.a(imagedec_trans_dup.o)
 .rodata        0x000000008018e078       0x38 /d/3202c/prj/app/demo/dvbc/jade_demo_new_geeya/mcf_data_broadcast_3202c//release/lib//liball.a(png_inflate.o)
 .rodata        0x000000008018e0b0       0x20 /d/3202c/prj/app/demo/dvbc/jade_demo_new_geeya/mcf_data_broadcast_3202c//release/lib//liball.a(png_info.o)
 .rodata        0x000000008018e0d0       0x40 /d/3202c/prj/app/demo/dvbc/jade_demo_new_geeya/mcf_data_broadcast_3202c//release/lib//liball.a(png_out.o)
 .rodata        0x000000008018e110       0x20 /d/3202c/prj/app/demo/dvbc/jade_demo_new_geeya/mcf_data_broadcast_3202c//release/lib//liball.a(lib_cc.o)
 .rodata        0x000000008018e130        0xc /d/3202c/prj/app/demo/dvbc/jade_demo_new_geeya/mcf_data_broadcast_3202c//release/lib//liball.a(lib_hde.o)
 .rodata        0x000000008018e13c      0x228 /d/3202c/prj/app/demo/dvbc/jade_demo_new_geeya/mcf_data_broadcast_3202c//release/lib//liball.a(cas_gy.o)
 *fill*         0x000000008018e364 0x6ef44000000004
 .rodata        0x000000008018e368      0x400 /d/3202c/prj/app/demo/dvbc/jade_demo_new_geeya/mcf_data_broadcast_3202c//release/lib//liball.a(gy_catask.o)
 .rodata        0x000000008018e768      0x4fc /d/3202c/prj/app/demo/dvbc/jade_demo_new_geeya/mcf_data_broadcast_3202c//release/lib//liball.a(gyca_dmx.o)
                0x000000008018e768                crc32_table
 *fill*         0x000000008018ec64 0x6ef44000000004
 .rodata        0x000000008018ec68      0x238 /d/3202c/prj/app/demo/dvbc/jade_demo_new_geeya/mcf_data_broadcast_3202c//release/lib//liball.a(printf.o)
 .rodata        0x000000008018eea0       0xa0 /d/3202c/prj/app/demo/dvbc/jade_demo_new_geeya/mcf_data_broadcast_3202c//release/lib//liball.a(string.o)
 .rodata        0x000000008018ef40      0x160 /d/3202c/prj/app/demo/dvbc/jade_demo_new_geeya/mcf_data_broadcast_3202c//release/lib//liball.a(lib_char.o)
 .rodata        0x000000008018f0a0       0x20 /d/3202c/prj/app/demo/dvbc/jade_demo_new_geeya/mcf_data_broadcast_3202c//release/lib//liball.a(sie_eit.o)
 .rodata        0x000000008018f0c0        0xc /d/3202c/prj/app/demo/dvbc/jade_demo_new_geeya/mcf_data_broadcast_3202c//release/lib//liball.a(sie_monitor_core.o)
 .rodata        0x000000008018f0cc       0x6c /d/3202c/prj/app/demo/dvbc/jade_demo_new_geeya/mcf_data_broadcast_3202c//release/lib//liball.a(si_search.o)
                0x000000008018f108                psi_sections
 .rodata        0x000000008018f138      0x240 /d/3202c/prj/app/demo/dvbc/jade_demo_new_geeya/mcf_data_broadcast_3202c//release/lib//liball.a(si_tdt.o)
                0x000000008018f138                filter_info
 .rodata        0x000000008018f378       0x10 /d/3202c/prj/app/demo/dvbc/jade_demo_new_geeya/mcf_data_broadcast_3202c//release/lib//liball.a(lib_ota.o)
 .rodata        0x000000008018f388      0x480 /d/3202c/prj/app/demo/dvbc/jade_demo_new_geeya/mcf_data_broadcast_3202c//release/lib//liball.a(stb_info.o)
 .rodata        0x000000008018f808      0x83c /d/3202c/prj/app/demo/dvbc/jade_demo_new_geeya/mcf_data_broadcast_3202c//release/lib//liball.a(stb_info_data.o)
 *fill*         0x0000000080190044 0x6ef44000000004
 .rodata        0x0000000080190048      0x128 /d/3202c/prj/app/demo/dvbc/jade_demo_new_geeya/mcf_data_broadcast_3202c//release/lib//liball.a(ge_draw_primitive.o)
                0x0000000080190048                gui_max_size
                0x0000000080190060                gui_scale_coeffs
                0x0000000080190120                colormask_const
 .rodata        0x0000000080190170       0x40 /d/3202c/prj/app/demo/dvbc/jade_demo_new_geeya/mcf_data_broadcast_3202c//release/lib//liball.a(gecmd_primitive.o)
 .rodata        0x00000000801901b0      0x258 /d/3202c/prj/app/demo/dvbc/jade_demo_new_geeya/mcf_data_broadcast_3202c//release/lib//liball.a(obj_editfield.o)
 .rodata        0x0000000080190408       0x20 /d/3202c/prj/app/demo/dvbc/jade_demo_new_geeya/mcf_data_broadcast_3202c//release/lib//liball.a(obj_multitext.o)
 .rodata        0x0000000080190428       0x88 /d/3202c/prj/app/demo/dvbc/jade_demo_new_geeya/mcf_data_broadcast_3202c//release/lib//liball.a(obj_objectlist.o)
 .rodata        0x00000000801904b0       0x48 /d/3202c/prj/app/demo/dvbc/jade_demo_new_geeya/mcf_data_broadcast_3202c//release/lib//liball.a(obj_textfield.o)
 .rodata        0x00000000801904f8       0x90 /d/3202c/prj/app/demo/dvbc/jade_demo_new_geeya/mcf_data_broadcast_3202c//release/lib//liball.a(osd_lib.o)
 .rodata        0x0000000080190588      0x180 /d/3202c/prj/app/demo/dvbc/jade_demo_new_geeya/mcf_data_broadcast_3202c//release/lib//liball.a(nim_s3202.o)
 .rodata        0x0000000080190708       0x50 /d/3202c/prj/app/demo/dvbc/jade_demo_new_geeya/mcf_data_broadcast_3202c//release/lib//liball.a(pan_ct1642.o)
 .rodata        0x0000000080190758       0x60 /d/3202c/prj/app/demo/dvbc/jade_demo_new_geeya/mcf_data_broadcast_3202c//release/lib//liball.a(smartcard.o)
 .rodata        0x00000000801907b8       0x28 /d/3202c/prj/app/demo/dvbc/jade_demo_new_geeya/mcf_data_broadcast_3202c//release/lib//liball.a(sto_flash.o)
 .rodata        0x00000000801907e0       0x48 /d/3202c/prj/app/demo/dvbc/jade_demo_new_geeya/mcf_data_broadcast_3202c//release/lib//liball.a(imagedec_acc.o)
 .rodata        0x0000000080190828      0x1d0 /d/3202c/prj/app/demo/dvbc/jade_demo_new_geeya/mcf_data_broadcast_3202c//release/lib//liball.a(arabic_convert.o)
 .rodata        0x00000000801909f8      0x16c /d/3202c/prj/app/demo/dvbc/jade_demo_new_geeya/mcf_data_broadcast_3202c//release/lib//liball.a(Thai.o)
 *fill*         0x0000000080190b64 0x6ef44000000004
 .rodata        0x0000000080190b68       0x50 /d/3202c/prj/app/demo/dvbc/jade_demo_new_geeya/mcf_data_broadcast_3202c//release/lib//liball.a(lib_dbc.o)
 .rodata        0x0000000080190bb8       0x1c /d/3202c/prj/app/demo/dvbc/jade_demo_new_geeya/mcf_data_broadcast_3202c//release/lib//liball.a(psi_pmt.o)
 *fill*         0x0000000080190bd4 0x6ef44000000004
 .rodata        0x0000000080190bd8       0xa0 /d/3202c/prj/app/demo/dvbc/jade_demo_new_geeya/mcf_data_broadcast_3202c//release/lib//liball.a(obj_list.o)
 .rodata        0x0000000080190c78       0x30 /d/3202c/prj/app/demo/dvbc/jade_demo_new_geeya/mcf_data_broadcast_3202c//release/lib//liball.a(obj_matrixbox.o)
 .rodata        0x0000000080190ca8       0x28 /d/3202c/prj/app/demo/dvbc/jade_demo_new_geeya/mcf_data_broadcast_3202c//release/lib//liball.a(obj_multisel.o)
 .rodata        0x0000000080190cd0       0x48 /d/3202c/prj/app/demo/dvbc/jade_demo_new_geeya/mcf_data_broadcast_3202c//release/lib//liball.a(R820C.o)
 .rodata        0x0000000080190d18      0x108 /d/3202c/prj/app/demo/dvbc/jade_demo_new_geeya/mcf_data_broadcast_3202c//release/lib//liball.a(flash_data.o)
                0x0000000080190d24                tflash_sectors
                0x0000000080190d98                flash_sector_map
                0x0000000080190d70                flash_sector_begin
                0x0000000080190d18                tflash_cmdaddr
 .rodata        0x0000000080190e20       0x68 /d/3202c/prj/app/demo/dvbc/jade_demo_new_geeya/mcf_data_broadcast_3202c//release/lib//liball.a(flash_data_s.o)
                0x0000000080190e64                sflash_id
                0x0000000080190e20                sflash_deviceid
 .rodata        0x0000000080190e88       0x48 /d/3202c//sdk/libcore.a(deca_m33_tone.o)
 .rodata        0x0000000080190ed0       0x98 /d/3202c//sdk/libcore.a(vdec_m3327.o)
 .rodata        0x0000000080190f68       0xc0 /d/3202c//sdk/libcore.a(tv_enc.o)
 .rodata        0x0000000080191028      0x158 /d/3202c//sdk/libcore.a(dmx_m33_ca.o)
 .rodata        0x0000000080191180      0x4f4 /d/3202c//sdk/libcore.a(dmx_m33_dbg.o)
 *fill*         0x0000000080191674 0x6ef44000000004
 .rodata        0x0000000080191678      0x730 /d/3202c//sdk/libcore.a(dmx_m33_pes.o)
 .rodata        0x0000000080191da8       0x28 /d/3202c//sdk/libcore.a(dmx_m33_reg.o)
 .rodata        0x0000000080191dd0       0x78 /d/3202c//sdk/libcore.a(dmx_m33_sec.o)
 .rodata        0x0000000080191e48       0x14 /d/3202c//sdk/libcore.a(dmx_m33_stc.o)
 *fill*         0x0000000080191e5c 0x6ef44000000004
 .rodata        0x0000000080191e60       0x30 /d/3202c//sdk/libcore.a(osd_s3601.o)
 .rodata        0x0000000080191e90       0x40 /d/3202c//sdk/libcore.a(snd_m33_spectrum.o)
 .rodata        0x0000000080191ed0       0x24 /d/3202c//sdk/libcore.a(mbuffer.o)
 .rodata        0x0000000080191ef4       0x40 /d/3202c//sdk/libcore.a(sched_mq.o)
 .rodata        0x0000000080191f34       0x10 /d/3202c//sdk/libcore.a(timerc.o)
 .rodata        0x0000000080191f44      0x274 /d/3202c//sdk/libcore.a(deca_m33.o)
                0x00000000801921ac                ac3_samplerate_table
                0x0000000080192160                ac3_bitrate_table
                0x000000008019207c                ac3_frame_len_table
                0x0000000080191f44                mpeg_bitrate_table
                0x0000000080192070                mpeg_samplerate_table
 .rodata        0x00000000801921b8       0x20 /d/3202c//sdk/libcore.a(deca_m33_ase.o)
 .rodata        0x00000000801921d8       0xe0 /d/3202c//sdk/libcore.a(vpo_driver.o)
 .rodata        0x00000000801922b8       0x44 /d/3202c//sdk/libcore.a(dmx_m33.o)
 *fill*         0x00000000801922fc 0x6ef44000000004
 .rodata        0x0000000080192300     0x15f0 /d/3202c//sdk/libcore.a(dmx_m33_api.o)
 .rodata        0x00000000801938f0      0x108 /d/3202c//sdk/libcore.a(ge_lld.o)
 .rodata        0x00000000801939f8      0x8c8 /d/3202c//sdk/libcore.a(fix_fft.o)
 .rodata        0x00000000801942c0       0xd0 /d/3202c//sdk/libcore.a(snd_m33.o)
 .rodata        0x0000000080194390      0x1b0 /d/3202c//sdk/liblog.a(stdio.o)
 .rodata        0x0000000080194540      0x168 /d/3202c//sdk/libyamadhw.a(layer12.o)
 .rodata        0x00000000801946a8      0x100 /D/ALi_IDE_2.1/compilers/gcc3.0.4/lib/gcc-lib/mips-t2-elf/3.0.4/soft-float/el/libgcc.a(_clz.o)
                0x00000000801946a8                __clz_tab
 .rodata        0x00000000801947a8       0x10 /D/ALi_IDE_2.1/compilers/gcc3.0.4/lib/gcc-lib/mips-t2-elf/3.0.4/soft-float/el/libgcc.a(_thenan_sf.o)
                0x00000000801947a8                __thenan_sf
 .rodata        0x00000000801947b8       0x18 /D/ALi_IDE_2.1/compilers/gcc3.0.4/lib/gcc-lib/mips-t2-elf/3.0.4/soft-float/el/libgcc.a(_thenan_df.o)
                0x00000000801947b8                __thenan_df
 .rodata        0x00000000801947d0      0x104 /D/ALi_IDE_2.1/compilers/gcc3.0.4/mips-t2-elf/lib/soft-float/el/libc.a(ctype_.o)
                0x00000000801947d0                _ctype_
 *(.rodata.*)
 *(.gnu.linkonce.r*)
 *(.flash)
 .flash         0x00000000801948d4     0x2310 osd_rsc.o
                0x00000000801948d4                wSHStyle1
                0x0000000080196be4                . =  ALIGN (0x4)
                0x0000000080196be4                __DATA_RAM_ADDR = (__RODATA_RAM_ADDR +  SIZEOF (.rodata))
                0x0000000080196be4                __DATA_ROM_ADDR = (__RODATA_ROM_ADDR +  SIZEOF (.rodata))

.data           0x0000000080196be4    0x1f10c load address 0x0000000080196be4
 *(.data)
 .data          0x0000000080196be4      0x1a8 board_config.o
                0x0000000080196be4                g_tve_adjust_table
                0x0000000080196d80                pan_config
                0x0000000080196ca4                g_tve_adjust_table_adv
                0x0000000080196d44                pan_hw_info
 .data          0x0000000080196d8c       0x3c cdca/win_ca_freepreviewing.o
                0x0000000080196d8c                cas_freeprewing_info
 .data          0x0000000080196dc8      0x22c cdca/win_ca_message.o
                0x0000000080196f84                win_ca_message_title
                0x0000000080196f54                bmp_ca_message_title
                0x0000000080196dc8                g_ca_message
                0x0000000080196e28                ca_message_item1
                0x0000000080196e8c                ca_message_item2
                0x0000000080196df8                ca_message
                0x0000000080196ebc                txt_ca_message_item2
                0x0000000080196fe8                ca_message_windows_list
                0x0000000080196e58                txt_ca_message_item1
                0x0000000080196fb8                bmp_ca_message_title1
                0x0000000080196f20                txt_ca_message_item3
                0x0000000080196ef0                ca_message_item3
 .data          0x0000000080196ff4      0xa10 cdca/win_ca_operator_info.o
                0x0000000080197360                operator_item2
                0x00000000801972c4                operator_num1
                0x00000000801976c0                operator_num6
                0x0000000080197490                operator_idx3
                0x00000000801973f8                operator_name2
                0x0000000080197528                operator_num4
                0x00000000801977f4                operator_num7
                0x0000000080197928                txt_operator_title1
                0x00000000801975f4                operator_num5
                0x0000000080197828                operator_item8
                0x0000000080197590                operator_name4
                0x000000008019718c                operoator_scb
                0x000000008019778c                operator_idx7
                0x00000000801970b8                operator_table_title_id
                0x00000000801977c0                operator_name7
                0x00000000801975c4                operator_item5
                0x00000000801978f4                txt_operator_title
                0x000000008019742c                operator_item3
                0x000000008019722c                operator_idx0
                0x00000000801971c8                operator_item0
                0x0000000080197144                operator_olist
                0x0000000080197054                operator_info_title_con
                0x0000000080197390                operator_num2
                0x000000008019795c                txt_operator_title2
                0x00000000801974c4                operator_name3
                0x000000008019788c                operator_idx8
                0x00000000801979c4                txt_operator_title4
                0x000000008019732c                operator_name1
                0x00000000801973c4                operator_idx2
                0x0000000080197294                operator_item1
                0x0000000080197858                operator_num8
                0x0000000080196ff4                g_win_operator_info
                0x0000000080197690                operator_item6
                0x00000000801970ec                operator_table_title_ppname
                0x00000000801979f8                operator_popup
                0x00000000801978c0                operator_name8
                0x000000008019745c                operator_num3
                0x0000000080197628                operator_idx5
                0x00000000801972f8                operator_idx1
                0x000000008019765c                operator_name5
                0x000000008019775c                operator_item7
                0x0000000080197990                txt_operator_title3
                0x0000000080197084                operator_table_title_num
                0x0000000080197260                operator_name0
                0x000000008019755c                operator_idx4
                0x00000000801971f8                operator_num0
                0x0000000080197728                operator_name6
                0x00000000801976f4                operator_idx6
                0x0000000080197024                operator_info_con
                0x00000000801974f8                operator_item4
 .data          0x0000000080197a04      0x204 cdca/win_ca_operator_message.o
                0x0000000080197ad0                txt_operator_message_tell1
                0x0000000080197ba0                txt_operator_message_out
                0x0000000080197b6c                txt_operator_message_choice
                0x0000000080197a68                txt_operator_message_tell
                0x0000000080197a9c                txt_operator_message_address1
                0x0000000080197a04                g_win_operator_message
                0x0000000080197a34                txt_operator_message_address
                0x0000000080197b04                txt_operator_message_title
                0x0000000080197b38                txt_operator_message_enter
                0x0000000080197bd4                txt_operator_message_back
 .data          0x0000000080197c08      0x1b8 cdca/win_ca_password.o
                0x0000000080197c6c                ca_pwd_wrong_result
                0x0000000080197d90                ca_pwd_bitmap6
                0x0000000080197d00                ca_pwd_bitmap3
                0x0000000080197c38                ca_pwd_title
                0x0000000080197cd0                ca_pwd_bitmap2
                0x0000000080197d60                ca_pwd_bitmap5
                0x0000000080197d30                ca_pwd_bitmap4
                0x0000000080197c08                g_win_ca_pwd_con
                0x0000000080197ca0                ca_pwd_bitmap1
 .data          0x0000000080197dc0      0x420 cdca/win_ca_pinpwd.o
                0x0000000080197fe8                pin_pwd_item_txtname1
                0x0000000080197df0                pin_pwd_info
                0x0000000080198138                pin_pwd_item_txtname3
                0x00000000801981bc                pin_pwd_item_name
                0x0000000080197dc0                g_win_pin_pwd
                0x00000000801981c8                pin_pwd_item_set
                0x0000000080197e24                win_pin_pwd_con
                0x00000000801981b0                pin_pwd_items
                0x00000000801980c4                pin_pwd_item_txtset2
                0x0000000080197f50                pin_pwd_help_name3
                0x0000000080197e88                pin_pwd_help_con1
                0x000000008019801c                pin_pwd_item_txtset1
                0x00000000801981d4                win_cas_pin_help
                0x0000000080197eec                pin_pwd_help_name2
                0x0000000080197fb8                pin_pwd_con_item1
                0x000000008019816c                pin_pwd_item_txtset3
                0x0000000080197f84                pin_pwd_help_name4
                0x0000000080197f20                pin_pwd_help_con2
                0x0000000080198060                pin_pwd_con_item2
                0x0000000080198108                pin_pwd_con_item3
                0x0000000080197e54                pin_pwd_titile
                0x0000000080198090                pin_pwd_item_txtname2
                0x0000000080197eb8                pin_pwd_help_name1
 .data          0x00000000801981e0      0x264 cdca/win_ca_popup_ipp.o
                0x0000000080198374                ippbuy_detail_info
                0x00000000801982a8                ippbuy_idx1
                0x00000000801983dc                g_win_ippbuy
                0x0000000080198210                ippbuy_idx0
                0x00000000801981e0                ippbuy_item0
                0x00000000801983a8                ippbuy_help_info
                0x000000008019840c                win_ippbuy_rect
                0x0000000080198340                ippbuy_detail_label
                0x00000000801982dc                ippbuy_name1
                0x0000000080198310                ippbuy_detail_con
                0x0000000080198244                ippbuy_name0
                0x0000000080198278                ippbuy_item1
 .data          0x0000000080198444      0x314 cdca/win_ca_watchlevel.o
                0x00000000801986c0                maturity_rating_help_con2
                0x0000000080198444                g_win_maturity_rating
                0x00000000801985f4                maturity_rating_titile
                0x000000008019854c                maturity_rating_item_con2
                0x0000000080198474                win_maturity_rating_con
                0x000000008019868c                maturity_rating_help_name2
                0x00000000801985b0                maturity_rating_edt2
                0x0000000080198658                maturity_rating_help_name1
                0x000000008019857c                maturity_rating_txt2
                0x00000000801984d4                maturity_rating_txt1
                0x0000000080198724                maturity_rating_help_name4
                0x00000000801984a4                maturity_rating_item_con1
                0x00000000801986f0                maturity_rating_help_name3
                0x0000000080198508                maturity_rating_edt1
                0x0000000080198628                maturity_rating_help_con1
 .data          0x0000000080198758        0xc cdca/win_cas_proc.o
 .data          0x0000000080198764       0x90 cdca/win_fingerprint.o
                0x00000000801987c0                txt_urgent
                0x000000008019878c                txt_fingerprint
 .data          0x00000000801987f4      0xa5c cdca/win_mail.o
                0x0000000080198c7c                mail_flag3
                0x0000000080198b18                mail_idx2
                0x0000000080198b4c                mail_title2
                0x00000000801990d4                mail_read
                0x0000000080199108                mail_red
                0x000000008019906c                mail_total
                0x0000000080198d78                mail_flag4
                0x00000000801989bc                mail_del0
                0x00000000801987f4                g_win_mail
                0x000000008019916c                mail_y
                0x0000000080198a84                mail_flag1
                0x0000000080198c48                mail_title3
                0x0000000080199038                mail_new
                0x00000000801988f0                mail_item0
                0x0000000080198d10                mail_idx4
                0x00000000801990a0                mail_enter
                0x0000000080198ab8                mail_del1
                0x0000000080198e0c                mail_idx5
                0x0000000080198ddc                mail_item5
                0x00000000801991d0                mail_exit
                0x0000000080198824                mail_ol_con
                0x0000000080198fd4                bmap_mail_title
                0x0000000080198f6c                mail_title_txt2
                0x0000000080198d44                mail_title4
                0x0000000080198dac                mail_del4
                0x0000000080199238                mail_titles
                0x0000000080198b80                mail_flag2
                0x0000000080198e74                mail_flag5
                0x0000000080198ae8                mail_item2
                0x0000000080198a50                mail_title1
                0x0000000080198e40                mail_title5
                0x000000008019919c                mail_deltle_all
                0x0000000080198988                mail_flag0
                0x0000000080198a1c                mail_idx1
                0x0000000080198f08                mail_title_txt0
                0x0000000080199204                mail_back
                0x0000000080199004                txt_mail_title
                0x0000000080198ce0                mail_item4
                0x0000000080198954                mail_title0
                0x000000008019886c                mail_ol
                0x0000000080198c14                mail_idx3
                0x0000000080198be4                mail_item3
                0x0000000080198ed8                mail_con_title
                0x0000000080198cb0                mail_del3
                0x0000000080198bb4                mail_del2
                0x0000000080198ea8                mail_del5
                0x00000000801989ec                mail_item1
                0x0000000080198fa0                mail_title_txt3
                0x00000000801988b4                mail_scb
                0x0000000080199138                mail_deltle
                0x0000000080198920                mail_idx0
                0x0000000080198f38                mail_title_txt1
 .data          0x0000000080199250      0x2b0 cdca/win_mail_content.o
                0x0000000080199498                mail_content_txt_title0
                0x00000000801992e0                mail_title_str
                0x0000000080199430                mail_time_str
                0x0000000080199280                mail_content_bmap_title
                0x0000000080199250                g_win_mail_content
                0x00000000801992b0                mail_content_con
                0x0000000080199464                mail_content_title01
                0x000000008019938c                mail_time_info
                0x0000000080199314                mail_content_info
                0x00000000801993f4                mail_title_info
                0x0000000080199350                mail_content_scb
                0x00000000801994cc                mail_cotent_title1
                0x00000000801993c0                mail_content_txt_title
 .data          0x0000000080199500       0x60 cdca/win_mail_icon.o
                0x0000000080199530                win_detitle_bmp
                0x0000000080199500                win_bmail_bmp
 .data          0x0000000080199560       0x10 cdca/win_osdmsg.o
 .data          0x0000000080199570      0x7b0 cdca/win_smc_info.o
                0x000000008019986c                smcinfo_txt11
                0x0000000080199b64                smcinfo_txt16
                0x0000000080199604                smcinfo_con_item0
                0x0000000080199808                smcinfo_con_item3
                0x0000000080199a34                smcinfo_txt14
                0x00000000801995a0                txt_smc_title
                0x0000000080199968                smcinfo_txt5
                0x0000000080199b30                smcinfo_txt8
                0x00000000801998d0                smcinfo_txt4
                0x00000000801997d4                smcinfo_txt17
                0x0000000080199bfc                smcinfo_exit
                0x0000000080199b00                smcinfo_con_item8
                0x00000000801996a4                smcinfo_con_item1
                0x00000000801998a0                smcinfo_con_item4
                0x0000000080199668                smcinfo_multxt0
                0x0000000080199904                smcinfo_txt12
                0x000000008019976c                smcinfo_txt2
                0x0000000080199a98                smcinfo_txt7
                0x0000000080199838                smcinfo_txt3
                0x00000000801995d4                smc_info_menu
                0x000000008019999c                smcinfo_txt13
                0x0000000080199634                smcinfo_txt0
                0x0000000080199570                g_win_smc_info
                0x00000000801997a0                smcinfo_txt10
                0x00000000801999d0                smcinfo_con_item6
                0x0000000080199c6c                smcinfo_list
                0x00000000801996d4                smcinfo_txt1
                0x0000000080199708                smcinfo_txt9
                0x0000000080199a00                smcinfo_txt6
                0x0000000080199b98                smcinfo_help
                0x0000000080199a68                smcinfo_con_item7
                0x0000000080199acc                smcinfo_txt15
                0x0000000080199bc8                smcinfo_back
                0x000000008019973c                smcinfo_con_item2
                0x0000000080199938                smcinfo_con_item5
 .data          0x0000000080199d20     0x10d8 control.o
                0x0000000080199d2c                beep_bin_array
                0x000000008019ac2c                g_cc_step_name
 .data          0x000000008019adf8       0x24 copper_common/bat_private.o
 .data          0x000000008019ae1c       0x30 copper_common/com_api.o
 .data          0x000000008019ae4c       0x40 copper_common/com_epg.o
 .data          0x000000008019ae8c       0x60 copper_common/ota_special.o
                0x000000008019ae8c                test_nit
 .data          0x000000008019aeec       0x58 copper_common/system_data.o
                0x000000008019aeec                stream_iso_639lang_abbr
                0x000000008019af14                iso_639lang_multicode
 .data          0x000000008019af44        0xc data_bdcast_com.o
 .data          0x000000008019af50       0x84 game_box.o
                0x000000008019af80                box_playarea
                0x000000008019af50                win_game_box
 .data          0x000000008019afd4      0xd40 game_box_maps.o
                0x000000008019b558                M19Layout
                0x000000008019b25c                M9Layout
                0x000000008019b774                M25Layout
                0x000000008019b504                M18Layout
                0x000000008019ba5c                M35Layout
                0x000000008019b388                M13Layout
                0x000000008019b0b4                M4Layout
                0x000000008019b34c                M12Layout
                0x000000008019b7ac                M26Layout
                0x000000008019b974                M31Layout
                0x000000008019b4a8                M17Layout
                0x000000008019bb38                M777Layout
                0x000000008019afd4                M1Layout
                0x000000008019b2c4                M10Layout
                0x000000008019b300                M11Layout
                0x000000008019b730                M24Layout
                0x000000008019ba18                M34Layout
                0x000000008019b408                M15Layout
                0x000000008019b464                M16Layout
                0x000000008019b604                M21Layout
                0x000000008019b3cc                M14Layout
                0x000000008019b6dc                M23Layout
                0x000000008019b66c                M22Layout
                0x000000008019bc7c                M1Layouts
                0x000000008019b018                M2Layout
                0x000000008019b9e4                M33Layout
                0x000000008019b9a0                M32Layout
                0x000000008019b214                M8Layout
                0x000000008019bab0                M36Layout
                0x000000008019b938                M30Layout
                0x000000008019b06c                M3Layout
                0x000000008019baf4                M8692Layout
                0x000000008019b594                M20Layout
                0x000000008019b8e0                M29Layout
                0x000000008019b7f0                M27Layout
                0x000000008019b0e8                M5Layout
                0x000000008019b12c                M6Layout
                0x000000008019b1c0                M7Layout
                0x000000008019b83c                M28Layout
 .data          0x000000008019bd14       0x60 key.o
                0x000000008019bd20                ir_key_maps
 .data          0x000000008019bd74      0x250 menus_root.o
                0x000000008019bf54                rootwinpool_2
                0x000000008019bd74                rootwinpool_1
 .data          0x000000008019bfc4        0xc root.o
 .data          0x000000008019bfd0       0x38 single_pic_ad/ad_pic.o
 .data          0x000000008019c008       0x30 single_pic_ad/ad_pic_gfx.o
 .data          0x000000008019c038      0x20c win_advset.o
                0x000000008019c098                win_advset_con
                0x000000008019c1cc                advset_bmap1
                0x000000008019c198                advset_con_txt_item4
                0x000000008019c164                advset_con_txt_item3
                0x000000008019c230                advset_list
                0x000000008019c0fc                advset_con_txt_item1
                0x000000008019c130                advset_con_txt_item2
                0x000000008019c068                advset_bmap
                0x000000008019c1fc                advset_title
                0x000000008019c038                g_win_advset
                0x000000008019c0c8                advset_con_txt_item0
 .data          0x000000008019c244      0x1fc win_audio.o
                0x000000008019c40c                audio_track_back
                0x000000008019c340                audio_track_help
                0x000000008019c30c                cur_audio_mode
                0x000000008019c2a4                audio_title
                0x000000008019c3a4                audio_track_modify
                0x000000008019c370                audio_track_comfire
                0x000000008019c2d8                audio_txt1
                0x000000008019c274                audio_con
                0x000000008019c3d8                audio_track_exit
                0x000000008019c244                g_win_audio
 .data          0x000000008019c440      0x264 win_audioset.o
                0x000000008019c470                audioset_con
                0x000000008019c670                audioset_back
                0x000000008019c5a4                audioset_help
                0x000000008019c440                g_win_audioset
                0x000000008019c608                audioset_modify
                0x000000008019c5d4                audioset_comfire
                0x000000008019c508                tv_audio_mode
                0x000000008019c4a0                audioset_txt1
                0x000000008019c4d4                audioset_txt2
                0x000000008019c53c                rd_audio_mode
                0x000000008019c570                audioset_title
                0x000000008019c63c                audioset_exit
 .data          0x000000008019c6a4      0x240 win_book_detail.o
                0x000000008019c76c                TextFieldbook_3
                0x000000008019c708                Containerbook_1
                0x000000008019c738                TextFieldbook_2
                0x000000008019c86c                TextFieldbd4
                0x000000008019c6a4                g_win_book_detail
                0x000000008019c804                TextFieldbd2
                0x000000008019c6d4                TextFieldBOOK_1
                0x000000008019c838                TextFieldbd3
                0x000000008019c8a0                TextFieldbd6
                0x000000008019c7d0                TextFieldbd1
                0x000000008019c8d4                weekday_id1
                0x000000008019c7a0                Containerbook_2
 .data          0x000000008019c8e4      0x2d4 win_ca_bing.o
                0x000000008019c9dc                bind_item2
                0x000000008019cb84                bind_back
                0x000000008019ca84                bind_title
                0x000000008019c914                bind_items
                0x000000008019ca0c                binding_input_pwd2
                0x000000008019cae8                bind_comfire
                0x000000008019cab8                bind_action
                0x000000008019c9a8                binding_result
                0x000000008019c8e4                g_win_binding
                0x000000008019c944                bind_item1
                0x000000008019c974                binding_statue
                0x000000008019ca40                bind_pwd
                0x000000008019cb50                bind_exit
                0x000000008019cb1c                bind_enter
 .data          0x000000008019cbb8      0x19c win_ca_set.o
                0x000000008019cbe8                ca_set_titile_bitmap
                0x000000008019cc7c                ca_set_name1
                0x000000008019cbb8                g_win_ca_set
                0x000000008019cc18                ca_set__titile
                0x000000008019cd18                ca_set_bitmap2
                0x000000008019cd48                ca_set_windows_list
                0x000000008019cc4c                ca_set_item
                0x000000008019cce4                ca_set_name3
                0x000000008019ccb0                ca_set_name2
 .data          0x000000008019cd54      0xa94 win_chan_detail.o
                0x000000008019cff8                chan_detail_prg_idx1
                0x000000008019d4c0                chan_detail_prg_idx7
                0x000000008019d0f8                chan_detail_prg_name2
                0x000000008019d658                chan_detail_prg_idx9
                0x000000008019d528                chan_detail_pre_prg7
                0x000000008019d490                chan_detail_prg_item7
                0x000000008019d0c4                chan_detail_prg_idx2
                0x000000008019cee8                chan_detail_date
                0x000000008019d5f4                chan_detail_pre_prg8
                0x000000008019d12c                chan_detail_pre_prg2
                0x000000008019d428                chan_detail_prg_name6
                0x000000008019ce24                right
                0x000000008019ce84                crt_prg
                0x000000008019d328                chan_detail_prg_idx5
                0x000000008019d5c0                chan_detail_prg_name8
                0x000000008019d7c0                chan_detail_prg_items
                0x000000008019d2f8                chan_detail_prg_item5
                0x000000008019d628                chan_detail_prg_item9
                0x000000008019ceb8                left
                0x000000008019d724                chan_detail_prg_idx10
                0x000000008019d758                chan_detail_prg_name10
                0x000000008019d2c4                chan_detail_pre_prg4
                0x000000008019cf8c                chan_detail_prg_scb
                0x000000008019d094                chan_detail_prg_item2
                0x000000008019d6f4                chan_detail_prg_item10
                0x000000008019d3c4                chan_detail_prg_item6
                0x000000008019d6c0                chan_detail_pre_prg9
                0x000000008019d1f8                chan_detail_pre_prg3
                0x000000008019d55c                chan_detail_prg_item8
                0x000000008019d1c4                chan_detail_prg_name3
                0x000000008019cdc0                chan_detail_con
                0x000000008019ce54                Bitmap5
                0x000000008019cdf0                grp_scan
                0x000000008019d45c                chan_detail_pre_prg6
                0x000000008019d3f4                chan_detail_prg_idx6
                0x000000008019cf44                chan_detail_prg_ol
                0x000000008019d35c                chan_detail_prg_name5
                0x000000008019d4f4                chan_detail_prg_name7
                0x000000008019d190                chan_detail_prg_idx3
                0x000000008019cd90                chan_detail_prg_con
                0x000000008019d68c                chan_detail_prg_name9
                0x000000008019d58c                chan_detail_prg_idx8
                0x000000008019d390                chan_detail_pre_prg5
                0x000000008019cd60                g_win_chan_detail
                0x000000008019d02c                chan_detail_prg_name1
                0x000000008019d22c                chan_detail_prg_item4
                0x000000008019d160                chan_detail_prg_item3
                0x000000008019d060                chan_detail_pre_prg1
                0x000000008019d290                chan_detail_prg_name4
                0x000000008019d78c                chan_detail_pre_prg10
                0x000000008019cfc8                chan_detail_prg_item1
                0x000000008019d25c                chan_detail_prg_idx4
 .data          0x000000008019d7e8      0xc30 win_chan_edit.o
                0x000000008019df2c                chanedit_flagb7
                0x000000008019d8c4                chanedit_idx1
                0x000000008019dec8                chanedit_name7
                0x000000008019de34                chanedit_flagb6
                0x000000008019da24                chanedit_flaga2
                0x000000008019e280                chanedit_action
                0x000000008019e0b8                chanedit_name9
                0x000000008019dc74                chanedit_item5
                0x000000008019e34c                edit_back
                0x000000008019d8f8                chanedit_name1
                0x000000008019da84                chanedit_item3
                0x000000008019dcd8                chanedit_name5
                0x000000008019dd9c                chanedit_idx6
                0x000000008019e054                chanedit_item9
                0x000000008019dd0c                chanedit_flaga5
                0x000000008019e2b0                edit_comfire
                0x000000008019de64                chanedit_item7
                0x000000008019e17c                chanedit_idx10
                0x000000008019da54                chanedit_flagb2
                0x000000008019d92c                chanedit_flaga1
                0x000000008019dab4                chanedit_idx3
                0x000000008019d7f4                g_win_chanedit
                0x000000008019e084                chanedit_idx9
                0x000000008019e11c                chanedit_flagb9
                0x000000008019dbe0                chanedit_name4
                0x000000008019e1b0                chanedit_name10
                0x000000008019d95c                chanedit_flagb1
                0x000000008019d98c                chanedit_item2
                0x000000008019df8c                chanedit_idx8
                0x000000008019e2e4                edit_modify
                0x000000008019d9f0                chanedit_name2
                0x000000008019db7c                chanedit_item4
                0x000000008019ddd0                chanedit_name6
                0x000000008019dd3c                chanedit_flagb5
                0x000000008019de04                chanedit_flaga6
                0x000000008019df5c                chanedit_item8
                0x000000008019e0ec                chanedit_flaga9
                0x000000008019db1c                chanedit_flaga3
                0x000000008019e214                chanedit_flagb10
                0x000000008019dfc0                chanedit_name8
                0x000000008019e1e4                chanedit_flaga10
                0x000000008019dae8                chanedit_name3
                0x000000008019dd6c                chanedit_item6
                0x000000008019e40c                chan_mark_icons
                0x000000008019dc44                chanedit_flagb4
                0x000000008019de94                chanedit_idx7
                0x000000008019e14c                chanedit_item10
                0x000000008019d894                chanedit_item1
                0x000000008019d84c                chanedit_ol
                0x000000008019e318                edit_exit
                0x000000008019db4c                chanedit_flagb3
                0x000000008019dff4                chanedit_flaga8
                0x000000008019e024                chanedit_flagb8
                0x000000008019d9bc                chanedit_idx2
                0x000000008019dbac                chanedit_idx4
                0x000000008019dc14                chanedit_flaga4
                0x000000008019defc                chanedit_flaga7
                0x000000008019e244                chanedit_scb
                0x000000008019dca4                chanedit_idx5
 .data          0x000000008019e418      0xa5c win_chan_list.o
                0x000000008019e6ec                chanlist_prg_idx1
                0x000000008019ed08                chanlist_sch_following
                0x000000008019e654                chanlist_prg_idx0
                0x000000008019e754                chanlist_prg_item2
                0x000000008019e624                chanlist_prg_item0
                0x000000008019ea7c                chanlist_prg_idx7
                0x000000008019e8b4                chanlist_prg_idx4
                0x000000008019e454                chan_list_bg
                0x000000008019e720                chanlist_prg_name1
                0x000000008019e9b4                chanlist_prg_item6
                0x000000008019e91c                chanlist_prg_item5
                0x000000008019e5a0                chanlist_prg_ol
                0x000000008019e8e8                chanlist_prg_name4
                0x000000008019ec14                chanlist_sch_con
                0x000000008019ee60                chanlist_help
                0x000000008019e688                chanlist_prg_name0
                0x000000008019e484                chanlist_prg_con
                0x000000008019ecd8                chanlist_sch_con2
                0x000000008019ec44                chanlist_sch_con1
                0x000000008019ee04                chanlist_date
                0x000000008019eda0                chanlist_program_name
                0x000000008019e784                chanlist_prg_idx2
                0x000000008019ec74                chanlist_sch_present
                0x000000008019e5e8                chanlist_prg_scb
                0x000000008019eca8                present_time
                0x000000008019ebe0                chanlist_prg_name9
                0x000000008019e7b8                chanlist_prg_name2
                0x000000008019e4e4                chanlist_grp_name
                0x000000008019e980                chanlist_prg_name5
                0x000000008019e424                g_win_chanlist
                0x000000008019eae4                chanlist_prg_item8
                0x000000008019e4b4                chanlist_grp_con
                0x000000008019e548                chanlist_bmap1
                0x000000008019eb48                chanlist_prg_name8
                0x000000008019e850                chanlist_prg_name3
                0x000000008019e9e4                chanlist_prg_idx6
                0x000000008019ed3c                chanlist_msg_con
                0x000000008019eb14                chanlist_prg_idx8
                0x000000008019ebac                chanlist_prg_idx9
                0x000000008019e81c                chanlist_prg_idx3
                0x000000008019e518                chanlist_bmap2
                0x000000008019e7ec                chanlist_prg_item3
                0x000000008019e6bc                chanlist_prg_item1
                0x000000008019edd4                calendar
                0x000000008019e884                chanlist_prg_item4
                0x000000008019ee38                chanlist_prg_items
                0x000000008019ea4c                chanlist_prg_item7
                0x000000008019ed6c                chanlist_program_num
                0x000000008019eb7c                chanlist_prg_item9
                0x000000008019e94c                chanlist_prg_idx5
                0x000000008019ea18                chanlist_prg_name6
                0x000000008019eab0                chanlist_prg_name7
 .data          0x000000008019ee74      0x1fc win_chan_manage.o
                0x000000008019efd4                back
                0x000000008019f03c                rd_chan_manage
                0x000000008019ef38                comfire
                0x000000008019ee74                g_win_chan_manage
                0x000000008019eed4                chan_manage_title_name
                0x000000008019efa0                exit00
                0x000000008019ef08                chan_manage_action
                0x000000008019f008                tv_chan_manage
                0x000000008019eea4                chan_manage_con
                0x000000008019ef6c                enter
 .data          0x000000008019f070      0x18c win_chan_management.o
                0x000000008019f104                txt_chan_item1
                0x000000008019f1a0                txt_chan_item4
                0x000000008019f0d0                txt_sm_chan_title
                0x000000008019f0a0                con_sub_chan_menu
                0x000000008019f1d4                win_chan_help
                0x000000008019f16c                txt_chan_item3
                0x000000008019f070                g_win_chan_management
                0x000000008019f1ec                windows_chan_list
                0x000000008019f138                txt_chan_item2
 .data          0x000000008019f1fc      0x244 win_chanedit_action.o
                0x000000008019f22c                chanedit_action_con
                0x000000008019f2f8                chan_insert
                0x000000008019f32c                chan_skip
                0x000000008019f25c                title
                0x000000008019f1fc                g_win_chanedit_action
                0x000000008019f290                chan_num
                0x000000008019f3d8                multisel_skip
                0x000000008019f394                editfield_insert
                0x000000008019f2c4                chan_name
                0x000000008019f360                skip_fav
                0x000000008019f40c                multisel_fav
 .data          0x000000008019f440       0xe0 win_channel_info.o
                0x000000008019f4f0                items_value_str_id
                0x000000008019f4e0                items_name_str_id
                0x000000008019f470                channel_info_menu
                0x000000008019f50c                constellation_str
                0x000000008019f4d4                win_CI_help
                0x000000008019f4a0                txt_items_name
                0x000000008019f440                g_win_channel_info
 .data          0x000000008019f520      0x23c win_child_lock.o
                0x000000008019f680                childlock_back
                0x000000008019f750                windows_childlock_list
                0x000000008019f6e8                rd_chan_lock
                0x000000008019f64c                childlock_exit
                0x000000008019f5e4                childlock_comfire
                0x000000008019f580                tv_chan_lock
                0x000000008019f520                g_win_childlock
                0x000000008019f6b4                childlock_title_name
                0x000000008019f550                childlock_con
                0x000000008019f618                childlock_enter
                0x000000008019f5b4                childlock_action
                0x000000008019f71c                childlock_pwd_modify
 .data          0x000000008019f75c      0xa1c win_child_lock_list.o
                0x000000008019f838                childlock_list_item1
                0x000000008019fb28                childlock_list_flag4
                0x000000008019fd80                childlock_list_flag7
                0x000000008019fd4c                childlock_list_name7
                0x00000000801a0144                childlock_list_title_name
                0x000000008019f9f8                childlock_list_idx3
                0x00000000801a00a8                childlock_list_modify
                0x000000008019f930                childlock_list_idx2
                0x00000000801a0110                childlock_list_back
                0x000000008019ff70                childlock_list_idx10
                0x000000008019faf4                childlock_list_name4
                0x000000008019fd18                childlock_list_idx7
                0x000000008019fbbc                childlock_list_name5
                0x000000008019f964                childlock_list_name2
                0x000000008019fce8                childlock_list_item7
                0x000000008019f900                childlock_list_item2
                0x000000008019fedc                childlock_list_name9
                0x000000008019fa90                childlock_list_item4
                0x000000008019fc50                childlock_list_idx6
                0x00000000801a0008                childlock_list_scb
                0x000000008019f998                childlock_list_flag2
                0x000000008019fe78                childlock_list_item9
                0x000000008019f768                g_win_childlock_list
                0x000000008019ffa4                childlock_list_name10
                0x000000008019fa60                childlock_list_flag3
                0x000000008019fcb8                childlock_list_flag6
                0x000000008019fb88                childlock_list_idx5
                0x000000008019ff40                childlock_list_item10
                0x00000000801a0074                childlock_list_comfire
                0x000000008019f798                childlock_list_con
                0x000000008019f7f0                childlock_list_ol
                0x000000008019fea8                childlock_list_idx9
                0x000000008019f868                childlock_list_idx1
                0x000000008019fa2c                childlock_list_name3
                0x000000008019fc20                childlock_list_item6
                0x000000008019f89c                childlock_list_name1
                0x000000008019f9c8                childlock_list_item3
                0x000000008019fe48                childlock_list_flag8
                0x000000008019fe14                childlock_list_name8
                0x00000000801a00dc                childlock_list_exit
                0x000000008019fdb0                childlock_list_item8
                0x000000008019f8d0                childlock_list_flag1
                0x000000008019ff10                childlock_list_flag9
                0x000000008019fbf0                childlock_list_flag5
                0x000000008019fde0                childlock_list_idx8
                0x000000008019fc84                childlock_list_name6
                0x000000008019ffd8                childlock_list_flag10
                0x000000008019fac0                childlock_list_idx4
                0x00000000801a0044                childlock_list_action
                0x000000008019fb58                childlock_list_item5
 .data          0x00000000801a0178      0x2ac win_com.o
                0x00000000801a0280                menu_help_txt
                0x00000000801a01d8                title_txt
                0x00000000801a0324                preview_mute_bmp
                0x00000000801a020c                weekday_id
                0x00000000801a02b4                txt_preview
                0x00000000801a0178                title_con
                0x00000000801a021c                menu_help_back
                0x00000000801a03b4                preview_vol_bar
                0x00000000801a0354                preview_pause_bmp
                0x00000000801a02e8                info_preview
                0x00000000801a01a8                title_bmp
                0x00000000801a0384                preview_vol_bmp
                0x00000000801a0250                menu_help_bmp
                0x00000000801a03f4                preview_volume
 .data          0x00000000801a0424      0x3b8 win_com_list.o
                0x00000000801a0458                list_txt_fld1
                0x00000000801a05f8                list_txt_fld9
                0x00000000801a0694                list_flds
                0x00000000801a062c                list_txt_fld10
                0x00000000801a0590                list_txt_fld7
                0x00000000801a0528                list_txt_fld5
                0x00000000801a0778                list_title
                0x00000000801a055c                list_txt_fld6
                0x00000000801a0424                list_txt_fld0
                0x00000000801a048c                list_txt_fld2
                0x00000000801a070c                list_mark
                0x00000000801a07ac                g_win_com_lst
                0x00000000801a0660                list_txt_fld11
                0x00000000801a04c0                list_txt_fld3
                0x00000000801a06c4                g_ol_com_list
                0x00000000801a073c                list_bar
                0x00000000801a04f4                list_txt_fld4
                0x00000000801a05c4                list_txt_fld8
 .data          0x00000000801a07dc      0x160 win_com_popup.o
                0x00000000801a084c                win_popup_yes
                0x00000000801a08b4                win_popup_cancel
                0x00000000801a08e8                g_win_popup
                0x00000000801a07dc                win_popup_title_txt
                0x00000000801a0880                win_popup_no
                0x00000000801a0810                win_popup_msg_mbx
 .data          0x00000000801a093c      0x5e8 win_common_item.o
                0x00000000801a0afc                txt_item_name3
                0x00000000801a0acc                con_item3
                0x00000000801a0bc8                txt_item_value4
                0x00000000801a0c2c                txt_item_name5
                0x00000000801a0b30                txt_item_value3
                0x00000000801a099c                con_item1
                0x00000000801a09cc                txt_item_name1
                0x00000000801a0b64                con_item4
                0x00000000801a0c94                con_item6
                0x00000000801a0a00                txt_item_value1
                0x00000000801a0d5c                txt_item_name7
                0x00000000801a0d2c                con_item7
                0x00000000801a0e8c                txt_item_name9
                0x00000000801a0e5c                con_item9
                0x00000000801a0f18                tv_ratio
                0x00000000801a0a64                txt_item_name2
                0x00000000801a0f0c                tv_mode
                0x00000000801a0b94                txt_item_name4
                0x00000000801a093c                g_win_common_item
                0x00000000801a0c60                txt_item_value5
                0x00000000801a0cc4                txt_item_name6
                0x00000000801a0bfc                con_item5
                0x00000000801a0a34                con_item2
                0x00000000801a0df4                txt_item_name8
                0x00000000801a0e28                txt_item_value8
                0x00000000801a0cf8                txt_item_value6
                0x00000000801a096c                con_items
                0x00000000801a0d90                txt_item_value7
                0x00000000801a0ef4                win_com_item_help
                0x00000000801a0ec0                txt_item_value9
                0x00000000801a0a98                txt_item_value2
                0x00000000801a0dc4                con_item8
 .data          0x00000000801a0f24      0x270 win_displayset.o
                0x00000000801a10b8                display_scale
                0x00000000801a0f24                g_win_displayset
                0x00000000801a0fb8                displayset_action
                0x00000000801a1120                displayset_txt2
                0x00000000801a1050                displayset_exit
                0x00000000801a1188                tv_scale
                0x00000000801a0f84                displayset_title
                0x00000000801a1084                displayset_back
                0x00000000801a101c                displayset_modify
                0x00000000801a1154                bg_alpha
                0x00000000801a10ec                displayset_txt1
                0x00000000801a0f54                displayset_con
                0x00000000801a0fe8                displayset_comfire
 .data          0x00000000801a1194     0x1504 win_epg.o
                0x00000000801a1524                epg_prg_idx4
                0x00000000801a176c                epg_sch_item0
                0x00000000801a1624                epg_prg_item6
                0x00000000801a23b0                epg_help_name1
                0x00000000801a1e10                epg_sch_name8
                0x00000000801a20fc                epg_sch_time12
                0x00000000801a192c                epg_sch_time2
                0x00000000801a1994                Bitmapepg_6
                0x00000000801a1294                epg_prg_item0
                0x00000000801a1fa0                epg_sch_name10
                0x00000000801a135c                epg_prg_idx1
                0x00000000801a1390                epg_prg_name1
                0x00000000801a228c                epg_title_bg1
                0x00000000801a20cc                epg_sch_item12
                0x00000000801a1864                epg_sch_time1
                0x00000000801a124c                epg_prg_ol
                0x00000000801a24b0                epg_help_Bitmap1
                0x00000000801a1e44                Bitmapepg_11
                0x00000000801a1c80                epg_sch_name6
                0x00000000801a25a8                epg_help_name7
                0x00000000801a1abc                epg_sch_time4
                0x00000000801a1724                epg_sch_ol
                0x00000000801a11a0                g_win_epg
                0x00000000801a1d14                epg_sch_time7
                0x00000000801a1688                epg_prg_name6
                0x00000000801a247c                epg_help_name4
                0x00000000801a2034                epg_sch_time11
                0x00000000801a1654                epg_prg_idx6
                0x00000000801a1a28                epg_sch_name3
                0x00000000801a18cc                Bitmapepg_5
                0x00000000801a145c                epg_prg_item3
                0x00000000801a14f4                epg_prg_item4
                0x00000000801a209c                Bitmapepg_14
                0x00000000801a1834                epg_sch_item1
                0x00000000801a2448                epg_help_name3
                0x00000000801a22bc                epg_tilte_time_con
                0x00000000801a17d0                epg_sch_name0
                0x00000000801a1428                epg_prg_name2
                0x00000000801a18fc                epg_sch_item2
                0x00000000801a1c1c                epg_sch_item6
                0x00000000801a1ed8                epg_sch_name9
                0x00000000801a2130                epg_sch_name12
                0x00000000801a1bec                Bitmapepg_4
                0x00000000801a2068                epg_sch_name11
                0x00000000801a1fd4                Bitmapepg_13
                0x00000000801a1ea4                epg_sch_time9
                0x00000000801a1960                epg_sch_name2
                0x00000000801a13f4                epg_prg_idx2
                0x00000000801a1898                epg_sch_name1
                0x00000000801a1b54                epg_sch_item5
                0x00000000801a1f3c                epg_sch_item10
                0x00000000801a15f0                epg_prg_name5
                0x00000000801a1e74                epg_sch_item9
                0x00000000801a1b24                Bitmapepg_8
                0x00000000801a1d7c                Bitmapepg_10
                0x00000000801a25dc                epg_prg_items
                0x00000000801a1ce4                epg_sch_item7
                0x00000000801a222c                Bitmapepg_17
                0x00000000801a2350                epg_help_con
                0x00000000801a25f8                epg_sch_items
                0x00000000801a16bc                sch_con
                0x00000000801a1200                prg_con
                0x00000000801a1a5c                Bitmapepg_7
                0x00000000801a2668                epg_help1
                0x00000000801a158c                epg_prg_item5
                0x00000000801a2320                epg_title_bg2
                0x00000000801a148c                epg_prg_idx3
                0x00000000801a1558                epg_prg_name4
                0x00000000801a1dac                epg_sch_item8
                0x00000000801a19f4                epg_sch_time3
                0x00000000801a225c                epg_title_con
                0x00000000801a1b84                epg_sch_time5
                0x00000000801a21c4                epg_sch_time13
                0x00000000801a1d48                epg_sch_name7
                0x00000000801a1bb8                epg_sch_name5
                0x00000000801a13c4                epg_prg_item2
                0x00000000801a19c4                epg_sch_item3
                0x00000000801a1cb4                Bitmapepg_9
                0x00000000801a179c                epg_sch_time0
                0x00000000801a2004                epg_sch_item11
                0x00000000801a1ddc                epg_sch_time8
                0x00000000801a1f0c                Bitmapepg_12
                0x00000000801a12c4                epg_prg_idx0
                0x00000000801a2680                epg_help2
                0x00000000801a11d0                epg_bg
                0x00000000801a2544                epg_help_name6
                0x00000000801a14c0                epg_prg_name3
                0x00000000801a2514                epg_help_Bitmap2
                0x00000000801a2380                epg_help_item1
                0x00000000801a1af0                epg_sch_name4
                0x00000000801a2418                epg_help_item2
                0x00000000801a1c4c                epg_sch_time6
                0x00000000801a1f6c                epg_sch_time10
                0x00000000801a2630                epg_sch_names
                0x00000000801a1a8c                epg_sch_item4
                0x00000000801a2164                Bitmapepg_15
                0x00000000801a22ec                epg_title_time_txt
                0x00000000801a24e0                epg_help_name5
                0x00000000801a15bc                epg_prg_idx5
                0x00000000801a2578                epg_help_Bitmap3
                0x00000000801a132c                epg_prg_item1
                0x00000000801a1804                Bitmapepg_16
                0x00000000801a2194                epg_sch_item13
                0x00000000801a12f8                epg_prg_name0
                0x00000000801a23e4                epg_help_name2
                0x00000000801a21f8                epg_sch_name13
 .data          0x00000000801a2698      0x240 win_epg_detail.o
                0x00000000801a26c8                epg_detail_chan
                0x00000000801a26fc                epg_detail_event_name
                0x00000000801a2730                epg_detail_time
                0x00000000801a2698                epg_detail_chan_bmp
                0x00000000801a27cc                epg_detail_scb
                0x00000000801a2798                epg_detail_content
                0x00000000801a2874                epg_detail_help_txt
                0x00000000801a2764                epg_detail_lang
                0x00000000801a2808                epg_detail_info
                0x00000000801a2844                epg_detail_help_bmp
                0x00000000801a28a8                g_win_epg_detail
 .data          0x00000000801a28d8       0xec win_factory_set.o
                0x00000000801a2984                factoryset_btn_cancel
                0x00000000801a28e4                g_win_factoryset_con
                0x00000000801a2950                factoryset_btn_ok
                0x00000000801a2914                factoryset_mtxt
                0x00000000801a29b8                factory_set_help
 .data          0x00000000801a29c4      0x260 win_factoryset.o
                0x00000000801a2bf0                factory_reset
                0x00000000801a2a58                fac_msg_con
                0x00000000801a2b88                factoryset_back
                0x00000000801a29f4                factoryset_con
                0x00000000801a29c4                g_win_factoryset
                0x00000000801a2b54                factoryset_exit
                0x00000000801a2a24                factoryset_title
                0x00000000801a2b20                factoryset_modify
                0x00000000801a2bbc                factory_state
                0x00000000801a2aec                factoryset_comfire
                0x00000000801a2abc                factoryset_action
                0x00000000801a2a88                factoryset_msg
 .data          0x00000000801a2c24      0x3a0 win_freqset.o
                0x00000000801a2f10                freqset_modify
                0x00000000801a2e08                main_freq_con_item3
                0x00000000801a2fac                win_main_freq_help
                0x00000000801a2dc4                txt_mf_item_value2
                0x00000000801a2f44                freqset_exit
                0x00000000801a2d60                main_freq_con_item2
                0x00000000801a2d1c                txt_mf_item_value1
                0x00000000801a2e78                txt_mf_item_value3
                0x00000000801a2ce8                txt_mf_item_name1
                0x00000000801a2c84                main_freq_title
                0x00000000801a2d90                txt_mf_item_name2
                0x00000000801a2edc                freqset_comfire
                0x00000000801a2c54                main_freq_con_items
                0x00000000801a2c24                g_win_freqset
                0x00000000801a2cb8                main_freq_con_item1
                0x00000000801a2e38                txt_mf_item_name3
                0x00000000801a2eac                freqset_help
                0x00000000801a2f78                freqset_back
 .data          0x00000000801a2fc4      0x390 win_full_band_scan.o
                0x00000000801a3298                autosrch_sel4
                0x00000000801a3180                autosrch_item3
                0x00000000801a3060                autosrch_txt1
                0x00000000801a3000                autoscan_con
                0x00000000801a3094                autosrch_edt1
                0x00000000801a3030                autosrch_item1
                0x00000000801a3258                autosrch_txt4
                0x00000000801a333c                as_help
                0x00000000801a313c                autosrch_edt2
                0x00000000801a32cc                autosrch_item5
                0x00000000801a31e4                autosrch_edt3
                0x00000000801a3228                autosrch_item4
                0x00000000801a30d8                autosrch_item2
                0x00000000801a32fc                autosrch_txt5
                0x00000000801a3330                scan_model_type_ids
                0x00000000801a31b0                autosrch_txt3
                0x00000000801a3108                autosrch_txt2
                0x00000000801a2fd0                g_win_fullband_scan
 .data          0x00000000801a3354      0x29c win_game_com.o
                0x00000000801a3388                txt_title
                0x00000000801a34c0                txt_score2
                0x00000000801a33bc                txt_start
                0x00000000801a33f0                txt_setup
                0x00000000801a355c                txt_value3
                0x00000000801a348c                txt_score1
                0x00000000801a34f4                txt_value1
                0x00000000801a3458                txt_level
                0x00000000801a35c0                game_con_sub_menu
                0x00000000801a3528                txt_value2
                0x00000000801a3354                txt_playarea
                0x00000000801a3590                game_con
                0x00000000801a3424                txt_cancel
 .data          0x00000000801a35f0      0x12c win_games.o
                0x00000000801a3684                txt_game_item1
                0x00000000801a3620                con_game_sub_menu
                0x00000000801a35f0                g_win_games
                0x00000000801a3710                win_game_help_box_started
                0x00000000801a3704                win_game_help_othello_started
                0x00000000801a36b8                txt_game_item2
                0x00000000801a3650                txt_sm_game_title
                0x00000000801a36ec                win_game_help
 .data          0x00000000801a371c      0x1fc win_languageset.o
                0x00000000801a371c                g_win_languageset
                0x00000000801a374c                languageset_con
                0x00000000801a38e4                languageset_back
                0x00000000801a37b0                languageset_state
                0x00000000801a37e4                languageset_select
                0x00000000801a3848                languageset_comfire
                0x00000000801a377c                languageset_title
                0x00000000801a38b0                languageset_exit
                0x00000000801a3818                languageset_action
                0x00000000801a387c                languageset_modify
 .data          0x00000000801a3918      0x5c8 win_light_channel_list.o
                0x00000000801a3b78                lcl_item_txtnam3
                0x00000000801a3cdc                lcl_item_con6
                0x00000000801a3b44                lcl_item_txtidx3
                0x00000000801a3bac                lcl_item_con4
                0x00000000801a3ca8                lcl_item_txtnam5
                0x00000000801a3c74                lcl_item_txtidx5
                0x00000000801a3a7c                lcl_item_con2
                0x00000000801a3918                g_win_light_chanlist
                0x00000000801a3ae0                lcl_item_txtnam2
                0x00000000801a3e70                lcl_item_txtnam8
                0x00000000801a3aac                lcl_item_txtidx2
                0x00000000801a3b14                lcl_item_con3
                0x00000000801a399c                lcl_item_list
                0x00000000801a3e0c                lcl_item_con8
                0x00000000801a3e3c                lcl_item_txtidx8
                0x00000000801a3c44                lcl_item_con5
                0x00000000801a3da4                lcl_item_txtidx7
                0x00000000801a3bdc                lcl_item_txtidx4
                0x00000000801a3c10                lcl_item_txtnam4
                0x00000000801a3a48                lcl_item_txtnam1
                0x00000000801a3a14                lcl_item_txtidx1
                0x00000000801a3dd8                lcl_item_txtnam7
                0x00000000801a3948                lcl_title
                0x00000000801a3ea4                lcl_list_bar
                0x00000000801a3d40                lcl_item_txtnam6
                0x00000000801a3d0c                lcl_item_txtidx6
                0x00000000801a39e4                lcl_item_con1
                0x00000000801a3d74                lcl_item_con7
 .data          0x00000000801a3ee0      0x344 win_mainmenu.o
                0x00000000801a3f1c                Bitmap_logo_right
                0x00000000801a409c                mm_item_con3
                0x00000000801a41d0                mm_item_bmps
                0x00000000801a3f7c                Bitmap_logo_left
                0x00000000801a41bc                mm_menu_items
                0x00000000801a412c                mm_item_bmp4
                0x00000000801a3eec                g_win_mainmenu
                0x00000000801a3fac                preview_con
                0x00000000801a406c                mm_item_bmp2
                0x00000000801a403c                mm_item_con2
                0x00000000801a418c                mm_item_bmp5
                0x00000000801a415c                mm_item_con5
                0x00000000801a3f4c                Bitmap_logo_top
                0x00000000801a4204                mm_windows_list
                0x00000000801a40fc                mm_item_con4
                0x00000000801a40cc                mm_item_bmp3
                0x00000000801a41e4                mm_item_bmp_ids
                0x00000000801a400c                mm_item_bmp1
                0x00000000801a3fdc                mm_item_con1
 .data          0x00000000801a4224      0x3fc win_manual_search.o
                0x00000000801a460c                search_set_items
                0x00000000801a44a8                txt_ms_item_name4
                0x00000000801a454c                txt_ms_item_name5
                0x00000000801a42c0                txt_ms_item_name1
                0x00000000801a45b4                search_set_txt
                0x00000000801a4478                main_search_con_item4
                0x00000000801a451c                main_search_con_item5
                0x00000000801a4400                txt_ms_item_name3
                0x00000000801a45f4                win_main_search_help
                0x00000000801a4434                txt_ms_item_value3
                0x00000000801a438c                txt_ms_item_value2
                0x00000000801a4328                main_search_con_item2
                0x00000000801a4260                manual_search_con_items
                0x00000000801a44e8                txt_ms_item_value4
                0x00000000801a4358                txt_ms_item_name2
                0x00000000801a45e8                ms_model_type_ids
                0x00000000801a42f4                txt_ms_item_value1
                0x00000000801a4580                txt_ms_item_value5
                0x00000000801a4290                main_search_con_item1
                0x00000000801a4230                g_win_manual_search
                0x00000000801a43d0                main_search_con_item3
 .data          0x00000000801a4620      0x430 win_manual_update.o
                0x00000000801a47c0                txt_mu_item_value2
                0x00000000801a4950                manual_update_help
                0x00000000801a4a1c                manual_update_back
                0x00000000801a46e4                txt_mu_item_name1
                0x00000000801a4804                manual_update_con_item3
                0x00000000801a4650                manual_update_con
                0x00000000801a4620                g_win_manual_update
                0x00000000801a475c                manual_update_con_item2
                0x00000000801a49b4                manual_update_modify
                0x00000000801a4834                txt_mu_item_name3
                0x00000000801a4718                txt_mu_item_value1
                0x00000000801a4874                txt_mu_item_value3
                0x00000000801a49e8                manual_update_exit
                0x00000000801a46b4                manual_update_con_item1
                0x00000000801a4680                manual_update_title
                0x00000000801a4980                manual_update_comfire
                0x00000000801a48a8                manual_update_con_item4
                0x00000000801a478c                txt_mu_item_name2
                0x00000000801a490c                txt_mu_item_value4
                0x00000000801a48d8                txt_mu_item_name4
 .data          0x00000000801a4a50       0x30 win_mute.o
                0x00000000801a4a50                win_mute_bmp
 .data          0x00000000801a4a80      0x4c0 win_new_signal.o
                0x00000000801a4ca0                txt_signal_item22
                0x00000000801a4ab0                main_item
                0x00000000801a4e70                txt_signal_title1
                0x00000000801a4dd4                signal_txt_CN11
                0x00000000801a4b44                txt_signal_item00
                0x00000000801a4bb8                txt_signal_item1
                0x00000000801a4f0c                txt_signal_title4
                0x00000000801a4e3c                txt_signal_title0
                0x00000000801a4e08                signal_txt_BER22
                0x00000000801a4bec                txt_signal_item11
                0x00000000801a4da0                signal_txt_level00
                0x00000000801a4b10                txt_signal_item0
                0x00000000801a4c30                main_list_item2
                0x00000000801a4b88                main_list_item1
                0x00000000801a4d38                signal_txt_CN
                0x00000000801a4a80                g_win_signal0
                0x00000000801a4ea4                txt_signal_title2
                0x00000000801a4d04                signal_txt_level
                0x00000000801a4d6c                signal_txt_BER
                0x00000000801a4ed8                txt_signal_title3
                0x00000000801a4c60                txt_signal_item2
                0x00000000801a4ae0                main_list_item0
                0x00000000801a4cd4                win_signal_level
 .data          0x00000000801a4f40      0x288 win_new_signal_test.o
                0x00000000801a4f70                g_new_signal_test_con
                0x00000000801a50fc                g_new_signal_test_con0
                0x00000000801a5160                new_sig_txt_CN0
                0x00000000801a5194                new_sig_txt_BER0
                0x00000000801a4fa0                new_sig_bar_level
                0x00000000801a4fe0                new_sig_txt_level
                0x00000000801a4f40                g_new_signal_test
                0x00000000801a5088                new_sig_bar_BER
                0x00000000801a5054                new_sig_txt_CN
                0x00000000801a50c8                new_sig_txt_BER
                0x00000000801a5014                new_sig_bar_CN
                0x00000000801a512c                new_sig_txt_level0
 .data          0x00000000801a51c8      0xb80 win_nvod.o
                0x00000000801a524c                nvod_ref_event_ol
                0x00000000801a58bc                nvod_sch_time1
                0x00000000801a5cb8                nvod_mute_bmp
                0x00000000801a5428                nvod_prg_name2
                0x00000000801a565c                nvod_sch_title_time
                0x00000000801a5720                nvod_sch_scb
                0x00000000801a558c                nvod_cur_prog_bmp
                0x00000000801a578c                nvod_sch_date0
                0x00000000801a55bc                nvod_prg_scb
                0x00000000801a59ec                nvod_book_bmp2
                0x00000000801a56d8                nvod_sch_ol
                0x00000000801a5ab4                nvod_sch_time3
                0x00000000801a5a50                nvod_sch_item3
                0x00000000801a5558                nvod_prg_name4
                0x00000000801a5888                nvod_sch_date1
                0x00000000801a55f8                nvod_sch_title
                0x00000000801a5204                nvod_ref_event_con
                0x00000000801a5920                nvod_sch_status1
                0x00000000801a5524                nvod_prg_idx4
                0x00000000801a5c84                nvod_time_remain
                0x00000000801a5be4                nvod_book_bmp4
                0x00000000801a5294                nvod_prg_item0
                0x00000000801a5d30                nvod_help
                0x00000000801a5c48                nvod_ref_event_detail
                0x00000000801a5c14                nvod_sch_status4
                0x00000000801a5858                nvod_sch_item1
                0x00000000801a57c0                nvod_sch_time0
                0x00000000801a5390                nvod_prg_name1
                0x00000000801a58f0                nvod_book_bmp1
                0x00000000801a5690                nvod_sch_title_status
                0x00000000801a52c4                nvod_prg_idx0
                0x00000000801a53f4                nvod_prg_idx2
                0x00000000801a545c                nvod_prg_item3
                0x00000000801a5ae8                nvod_book_bmp3
                0x00000000801a535c                nvod_prg_idx1
                0x00000000801a53c4                nvod_prg_item2
                0x00000000801a5ce8                nvod_help_info
                0x00000000801a5bb0                nvod_sch_time4
                0x00000000801a5984                nvod_sch_date2
                0x00000000801a5824                nvod_sch_status0
                0x00000000801a5a1c                nvod_sch_status2
                0x00000000801a5b7c                nvod_sch_date4
                0x00000000801a59b8                nvod_sch_time2
                0x00000000801a548c                nvod_prg_idx3
                0x00000000801a575c                nvod_sch_item0
                0x00000000801a5628                nvod_sch_title_date
                0x00000000801a57f4                nvod_book_bmp0
                0x00000000801a5d1c                nvod_sch_status
                0x00000000801a54c0                nvod_prg_name3
                0x00000000801a54f4                nvod_prg_item4
                0x00000000801a52f8                nvod_prg_name0
                0x00000000801a5954                nvod_sch_item2
                0x00000000801a5b4c                nvod_sch_item4
                0x00000000801a532c                nvod_prg_item1
                0x00000000801a5b18                nvod_sch_status3
                0x00000000801a5a80                nvod_sch_date3
                0x00000000801a51d4                g_win_nvod
 .data          0x00000000801a5d48       0xd4 win_nvod_detail.o
                0x00000000801a5d78                nvod_detail_title
                0x00000000801a5d48                g_win_detail
                0x00000000801a5dac                nvod_detail_ref_name
                0x00000000801a5de0                nvod_mtext_detail
 .data          0x00000000801a5e1c      0x1b4 win_nvod_event_bar.o
                0x00000000801a5ef4                nvod_event_time_span
                0x00000000801a5e28                g_win_nvod_event_name
                0x00000000801a5e58                nvod_event_bar_itle
                0x00000000801a5f28                nvod_vent_bar
                0x00000000801a5f68                nvod_event_cur_time
                0x00000000801a5ec0                nvod_event_length
                0x00000000801a5e8c                nvod_event_name
                0x00000000801a5f9c                nvod_event_str_val
 .data          0x00000000801a5fd0       0xac win_nvod_warn.o
                0x00000000801a6004                g_win_nvod_warn
                0x00000000801a5fd0                nvod_warn_txt
 .data          0x00000000801a607c      0x180 win_password.o
                0x00000000801a6124                pwd_bmp
                0x00000000801a60ac                pwd_title
                0x00000000801a6154                passwd_help
                0x00000000801a607c                g_win_pwd_con
                0x00000000801a6184                pwd_back
                0x00000000801a61b8                pwd_exit
                0x00000000801a60e0                pwd_edt
 .data          0x00000000801a61fc       0x30 win_pause.o
                0x00000000801a61fc                win_pause_bmp
 .data          0x00000000801a622c       0xe0 win_prog_input.o
                0x00000000801a62f8                mm_pro_input_bmp_ids
                0x00000000801a62c8                pro_input_bmap3
                0x00000000801a6268                pro_input_bmap1
                0x00000000801a6298                pro_input_bmap2
                0x00000000801a6238                g_win_proginput
 .data          0x00000000801a630c      0x294 win_prog_name.o
                0x00000000801a6444                epg_time_now
                0x00000000801a63ac                prog_time
                0x00000000801a64e0                epg_now
                0x00000000801a6514                Bitmappr2
                0x00000000801a6378                prog_name
                0x00000000801a6348                prog_bmp
                0x00000000801a6478                epg_time_next
                0x00000000801a64ac                epg_next
                0x00000000801a63e0                prog_num
                0x00000000801a6318                g_win_progname
                0x00000000801a6414                ContainerPRG_1
 .data          0x00000000801a65a0      0x154 win_prog_search.o
                0x00000000801a6668                txt_ps_item2
                0x00000000801a66e8                windows_ps_list
                0x00000000801a65d0                con_sub_ps_menu
                0x00000000801a669c                txt_ps_item3
                0x00000000801a65a0                g_win_prog_search
                0x00000000801a6600                txt_sm_ps_title
                0x00000000801a66d0                win_ps_help
                0x00000000801a6634                txt_ps_item1
 .data          0x00000000801a66f4      0x290 win_pwd_set.o
                0x00000000801a67b8                par_item_txtset3
                0x00000000801a6784                par_item_txtname3
                0x00000000801a68e8                pwdset_exit
                0x00000000801a6754                par_item_con3
                0x00000000801a691c                pwdset_title_name
                0x00000000801a6950                pwdset_msg
                0x00000000801a6724                win_pwd_con
                0x00000000801a6850                par_item_txtset4
                0x00000000801a67ec                par_item_con4
                0x00000000801a6884                pwdset_help
                0x00000000801a68b4                pwdset_back
                0x00000000801a66f4                g_win_pwd
                0x00000000801a681c                par_item_txtname4
 .data          0x00000000801a6984      0xe1c win_reserve_manage.o
                0x00000000801a769c                reserve_help_name5
                0x00000000801a7508                Reservetitile
                0x00000000801a7604                reserve_help_name3
                0x00000000801a6eb4                reserve_time4
                0x00000000801a6a60                reserve_item0
                0x00000000801a6a90                reserve_idx0
                0x00000000801a6db8                reserve_time3
                0x00000000801a7270                reserve_idx8
                0x00000000801a6c28                reserve_flag1
                0x00000000801a71a8                reserve_time7
                0x00000000801a6c88                reserve_idx2
                0x00000000801a7210                reserve_flag7
                0x00000000801a71dc                reserve_name7
                0x00000000801a69c0                reserve_ol_con
                0x00000000801a72d8                reserve_name8
                0x00000000801a6c58                reserve_item2
                0x00000000801a6b5c                reserve_item1
                0x00000000801a6a18                reserve_ol
                0x00000000801a6d24                reserve_flag2
                0x00000000801a6dec                reserve_name3
                0x00000000801a6cbc                reserve_time2
                0x00000000801a7114                reserve_flag6
                0x00000000801a6ee8                reserve_name4
                0x00000000801a753c                reserve_help_con1
                0x00000000801a6e20                reserve_flag3
                0x00000000801a7638                reserve_help_name4
                0x00000000801a6e80                reserve_idx4
                0x00000000801a6b8c                reserve_idx1
                0x00000000801a72a4                reserve_time8
                0x00000000801a74a0                reserve_title2
                0x00000000801a7144                reserve_item7
                0x00000000801a7078                reserve_idx6
                0x00000000801a73a0                reserve_time9
                0x00000000801a736c                reserve_idx9
                0x00000000801a6f4c                reserve_item5
                0x00000000801a6cf0                reserve_name2
                0x00000000801a6fe4                reserve_name5
                0x00000000801a6d84                reserve_idx3
                0x00000000801a6af8                reserve_name0
                0x00000000801a746c                reserve_title1
                0x00000000801a6990                g_win_reserve
                0x00000000801a6e50                reserve_item4
                0x00000000801a766c                reserve_Bitmap1
                0x00000000801a730c                reserve_flag8
                0x00000000801a75a0                reserve_help_name2
                0x00000000801a6f1c                reserve_flag4
                0x00000000801a70e0                reserve_name6
                0x00000000801a70ac                reserve_time6
                0x00000000801a733c                reserve_item9
                0x00000000801a7240                reserve_item8
                0x00000000801a7408                reserve_flag9
                0x00000000801a7174                reserve_idx7
                0x00000000801a6f7c                reserve_idx5
                0x00000000801a76d0                del_flag
                0x00000000801a7018                reserve_flag5
                0x00000000801a75d4                reserve_help_con2
                0x00000000801a6b2c                reserve_flag0
                0x00000000801a6bc0                reserve_time1
                0x00000000801a7438                reserve_title0
                0x00000000801a7048                reserve_item6
                0x00000000801a6ac4                reserve_time0
                0x00000000801a756c                reserve_help_name1
                0x00000000801a6fb0                reserve_time5
                0x00000000801a73d4                reserve_name9
                0x00000000801a74d4                reserve_title4
                0x00000000801a6d54                reserve_item3
                0x00000000801a6bf4                reserve_name1
 .data          0x00000000801a77a0      0x4d8 win_search.o
                0x00000000801a79d0                list_item1_txt4
                0x00000000801a780c                srch_info
                0x00000000801a7a98                list_item1_txt6
                0x00000000801a77dc                search_con
                0x00000000801a7c30                Search_Set_title
                0x00000000801a7b94                srch_txt_symbol_val
                0x00000000801a7a04                prog_list_item5
                0x00000000801a7874                prog_list_item1
                0x00000000801a79a0                prog_list_item4
                0x00000000801a78d8                prog_list_item2
                0x00000000801a7b30                srch_con_condition
                0x00000000801a7b60                srch_txt_freq_val
                0x00000000801a7908                list_item1_txt2
                0x00000000801a7a34                list_item1_txt5
                0x00000000801a7840                srch_radio_back
                0x00000000801a7acc                prog_list_item7
                0x00000000801a7bfc                srch_progress_txt
                0x00000000801a78a4                list_item1_txt1
                0x00000000801a7a68                prog_list_item6
                0x00000000801a7bc8                srch_txt_qam_val
                0x00000000801a7afc                list_item1_txt7
                0x00000000801a796c                list_item1_txt3
                0x00000000801a77ac                g_win_search
                0x00000000801a793c                prog_list_item3
 .data          0x00000000801a7c78      0x258 win_signal.o
                0x00000000801a7cd8                sig_txt_CN
                0x00000000801a7db4                sig_bar_BER
                0x00000000801a7e28                sig_txt_level
                0x00000000801a7ca8                g_win_signal_con
                0x00000000801a7d80                sig_txt_BER
                0x00000000801a7c78                g_win_signal
                0x00000000801a7df4                sig_txt_BER_uint
                0x00000000801a7d0c                sig_bar_CN
                0x00000000801a7d4c                sig_txt_CN_uint
                0x00000000801a7e9c                sig_txt_level_uint
                0x00000000801a7e5c                sig_bar_level
 .data          0x00000000801a7ed0      0x66c win_signal_test.o
                0x00000000801a8438                signal_test_time4
                0x00000000801a80a0                signal_test_brief0
                0x00000000801a846c                signal_test_name4
                0x00000000801a81d4                signal_test_item2
                0x00000000801a8238                signal_test_time2
                0x00000000801a81a0                signal_test_brief1
                0x00000000801a816c                signal_test_name1
                0x00000000801a8104                signal_test_idx1
                0x00000000801a8404                signal_test_idx4
                0x00000000801a84d4                signal_test_txt
                0x00000000801a82d4                signal_test_item3
                0x00000000801a84a0                signal_test_brief4
                0x00000000801a7edc                g_win_signal_test
                0x00000000801a7f50                signal_test_ol
                0x00000000801a8508                signal_test_help
                0x00000000801a82a0                signal_test_brief2
                0x00000000801a8304                signal_test_idx3
                0x00000000801a8338                signal_test_time3
                0x00000000801a7fd4                signal_test_item0
                0x00000000801a8004                signal_test_idx0
                0x00000000801a806c                signal_test_name0
                0x00000000801a7f98                signal_test_scb
                0x00000000801a80d4                signal_test_item1
                0x00000000801a7f0c                signal_test_ol_con
                0x00000000801a83d4                signal_test_item4
                0x00000000801a83a0                signal_test_brief3
                0x00000000801a826c                signal_test_name2
                0x00000000801a8038                signal_test_time0
                0x00000000801a8204                signal_test_idx2
                0x00000000801a836c                signal_test_name3
                0x00000000801a8138                signal_test_time1
 .data          0x00000000801a853c       0xa0 win_signalstatus.o
                0x00000000801a85ac                g_win_sigstatus
                0x00000000801a8548                sigstatus_bmp1
                0x00000000801a8578                sigstatus_txt
 .data          0x00000000801a85dc      0x100 win_stb_info.o
                0x00000000801a86b8                items_name_string_id
                0x00000000801a85dc                g_win_stb_info
                0x00000000801a8670                libcore_info
                0x00000000801a863c                txt_item_name
                0x00000000801a86c4                items_value_str
                0x00000000801a86ac                win_SI_help
                0x00000000801a860c                stb_info_menu
 .data          0x00000000801a86dc      0x3a4 win_sys_information.o
                0x00000000801a873c                txt_sm_info_title
                0x00000000801a8838                txt_info_item2
                0x00000000801a899c                txt_info_item8
                0x00000000801a886c                txt_info_item6
                0x00000000801a89d8                sysinfo_help
                0x00000000801a8938                con_sysinfo_item4
                0x00000000801a8a70                sysinfo_value_str
                0x00000000801a8968                txt_info_item4
                0x00000000801a88a0                con_sysinfo_item3
                0x00000000801a8904                txt_info_item7
                0x00000000801a870c                con_info_sub_menu
                0x00000000801a8808                con_sysinfo_item2
                0x00000000801a88d0                txt_info_item3
                0x00000000801a8a08                sysinfo_back
                0x00000000801a8770                con_sysinfo_item1
                0x00000000801a87a0                txt_info_item1
                0x00000000801a87d4                txt_info_item5
                0x00000000801a86dc                g_win_sys_information
                0x00000000801a8a3c                sysinfo_exit
 .data          0x00000000801a8a80      0x1c4 win_sys_items.o
                0x00000000801a8be4                txt_sitem_item5
                0x00000000801a8c30                items_list
                0x00000000801a8ab0                con_sitem_sub_menu
                0x00000000801a8b14                txt_sitem_item1
                0x00000000801a8bb0                txt_sitem_item4
                0x00000000801a8ae0                txt_sm_sitem_title
                0x00000000801a8a80                g_win_sys_items
                0x00000000801a8c18                win_items_help
                0x00000000801a8b48                txt_sitem_item2
                0x00000000801a8b7c                txt_sitem_item3
 .data          0x00000000801a8c44      0x304 win_system_management.o
                0x00000000801a8cd4                con_sub_menu
                0x00000000801a8e3c                txt_item7
                0x00000000801a8e70                txt_item8
                0x00000000801a8d6c                txt_item3
                0x00000000801a8e08                txt_item6
                0x00000000801a8c74                sys_man_Bitmap2
                0x00000000801a8da0                txt_item4
                0x00000000801a8f24                windows_list
                0x00000000801a8ca4                sys_man_Bitmap1
                0x00000000801a8c44                g_win_sys_management
                0x00000000801a8ea4                txt_item9
                0x00000000801a8d38                txt_item2
                0x00000000801a8ed8                txt_sub_menu_title
                0x00000000801a8d04                txt_item1
                0x00000000801a8dd4                txt_item5
                0x00000000801a8f0c                win_sys_help
 .data          0x00000000801a8f48      0x48c win_timer_set.o
                0x00000000801a9250                timer_edf_wakeuptime
                0x00000000801a92c4                timer_txt_duration
                0x00000000801a91a8                timer_edf_wakeupdate
                0x00000000801a9144                timer_con_wakeupdate
                0x00000000801a9370                timer_cancel
                0x00000000801a90dc                timer_txt_serviceinfo
                0x00000000801a933c                timer_ok
                0x00000000801a91ec                timer_con_wakeuptime
                0x00000000801a9294                timer_con_duration
                0x00000000801a9044                timer_txt_servicetype
                0x00000000801a90ac                timer_con_serviceinfo
                0x00000000801a9014                timer_con_servicetype
                0x00000000801a8f7c                timer_con_mode
                0x00000000801a9078                timer_msel_servicetype
                0x00000000801a9174                timer_txt_wakeupdate
                0x00000000801a9110                timer_msel_serviceinfo
                0x00000000801a8f48                timer_cur_datetime
                0x00000000801a8fac                timer_txt_mode
                0x00000000801a92f8                timer_edf_duration
                0x00000000801a8fe0                timer_msel_mode
                0x00000000801a93a4                g_win_timerset
                0x00000000801a921c                timer_txt_wakeuptime
 .data          0x00000000801a93d4      0x114 win_volumebar.o
                0x00000000801a9410                volumebar_bmap
                0x00000000801a94a8                volumebar_progressbar
                0x00000000801a9474                volumebar_txt2
                0x00000000801a93e0                g_win_volume
                0x00000000801a9440                volumebar_txt1
 .data          0x00000000801a94e8       0x64 win_infomation.o
                0x00000000801a9518                gwf_nit_value
                0x00000000801a94e8                g_win_information
 .data          0x00000000801a954c       0x50 ../../../../../sdk/boot.o
                0x00000000801a9594                product_feature
 .data          0x00000000801a959c       0x10 /d/3202c/prj/app/demo/dvbc/jade_demo_new_geeya/mcf_data_broadcast_3202c//release/lib//libgycas.a(gycas_api.o)
 .data          0x00000000801a95ac        0xc /d/3202c/prj/app/demo/dvbc/jade_demo_new_geeya/mcf_data_broadcast_3202c//release/lib//libgycas.a(gycas_ecm.o)
 .data          0x00000000801a95b8       0x18 /d/3202c/prj/app/demo/dvbc/jade_demo_new_geeya/mcf_data_broadcast_3202c//release/lib//libgycas.a(gycas_smc.o)
 .data          0x00000000801a95d0       0x24 /d/3202c/prj/app/demo/dvbc/jade_demo_new_geeya/mcf_data_broadcast_3202c//release/lib//libgycas.a(gycas_smc_drv.o)
 .data          0x00000000801a95f4      0x3ec /d/3202c/prj/app/demo/dvbc/jade_demo_new_geeya/mcf_data_broadcast_3202c//release/lib//libgycas.a(gycas_vm.o)
                0x00000000801a95f4                TABLE_BIN
                0x00000000801a96f0                TABLE_POSITION
 .data          0x00000000801a99e0      0x968 /d/3202c/prj/app/demo/dvbc/jade_demo_new_geeya/mcf_data_broadcast_3202c//release/lib//libgycas.a(gycas_des.o)
 .data          0x00000000801aa348       0x10 /d/3202c/prj/app/demo/dvbc/jade_demo_new_geeya/mcf_data_broadcast_3202c//release/lib//liball.a(i2c_gpio.o)
 .data          0x00000000801aa358       0x10 /d/3202c/prj/app/demo/dvbc/jade_demo_new_geeya/mcf_data_broadcast_3202c//release/lib//liball.a(i2c_scb.o)
 .data          0x00000000801aa368       0x18 /d/3202c/prj/app/demo/dvbc/jade_demo_new_geeya/mcf_data_broadcast_3202c//release/lib//liball.a(sci_16550uart.o)
 .data          0x00000000801aa380        0xc /d/3202c/prj/app/demo/dvbc/jade_demo_new_geeya/mcf_data_broadcast_3202c//release/lib//liball.a(decv.o)
 .data          0x00000000801aa38c       0xd0 /d/3202c/prj/app/demo/dvbc/jade_demo_new_geeya/mcf_data_broadcast_3202c//release/lib//liball.a(lib_ashcmd.o)
                0x00000000801aa40c                lib_ash_command_old
                0x00000000801aa38c                lib_ash_command
 .data          0x00000000801aa45c        0xc /d/3202c/prj/app/demo/dvbc/jade_demo_new_geeya/mcf_data_broadcast_3202c//release/lib//liball.a(imagedec.o)
 .data          0x00000000801aa468       0xc0 /d/3202c/prj/app/demo/dvbc/jade_demo_new_geeya/mcf_data_broadcast_3202c//release/lib//liball.a(imagedec_main.o)
 .data          0x00000000801aa528       0x24 /d/3202c/prj/app/demo/dvbc/jade_demo_new_geeya/mcf_data_broadcast_3202c//release/lib//liball.a(imagedec_show.o)
 .data          0x00000000801aa54c        0xc /d/3202c/prj/app/demo/dvbc/jade_demo_new_geeya/mcf_data_broadcast_3202c//release/lib//liball.a(imagedec_sub.o)
 .data          0x00000000801aa558        0xc /d/3202c/prj/app/demo/dvbc/jade_demo_new_geeya/mcf_data_broadcast_3202c//release/lib//liball.a(imagedec_trans_dup.o)
 .data          0x00000000801aa564        0xc /d/3202c/prj/app/demo/dvbc/jade_demo_new_geeya/mcf_data_broadcast_3202c//release/lib//liball.a(lib_cc.o)
 .data          0x00000000801aa570        0xc /d/3202c/prj/app/demo/dvbc/jade_demo_new_geeya/mcf_data_broadcast_3202c//release/lib//liball.a(lib_frontend.o)
 .data          0x00000000801aa57c        0xc /d/3202c/prj/app/demo/dvbc/jade_demo_new_geeya/mcf_data_broadcast_3202c//release/lib//liball.a(lib_hde.o)
 .data          0x00000000801aa588        0xc /d/3202c/prj/app/demo/dvbc/jade_demo_new_geeya/mcf_data_broadcast_3202c//release/lib//liball.a(lib_monitor.o)
 .data          0x00000000801aa594       0xbc /d/3202c/prj/app/demo/dvbc/jade_demo_new_geeya/mcf_data_broadcast_3202c//release/lib//liball.a(gy_catask.o)
                0x00000000801aa594                cas_ecm_pid
                0x00000000801aa5a0                gycas_osdinfo
                0x00000000801aa63c                gycas_fingerinfo
 .data          0x00000000801aa650       0x48 /d/3202c/prj/app/demo/dvbc/jade_demo_new_geeya/mcf_data_broadcast_3202c//release/lib//liball.a(string.o)
 .data          0x00000000801aa698     0x7454 /d/3202c/prj/app/demo/dvbc/jade_demo_new_geeya/mcf_data_broadcast_3202c//release/lib//liball.a(gb_2312.o)
 .data          0x00000000801b1aec      0xa04 /d/3202c/prj/app/demo/dvbc/jade_demo_new_geeya/mcf_data_broadcast_3202c//release/lib//liball.a(lib_char.o)
 .data          0x00000000801b24f0       0x1c /d/3202c/prj/app/demo/dvbc/jade_demo_new_geeya/mcf_data_broadcast_3202c//release/lib//liball.a(lib_nvod.o)
 .data          0x00000000801b250c        0xc /d/3202c/prj/app/demo/dvbc/jade_demo_new_geeya/mcf_data_broadcast_3202c//release/lib//liball.a(psi_db.o)
 .data          0x00000000801b2518       0x54 /d/3202c/prj/app/demo/dvbc/jade_demo_new_geeya/mcf_data_broadcast_3202c//release/lib//liball.a(sie_monitor_core.o)
                0x00000000801b255c                es_desc_info
                0x00000000801b2518                pid_tid_parser
 .data          0x00000000801b256c       0x10 /d/3202c/prj/app/demo/dvbc/jade_demo_new_geeya/mcf_data_broadcast_3202c//release/lib//liball.a(si_search.o)
 .data          0x00000000801b257c        0xc /d/3202c/prj/app/demo/dvbc/jade_demo_new_geeya/mcf_data_broadcast_3202c//release/lib//liball.a(si_tdt.o)
 .data          0x00000000801b2588        0xc /d/3202c/prj/app/demo/dvbc/jade_demo_new_geeya/mcf_data_broadcast_3202c//release/lib//liball.a(lib_ota.o)
 .data          0x00000000801b2594       0x38 /d/3202c/prj/app/demo/dvbc/jade_demo_new_geeya/mcf_data_broadcast_3202c//release/lib//liball.a(ge_draw_primitive.o)
                0x00000000801b2594                gui_keycolor
                0x00000000801b25b0                transcolor_const
 .data          0x00000000801b25cc       0x20 /d/3202c/prj/app/demo/dvbc/jade_demo_new_geeya/mcf_data_broadcast_3202c//release/lib//liball.a(obj_editfield.o)
 .data          0x00000000801b25ec       0x18 /d/3202c/prj/app/demo/dvbc/jade_demo_new_geeya/mcf_data_broadcast_3202c//release/lib//liball.a(obj_multitext.o)
 .data          0x00000000801b2604       0x38 /d/3202c/prj/app/demo/dvbc/jade_demo_new_geeya/mcf_data_broadcast_3202c//release/lib//liball.a(osd_lib.o)
 .data          0x00000000801b263c       0x10 /d/3202c/prj/app/demo/dvbc/jade_demo_new_geeya/mcf_data_broadcast_3202c//release/lib//liball.a(nim_s3202.o)
 .data          0x00000000801b264c       0x68 /d/3202c/prj/app/demo/dvbc/jade_demo_new_geeya/mcf_data_broadcast_3202c//release/lib//liball.a(pan_ct1642.o)
                0x00000000801b264c                bitmap_table_ct1642
 .data          0x00000000801b26b4       0xd4 /d/3202c/prj/app/demo/dvbc/jade_demo_new_geeya/mcf_data_broadcast_3202c//release/lib//liball.a(pan_tp6x0.o)
 .data          0x00000000801b2788      0x320 /d/3202c/prj/app/demo/dvbc/jade_demo_new_geeya/mcf_data_broadcast_3202c//release/lib//liball.a(smartcard.o)
 .data          0x00000000801b2aa8       0x10 /d/3202c/prj/app/demo/dvbc/jade_demo_new_geeya/mcf_data_broadcast_3202c//release/lib//liball.a(flash_sl.o)
 .data          0x00000000801b2ab8        0xc /d/3202c/prj/app/demo/dvbc/jade_demo_new_geeya/mcf_data_broadcast_3202c//release/lib//liball.a(imagedec_acc.o)
 .data          0x00000000801b2ac4        0xc /d/3202c/prj/app/demo/dvbc/jade_demo_new_geeya/mcf_data_broadcast_3202c//release/lib//liball.a(imagedec_exif.o)
 .data          0x00000000801b2ad0       0x14 /d/3202c/prj/app/demo/dvbc/jade_demo_new_geeya/mcf_data_broadcast_3202c//release/lib//liball.a(png_filter.o)
 .data          0x00000000801b2ae4       0xe0 /d/3202c/prj/app/demo/dvbc/jade_demo_new_geeya/mcf_data_broadcast_3202c//release/lib//liball.a(png_huf_table.o)
 .data          0x00000000801b2bc4        0xc /d/3202c/prj/app/demo/dvbc/jade_demo_new_geeya/mcf_data_broadcast_3202c//release/lib//liball.a(lib_multiview.o)
 .data          0x00000000801b2bd0      0x39c /d/3202c/prj/app/demo/dvbc/jade_demo_new_geeya/mcf_data_broadcast_3202c//release/lib//liball.a(iso_5937.o)
 .data          0x00000000801b2f6c      0x130 /d/3202c/prj/app/demo/dvbc/jade_demo_new_geeya/mcf_data_broadcast_3202c//release/lib//liball.a(Thai.o)
 .data          0x00000000801b309c       0x40 /d/3202c/prj/app/demo/dvbc/jade_demo_new_geeya/mcf_data_broadcast_3202c//release/lib//liball.a(psi_pmt.o)
 .data          0x00000000801b30dc       0x40 /d/3202c/prj/app/demo/dvbc/jade_demo_new_geeya/mcf_data_broadcast_3202c//release/lib//liball.a(si_sdt.o)
 .data          0x00000000801b311c       0x30 /d/3202c/prj/app/demo/dvbc/jade_demo_new_geeya/mcf_data_broadcast_3202c//release/lib//liball.a(R820C.o)
                0x00000000801b311c                R828_iniArry
                0x00000000801b3138                IMR_Data
 .data          0x00000000801b314c      0xaa4 /d/3202c/prj/app/demo/dvbc/jade_demo_new_geeya/mcf_data_broadcast_3202c//release/lib//liball.a(irc_std.o)
 .data          0x00000000801b3bf0        0xc /d/3202c//sdk/libcore.a(deca_m33_init_ext.o)
 .data          0x00000000801b3bfc      0x3c0 /d/3202c//sdk/libcore.a(deca_m33_tone.o)
 .data          0x00000000801b3fbc        0xc /d/3202c//sdk/libcore.a(feature_extra_dv.o)
 .data          0x00000000801b3fc8        0xc /d/3202c//sdk/libcore.a(sw_scale.o)
 .data          0x00000000801b3fd4       0x9c /d/3202c//sdk/libcore.a(vdec_m3327.o)
                0x00000000801b4060                g_32pd_seq
                0x00000000801b3fe0                g_vdec27_default_intra_quantizer_matrix
                0x00000000801b4020                g_vdec27_normal2zigzag
 .data          0x00000000801b4070       0x28 /d/3202c//sdk/libcore.a(vdec_m3327_init_ext.o)
 .data          0x00000000801b4098      0x480 /d/3202c//sdk/libcore.a(tv_enc.o)
 .data          0x00000000801b4518       0x18 /d/3202c//sdk/libcore.a(vpo_m3327_init_ext.o)
 .data          0x00000000801b4530       0x3c /d/3202c//sdk/libcore.a(dmx_m33_dbg.o)
                0x00000000801b4530                g_DmxDbgCtrl
 .data          0x00000000801b456c        0xc /d/3202c//sdk/libcore.a(dmx_m33_dma.o)
 .data          0x00000000801b4578        0xc /d/3202c//sdk/libcore.a(dmx_m33_pes.o)
 .data          0x00000000801b4584        0xc /d/3202c//sdk/libcore.a(dmx_m33_sec.o)
 .data          0x00000000801b4590        0xc /d/3202c//sdk/libcore.a(dmx_m33_stc.o)
 .data          0x00000000801b459c       0x10 /d/3202c//sdk/libcore.a(ge_m33.o)
 .data          0x00000000801b45ac       0x20 /d/3202c//sdk/libcore.a(osd_s3601.o)
 .data          0x00000000801b45cc        0xc /d/3202c//sdk/libcore.a(snd_m33_init_ext.o)
 .data          0x00000000801b45d8      0x1e0 /d/3202c//sdk/libcore.a(Interrupt.o)
                0x00000000801b45d8                ISR_Table
 .data          0x00000000801b47b8       0x6c /d/3202c//sdk/libcore.a(version.o)
                0x00000000801b47b8                libcore_banner
 .data          0x00000000801b4824      0xa68 /d/3202c//sdk/libcore.a(vpo_driver.o)
                0x00000000801b4a3c                g_caseP2N_disablMAF
                0x00000000801b4aac                g_AllCase
                0x00000000801b493c                g_HorFilterCoffArray2
                0x00000000801b483c                g_HorFilterCoffArray
 .data          0x00000000801b528c        0xc /d/3202c//sdk/libcore.a(dmx_m33.o)
 .data          0x00000000801b5298       0x18 /d/3202c//sdk/libcore.a(dmx_m33_api.o)
 .data          0x00000000801b52b0       0x78 /d/3202c//sdk/libcore.a(ge_hal.o)
                0x00000000801b531c                flick_coef
                0x00000000801b52b0                pixel_bits
                0x00000000801b52cc                resize_coef
 .data          0x00000000801b5328       0x10 /d/3202c//sdk/libcore.a(ge_lld.o)
 .data          0x00000000801b5338      0x190 /d/3202c//sdk/libcore.a(fix_fft.o)
 .data          0x00000000801b54c8       0x54 /d/3202c//sdk/libcore.a(snd_m33.o)
                0x00000000801b5500                ext_dac
 .data          0x00000000801b551c        0x8 /d/3202c//sdk/liblog.a(stdio.o)
 .data          0x00000000801b5524      0x2c0 /d/3202c//sdk/libyamadhw.a(frame.o)
 .data          0x00000000801b57e4      0x194 /d/3202c//sdk/libyamadhw.a(layer12.o)
 .data          0x00000000801b5978       0x7c /d/3202c//sdk/libyamadhw.a(synth.o)
 *fill*         0x00000000801b59f4 0x6ef9b800000004
 .data          0x00000000801b59f8      0x2f0 /D/ALi_IDE_2.1/compilers/gcc3.0.4/mips-t2-elf/lib/soft-float/el/libc.a(impure.o)
 *(.data.*)
 *(.gnu.linkonce.d*)
 *(.rel.dyn)
 *fill*         0x00000000801b5ce8 0x6ef9b800000008
                0x00000000801b5cf0                . =  ALIGN (0x4)
                0x00000000801bdcf0                _gp = (. + 0x8000)
                0x00000000801bdcf0                __global = _gp

.lit8
 *(.lit8)

.lit4
 *(.lit4)
                0x00000000801b5cf0                __INIT_SECTION_RAM_ADDR = (__DATA_RAM_ADDR +  SIZEOF (.data))
                0x00000000801b5cf0                __INIT_SECTION_ROM_ADDR = (__DATA_ROM_ADDR +  SIZEOF (.data))

.init_section   0x00000000801b5cf0        0x0 load address 0x00000000801b5cf0
                0x00000000801b5cf0                . =  ALIGN (0x4)
                0x00000000801b5cf0                _fs_init_struct_start = .
 *(.fs.init)
                0x00000000801b5cf0                _fs_init_struct_end = .
                0x00000000801b5cf0                . =  ALIGN (0x4)
                0x00000000801b5cf0                _deca_audio_stream_struct_start = .
 *(.deca.init)
                0x00000000801b5cf0                _deca_audio_stream_struct_end = .
                0x00000000801b5cf0                . =  ALIGN (0x4)
                0x00000000801b5cf0                _audio_init_struct_start = .
 *(.audio.init)
                0x00000000801b5cf0                _audio_init_struct_end = .
                0x00000000801b5cf0                . =  ALIGN (0x4)
                0x00000000801b5cf0                __SDATA_RAM_ADDR = (__INIT_SECTION_RAM_ADDR +  SIZEOF (.init_section))
                0x00000000801b5cf0                __SDATA_ROM_ADDR = (__INIT_SECTION_RAM_ADDR +  SIZEOF (.init_section))

.sdata          0x00000000801b5cf0     0x1a6c load address 0x00000000801b5cf0
 *(.sdata)
 .sdata         0x00000000801b5cf0        0x8 board_config.o
                0x00000000801b5cf0                board_vdac_config
 .sdata         0x00000000801b5cf8        0x2 cdca/win_ca_freepreviewing.o
 *fill*         0x00000000801b5cfa 0x6f06b000000002
 .sdata         0x00000000801b5cfc       0x10 cdca/win_ca_operator_info.o
                0x00000000801b5cfd                operator_num
 .sdata         0x00000000801b5d0c       0x1c cdca/win_ca_password.o
 .sdata         0x00000000801b5d28        0xc cdca/win_ca_pinpwd.o
 .sdata         0x00000000801b5d34       0x1c cdca/win_ca_popup_ipp.o
                0x00000000801b5d44                win_ippbuy_string
                0x00000000801b5d3c                ippbuy_items
 .sdata         0x00000000801b5d50       0x10 cdca/win_ca_watchlevel.o
                0x00000000801b5d5c                maturity_rating
 .sdata         0x00000000801b5d60       0x44 cdca/win_cas_com.o
 .sdata         0x00000000801b5da4       0x58 cdca/win_cas_proc.o
                0x00000000801b5da6                MESSAGE_STR
                0x00000000801b5da8                urgent_broadcast_tip
                0x00000000801b5da4                CAS_POPUP_STATUS
 .sdata         0x00000000801b5dfc       0x18 cdca/win_fingerprint.o
 .sdata         0x00000000801b5e14       0x28 cdca/win_mail.o
                0x00000000801b5e24                cur_mail_id
                0x00000000801b5e26                email_count_unread
                0x00000000801b5e1c                del_mail_idx
                0x00000000801b5e25                email_count
 .sdata         0x00000000801b5e3c       0x28 cdca/win_mail_content.o
                0x00000000801b5e44                mail_title_info_text_content
                0x00000000801b5e3c                mail_content_info_text_content
                0x00000000801b5e4c                mail_mtxt_title
                0x00000000801b5e60                MAILCONTENT_FORCE_FLAG
                0x00000000801b5e5c                ContentMailID
                0x00000000801b5e54                mail_mtxt_content
 .sdata         0x00000000801b5e64       0x30 cdca/win_osdmsg.o
                0x00000000801b5e7c                osdmsg_mbf_id
 .sdata         0x00000000801b5e94       0x18 cdca/win_smc_info.o
                0x00000000801b5e94                smcinfo_multxt0_text_content
 .sdata         0x00000000801b5eac       0x58 control.o
                0x00000000801b5ec0                tv_sat_state
                0x00000000801b5ec4                pre_played_channel
                0x00000000801b5eb8                timer_wakeup_from_control
                0x00000000801b5ec8                g_cc_play_step
                0x00000000801b5eb4                system_state
                0x00000000801b5eb0                screen_back_state
                0x00000000801b5ebc                timer_message_showed
                0x00000000801b5eac                beep_bin_array_size
 .sdata         0x00000000801b5f04        0xc copper_common/bat_private.o
 .sdata         0x00000000801b5f10       0x20 copper_common/com_api.o
 .sdata         0x00000000801b5f30       0x34 copper_common/com_epg.o
 .sdata         0x00000000801b5f64        0x1 copper_common/menu_api.o
 *fill*         0x00000000801b5f65 0x6f06b000000003
 .sdata         0x00000000801b5f68       0x1c copper_common/ota_special.o
 .sdata         0x00000000801b5f84       0x24 copper_common/stb_data.o
                0x00000000801b5f84                _board_vdac_config
 .sdata         0x00000000801b5fa8       0x58 copper_common/stb_hwinfo.o
                0x00000000801b5fa8                g_stb_hwinfo
 .sdata         0x00000000801b6000       0x54 copper_common/system_data.o
 .sdata         0x00000000801b6054       0x1c game_box.o
                0x00000000801b6064                Game_con_top
                0x00000000801b6062                Game_con_left
                0x00000000801b6058                dx
                0x00000000801b605c                dy
                0x00000000801b6054                game_box_style
                0x00000000801b6060                curGameIndex
 .sdata         0x00000000801b6070       0x10 game_othello.o
                0x00000000801b6078                depth1
                0x00000000801b6073                cur_step
                0x00000000801b6071                max_depth
                0x00000000801b6074                g_iGameLevel
                0x00000000801b6070                computer_side
                0x00000000801b607c                depth2
                0x00000000801b6072                cur_depth
 .sdata         0x00000000801b6080       0x1c geeya_ad/adv_geeya.o
                0x00000000801b6084                Status
                0x00000000801b6085                cont
                0x00000000801b608c                sec_cont
 .sdata         0x00000000801b609c       0x34 geeya_ad/GYAD_Core.o
 .sdata         0x00000000801b60d0       0x34 key.o
                0x00000000801b60f0                led_display_flag
                0x00000000801b60d1                key_enable_flag
                0x00000000801b60d0                upgrade_detect_flag
                0x00000000801b60d4                CHCHG_TICK_PRINTF_time
 .sdata         0x00000000801b6104       0x44 osd_rsc.o
                0x00000000801b6120                font_table
                0x00000000801b6124                font_array_size
                0x00000000801b6104                strings_infor
                0x00000000801b611c                bmp_table
 .sdata         0x00000000801b6148       0x10 power.o
 .sdata         0x00000000801b6158       0x8c root.o
                0x00000000801b6164                g_nim_dev
                0x00000000801b6160                g_dmx_dev
                0x00000000801b617c                g_sto_dev
                0x00000000801b6170                g_sdec_dev
                0x00000000801b6190                blogo_switch
                0x00000000801b615c                g_deca_dev
                0x00000000801b6180                g_vpo_dev
                0x00000000801b6168                g_nim_dev2
                0x00000000801b6158                g_decv_dev
                0x00000000801b6174                g_vbi_dev
                0x00000000801b6184                g_pan_dev
                0x00000000801b616c                g_snd_dev
                0x00000000801b618c                vbv_buffer_add
                0x00000000801b6178                g_osd_dev
                0x00000000801b6188                g_crc_bad
                0x00000000801b6194                blogo_height
                0x00000000801b6192                blogo_tvformat
 .sdata         0x00000000801b61e4       0x10 single_pic_ad/ad_pic.o
 .sdata         0x00000000801b61f4        0xc single_pic_ad/ad_pic_gfx.o
 .sdata         0x00000000801b6200        0x8 single_pic_ad/ad_pic_gif.o
 .sdata         0x00000000801b6208        0x4 single_pic_ad/ad_pic_img.o
 .sdata         0x00000000801b620c        0x8 single_pic_ad/ad_pic_png.o
 .sdata         0x00000000801b6214        0x8 win_audio.o
 .sdata         0x00000000801b621c       0x10 win_audioset.o
 .sdata         0x00000000801b622c        0x8 win_book_detail.o
 .sdata         0x00000000801b6234        0x8 win_ca_bing.o
 .sdata         0x00000000801b623c       0x1c win_chan_detail.o
 .sdata         0x00000000801b6258       0x34 win_chan_edit.o
                0x00000000801b625c                favorite_flag
                0x00000000801b6258                skip_flag
 .sdata         0x00000000801b628c       0x20 win_chan_list.o
                0x00000000801b6294                mode_changed_flag
 .sdata         0x00000000801b62ac       0x10 win_chan_manage.o
                0x00000000801b62ac                windows_chan_manage_list
 .sdata         0x00000000801b62bc       0x34 win_chanedit_action.o
                0x00000000801b62c8                CHANEDIT_ACTION_MULTITSEL
 .sdata         0x00000000801b62f0       0x28 win_channel_info.o
                0x00000000801b62f0                audio_mode_str_id
 .sdata         0x00000000801b6318        0x8 win_child_lock.o
 .sdata         0x00000000801b6320       0x2c win_child_lock_list.o
 .sdata         0x00000000801b634c       0x4c win_com.o
                0x00000000801b634c                cur_tuner_idx
                0x00000000801b636c                preview_pre_win
                0x00000000801b6358                VolumeOn
                0x00000000801b6370                preview_mute_status
                0x00000000801b6374                mtxt_preview_str
                0x00000000801b6371                preview_pause_status
                0x00000000801b636a                mtxt_strid
 .sdata         0x00000000801b6398        0x4 win_com_list.o
 .sdata         0x00000000801b639c       0x3c win_com_popup.o
                0x00000000801b639c                popup_mtxt_content
 .sdata         0x00000000801b63d8       0x58 win_common_item.o
                0x00000000801b6418                video_output_set
                0x00000000801b63ec                tv_mode_set
 .sdata         0x00000000801b6430       0x28 win_displayset.o
 .sdata         0x00000000801b6458       0x18 win_epg.o
 .sdata         0x00000000801b6470       0x28 win_epg_detail.o
                0x00000000801b6470                detail_mtxt_content
                0x00000000801b6478                detail_str
 .sdata         0x00000000801b6498       0x10 win_factory_set.o
                0x00000000801b64a0                factoryset_mtxt_content
                0x00000000801b6498                factoryset_mtxt_text_content
 .sdata         0x00000000801b64a8        0x4 win_factoryset.o
 .sdata         0x00000000801b64ac       0x28 win_freqset.o
 .sdata         0x00000000801b64d4       0x38 win_full_band_scan.o
                0x00000000801b64f0                win_autosrch_pat_freq
                0x00000000801b64f4                win_autosrch_pat_sym
 .sdata         0x00000000801b650c       0x10 win_game_com.o
 .sdata         0x00000000801b651c        0x6 win_game_othello.o
 *fill*         0x00000000801b6522 0x6f06b000000002
 .sdata         0x00000000801b6524        0x8 win_games.o
                0x00000000801b6524                windows_game_list
 .sdata         0x00000000801b652c        0xc win_light_channel_list.o
 .sdata         0x00000000801b6538       0x20 win_mainmenu.o
                0x00000000801b6539                new_channel_change_flag
                0x00000000801b6548                mm_help
                0x00000000801b653c                red1
 .sdata         0x00000000801b6558       0x40 win_manual_search.o
                0x00000000801b657c                win_mainSearch_pat_sym
                0x00000000801b6584                i_symbol
                0x00000000801b6589                I_nit_mode
                0x00000000801b6574                NIT_type_ids
                0x00000000801b6580                i_freq
                0x00000000801b658a                i_scan_mode
                0x00000000801b6588                i_mode
                0x00000000801b6578                win_mainSearch_pat_freq
 .sdata         0x00000000801b6598       0x2c win_manual_update.o
 .sdata         0x00000000801b65c4        0x8 win_mute.o
                0x00000000801b65c4                cur_mute_state
 .sdata         0x00000000801b65cc       0x28 win_new_signal.o
 .sdata         0x00000000801b65f4       0x18 win_new_signal_test.o
 .sdata         0x00000000801b660c       0x80 win_nvod.o
                0x00000000801b6630                rise_from_standby
                0x00000000801b6614                nvod_sch_mtxt_content
                0x00000000801b662c                send_enable
                0x00000000801b6638                nvodpre_channel_index
                0x00000000801b660c                nvod_ref_event_detail_text_content
 .sdata         0x00000000801b668c        0xc win_nvod_detail.o
                0x00000000801b6694                nr_count
                0x00000000801b668c                nvod_mtext_content
 .sdata         0x00000000801b6698       0x10 win_nvod_event_bar.o
 .sdata         0x00000000801b66a8        0xc win_nvod_warn.o
 .sdata         0x00000000801b66b4       0x1c win_password.o
                0x00000000801b66c0                PwdCheck
 .sdata         0x00000000801b66d0        0x4 win_pause.o
 .sdata         0x00000000801b66d4        0x8 win_prog_input.o
 .sdata         0x00000000801b66dc       0x1c win_prog_name.o
 .sdata         0x00000000801b66f8       0x44 win_pwd_set.o
                0x00000000801b66f8                par_items
                0x00000000801b6700                par_item_name
                0x00000000801b6708                par_item_set
 .sdata         0x00000000801b673c        0xc win_reserve_manage.o
 .sdata         0x00000000801b6748       0x74 win_search.o
                0x00000000801b6748                win_search_help
 .sdata         0x00000000801b67bc       0x10 win_signal.o
 .sdata         0x00000000801b67cc       0x38 win_signal_test.o
 .sdata         0x00000000801b6804       0x28 win_signalstatus.o
                0x00000000801b680c                lv_lock_status
                0x00000000801b6810                lv_scramble_status
                0x00000000801b6828                signal_stataus_showed
                0x00000000801b6814                lv_lnbshort_status
                0x00000000801b6808                block_status
                0x00000000801b681c                lv_signalstop_status
                0x00000000801b6818                lv_parrentlock_status
 .sdata         0x00000000801b682c       0x24 win_stb_info.o
                0x00000000801b682c                libcore_content
 .sdata         0x00000000801b6850       0x10 win_sys_information.o
                0x00000000801b6850                txt_info_item8_text_content
 .sdata         0x00000000801b6860        0x4 win_sys_items.o
 .sdata         0x00000000801b6864       0x24 win_timer_set.o
                0x00000000801b6880                time_pat
                0x00000000801b687c                date_pat
                0x00000000801b6864                TimerModeStr_id
                0x00000000801b6874                WakeupMessageStr_id
                0x00000000801b6870                TimerServiceTxtStr_id
                0x00000000801b686c                TimerServiceStr_id
 .sdata         0x00000000801b6888        0x8 win_volumebar.o
 .sdata         0x00000000801b6890        0x8 win_infomation.o
 .sdata         0x00000000801b6898        0x4 ../../../../../sdk/boot.o
                0x00000000801b6898                RAMSIZE
 .sdata         0x00000000801b689c       0x20 /d/3202c/prj/app/demo/dvbc/jade_demo_new_geeya/mcf_data_broadcast_3202c//release/lib//libgycas.a(gycas_api.o)
                0x00000000801b68a5                isAreaTagEnabled
                0x00000000801b68a4                nCasLanguage
 .sdata         0x00000000801b68bc       0x20 /d/3202c/prj/app/demo/dvbc/jade_demo_new_geeya/mcf_data_broadcast_3202c//release/lib//libgycas.a(gycas_ecm.o)
 .sdata         0x00000000801b68dc       0x1c /d/3202c/prj/app/demo/dvbc/jade_demo_new_geeya/mcf_data_broadcast_3202c//release/lib//libgycas.a(gycas_mgr.o)
                0x00000000801b68dc                CHCAMTaskStatus
 .sdata         0x00000000801b68f8       0x10 /d/3202c/prj/app/demo/dvbc/jade_demo_new_geeya/mcf_data_broadcast_3202c//release/lib//libgycas.a(gycas_mmm.o)
 .sdata         0x00000000801b6908       0x2c /d/3202c/prj/app/demo/dvbc/jade_demo_new_geeya/mcf_data_broadcast_3202c//release/lib//libgycas.a(gycas_smc.o)
                0x00000000801b6908                bWritedEntitleFlag
 .sdata         0x00000000801b6934       0x84 /d/3202c/prj/app/demo/dvbc/jade_demo_new_geeya/mcf_data_broadcast_3202c//release/lib//libgycas.a(gycas_smc_drv.o)
 .sdata         0x00000000801b69b8        0x4 /d/3202c/prj/app/demo/dvbc/jade_demo_new_geeya/mcf_data_broadcast_3202c//release/lib//libgycas.a(gycas_smc_hal.o)
 .sdata         0x00000000801b69bc       0x18 /d/3202c/prj/app/demo/dvbc/jade_demo_new_geeya/mcf_data_broadcast_3202c//release/lib//libgycas.a(gycas_vm.o)
                0x00000000801b69c0                REG_Z
                0x00000000801b69c6                REG_SP
                0x00000000801b69bc                REG_PC
                0x00000000801b69c8                REG_P
                0x00000000801b69cc                bVmBinaryValid
                0x00000000801b69c2                REG_X
                0x00000000801b69c4                REG_Y
 .sdata         0x00000000801b69d4       0x20 /d/3202c/prj/app/demo/dvbc/jade_demo_new_geeya/mcf_data_broadcast_3202c//release/lib//libgycas.a(gycas_emm.o)
 .sdata         0x00000000801b69f4        0x4 /d/3202c/prj/app/demo/dvbc/jade_demo_new_geeya/mcf_data_broadcast_3202c//release/lib//liball.a(i2c_gpio.o)
 .sdata         0x00000000801b69f8       0x14 /d/3202c/prj/app/demo/dvbc/jade_demo_new_geeya/mcf_data_broadcast_3202c//release/lib//liball.a(i2c_scb.o)
                0x00000000801b69fc                g_scb_sys_chip_ver
                0x00000000801b69f8                g_scb_sys_chip_id
 .sdata         0x00000000801b6a0c        0x4 /d/3202c/prj/app/demo/dvbc/jade_demo_new_geeya/mcf_data_broadcast_3202c//release/lib//liball.a(sci_16550uart.o)
 .sdata         0x00000000801b6a10        0x4 /d/3202c/prj/app/demo/dvbc/jade_demo_new_geeya/mcf_data_broadcast_3202c//release/lib//liball.a(hld_dev.o)
 .sdata         0x00000000801b6a14        0x8 /d/3202c/prj/app/demo/dvbc/jade_demo_new_geeya/mcf_data_broadcast_3202c//release/lib//liball.a(deca.o)
                0x00000000801b6a14                fp_deca_pcm_process_func
                0x00000000801b6a18                fp_deca_process_pcm_bitstream
 .sdata         0x00000000801b6a1c        0x4 /d/3202c/prj/app/demo/dvbc/jade_demo_new_geeya/mcf_data_broadcast_3202c//release/lib//liball.a(decv.o)
                0x00000000801b6a1c                pAVC_CB
 .sdata         0x00000000801b6a20        0x3 /d/3202c/prj/app/demo/dvbc/jade_demo_new_geeya/mcf_data_broadcast_3202c//release/lib//liball.a(pan.o)
 *fill*         0x00000000801b6a23 0x6f06b000000001
 .sdata         0x00000000801b6a24       0x10 /d/3202c/prj/app/demo/dvbc/jade_demo_new_geeya/mcf_data_broadcast_3202c//release/lib//liball.a(snd.o)
                0x00000000801b6a24                g_snd_stc_ref
                0x00000000801b6a28                snd_dac_format
                0x00000000801b6a2d                snd_dis_clk_while_ch_chg
                0x00000000801b6a29                snd_dac_precision
                0x00000000801b6a30                stc_delay
                0x00000000801b6a2e                snd_ext_mute_mode
                0x00000000801b6a2b                snd_support_spdif_mute
                0x00000000801b6a2a                snd_contain_embedded_dac
                0x00000000801b6a2c                snd_support_swap_lr_ch
 .sdata         0x00000000801b6a34        0x4 /d/3202c/prj/app/demo/dvbc/jade_demo_new_geeya/mcf_data_broadcast_3202c//release/lib//liball.a(sto.o)
                0x00000000801b6a34                sto_mutex_id
 .sdata         0x00000000801b6a38       0x1c /d/3202c/prj/app/demo/dvbc/jade_demo_new_geeya/mcf_data_broadcast_3202c//release/lib//liball.a(lib_ash.o)
                0x00000000801b6a38                flash_dev
                0x00000000801b6a40                g_packet_index
                0x00000000801b6a4c                g_protocol_version
                0x00000000801b6a3c                g_packet_repeat
                0x00000000801b6a44                g_last_error
                0x00000000801b6a48                g_last_status
 .sdata         0x00000000801b6a54       0x78 /d/3202c/prj/app/demo/dvbc/jade_demo_new_geeya/mcf_data_broadcast_3202c//release/lib//liball.a(lib_ashcmd.o)
                0x00000000801b6aa0                boot_uart_id
                0x00000000801b6a9c                lib_ash_command_num
 .sdata         0x00000000801b6acc       0x10 /d/3202c/prj/app/demo/dvbc/jade_demo_new_geeya/mcf_data_broadcast_3202c//release/lib//liball.a(Packet.o)
                0x00000000801b6acc                l_packet_head_flag
                0x00000000801b6ad4                l_packet_comtest
 .sdata         0x00000000801b6adc       0x14 /d/3202c/prj/app/demo/dvbc/jade_demo_new_geeya/mcf_data_broadcast_3202c//release/lib//liball.a(gif.o)
                0x00000000801b6ae8                g_gif_trans_color_flag
                0x00000000801b6add                g_gif_hw_support_rgb
                0x00000000801b6aec                g_gif_force_show_pic
                0x00000000801b6ae0                g_gif_ignore_bk_color
                0x00000000801b6adc                g_gif_dec_first_pic
                0x00000000801b6ae4                g_gif_trans_color
 .sdata         0x00000000801b6af0        0x4 /d/3202c/prj/app/demo/dvbc/jade_demo_new_geeya/mcf_data_broadcast_3202c//release/lib//liball.a(gif_main.o)
                0x00000000801b6af0                list_time
 .sdata         0x00000000801b6af4        0x1 /d/3202c/prj/app/demo/dvbc/jade_demo_new_geeya/mcf_data_broadcast_3202c//release/lib//liball.a(gif_out_ge.o)
 .sdata         0x00000000801b6af5        0x1 /d/3202c/prj/app/demo/dvbc/jade_demo_new_geeya/mcf_data_broadcast_3202c//release/lib//liball.a(gif_sync.o)
 *fill*         0x00000000801b6af6 0x6f06b000000002
 .sdata         0x00000000801b6af8        0x4 /d/3202c/prj/app/demo/dvbc/jade_demo_new_geeya/mcf_data_broadcast_3202c//release/lib//liball.a(imagedec.o)
 .sdata         0x00000000801b6afc       0x74 /d/3202c/prj/app/demo/dvbc/jade_demo_new_geeya/mcf_data_broadcast_3202c//release/lib//liball.a(imagedec_bmp_decoder.o)
 .sdata         0x00000000801b6b70       0x48 /d/3202c/prj/app/demo/dvbc/jade_demo_new_geeya/mcf_data_broadcast_3202c//release/lib//liball.a(imagedec_covs.o)
 .sdata         0x00000000801b6bb8        0xc /d/3202c/prj/app/demo/dvbc/jade_demo_new_geeya/mcf_data_broadcast_3202c//release/lib//liball.a(imagedec_main.o)
                0x00000000801b6bbc                image_data_end
                0x00000000801b6bb8                cur_decoding_mcu_row
 .sdata         0x00000000801b6bc4       0x2c /d/3202c/prj/app/demo/dvbc/jade_demo_new_geeya/mcf_data_broadcast_3202c//release/lib//liball.a(imagedec_osd.o)
 .sdata         0x00000000801b6bf0       0x1c /d/3202c/prj/app/demo/dvbc/jade_demo_new_geeya/mcf_data_broadcast_3202c//release/lib//liball.a(imagedec_trans.o)
                0x00000000801b6bfc                TV_hor_columns
                0x00000000801b6bf8                TV_ver_lines
 .sdata         0x00000000801b6c0c       0x1c /d/3202c/prj/app/demo/dvbc/jade_demo_new_geeya/mcf_data_broadcast_3202c//release/lib//liball.a(imagedec_trans_dup.o)
 .sdata         0x00000000801b6c28        0x1 /d/3202c/prj/app/demo/dvbc/jade_demo_new_geeya/mcf_data_broadcast_3202c//release/lib//liball.a(png.o)
 *fill*         0x00000000801b6c29 0x6f06b000000003
 .sdata         0x00000000801b6c2c        0x8 /d/3202c/prj/app/demo/dvbc/jade_demo_new_geeya/mcf_data_broadcast_3202c//release/lib//liball.a(png_core.o)
 .sdata         0x00000000801b6c34        0x8 /d/3202c/prj/app/demo/dvbc/jade_demo_new_geeya/mcf_data_broadcast_3202c//release/lib//liball.a(png_info.o)
 .sdata         0x00000000801b6c3c       0x18 /d/3202c/prj/app/demo/dvbc/jade_demo_new_geeya/mcf_data_broadcast_3202c//release/lib//liball.a(lib_cc.o)
                0x00000000801b6c44                cc_play_tick
                0x00000000801b6c48                vdec_start_tick
                0x00000000801b6c4c                enable_blk_screen
 .sdata         0x00000000801b6c54        0x2 /d/3202c/prj/app/demo/dvbc/jade_demo_new_geeya/mcf_data_broadcast_3202c//release/lib//liball.a(lib_device_manage.o)
                0x00000000801b6c54                dev_manag_sema_id
 *fill*         0x00000000801b6c56 0x6f06b000000002
 .sdata         0x00000000801b6c58        0xc /d/3202c/prj/app/demo/dvbc/jade_demo_new_geeya/mcf_data_broadcast_3202c//release/lib//liball.a(lib_frontend.o)
                0x00000000801b6c5c                nim_tsiid
                0x00000000801b6c58                l_cc_sema_id
 .sdata         0x00000000801b6c64       0x30 /d/3202c/prj/app/demo/dvbc/jade_demo_new_geeya/mcf_data_broadcast_3202c//release/lib//liball.a(lib_hde.o)
 .sdata         0x00000000801b6c94       0x14 /d/3202c/prj/app/demo/dvbc/jade_demo_new_geeya/mcf_data_broadcast_3202c//release/lib//liball.a(lib_monitor.o)
 .sdata         0x00000000801b6ca8       0x10 /d/3202c/prj/app/demo/dvbc/jade_demo_new_geeya/mcf_data_broadcast_3202c//release/lib//liball.a(lib_as.o)
                0x00000000801b6ca8                as_buf
 .sdata         0x00000000801b6cb8       0x1c /d/3202c/prj/app/demo/dvbc/jade_demo_new_geeya/mcf_data_broadcast_3202c//release/lib//liball.a(cas_gy.o)
 .sdata         0x00000000801b6cd4       0x20 /d/3202c/prj/app/demo/dvbc/jade_demo_new_geeya/mcf_data_broadcast_3202c//release/lib//liball.a(gy_catask.o)
                0x00000000801b6ce8                cas_pmt_crc
                0x00000000801b6ce4                g_curchl_scramble
 .sdata         0x00000000801b6cf4        0xc /d/3202c/prj/app/demo/dvbc/jade_demo_new_geeya/mcf_data_broadcast_3202c//release/lib//liball.a(gyca_dmx.o)
                0x00000000801b6cfd                bOESend
                0x00000000801b6cfe                bInfSend
                0x00000000801b6cff                bValSend
 .sdata         0x00000000801b6d00       0x10 /d/3202c/prj/app/demo/dvbc/jade_demo_new_geeya/mcf_data_broadcast_3202c//release/lib//liball.a(gyca_nvm.o)
 .sdata         0x00000000801b6d10        0x8 /d/3202c/prj/app/demo/dvbc/jade_demo_new_geeya/mcf_data_broadcast_3202c//release/lib//liball.a(gyca_sc.o)
 .sdata         0x00000000801b6d18        0x8 /d/3202c/prj/app/demo/dvbc/jade_demo_new_geeya/mcf_data_broadcast_3202c//release/lib//liball.a(alloc.o)
                0x00000000801b6d1c                __morecore
                0x00000000801b6d18                __malloc_initialized
 .sdata         0x00000000801b6d20       0x20 /d/3202c/prj/app/demo/dvbc/jade_demo_new_geeya/mcf_data_broadcast_3202c//release/lib//liball.a(printf.o)
 .sdata         0x00000000801b6d40        0x8 /d/3202c/prj/app/demo/dvbc/jade_demo_new_geeya/mcf_data_broadcast_3202c//release/lib//liball.a(string.o)
 .sdata         0x00000000801b6d48      0x148 /d/3202c/prj/app/demo/dvbc/jade_demo_new_geeya/mcf_data_broadcast_3202c//release/lib//liball.a(lib_char.o)
 .sdata         0x00000000801b6e90        0x8 /d/3202c/prj/app/demo/dvbc/jade_demo_new_geeya/mcf_data_broadcast_3202c//release/lib//liball.a(epg_api.o)
 .sdata         0x00000000801b6e98        0x4 /d/3202c/prj/app/demo/dvbc/jade_demo_new_geeya/mcf_data_broadcast_3202c//release/lib//liball.a(epg_db.o)
 .sdata         0x00000000801b6e9c       0x10 /d/3202c/prj/app/demo/dvbc/jade_demo_new_geeya/mcf_data_broadcast_3202c//release/lib//liball.a(lib_epg.o)
 .sdata         0x00000000801b6eac       0x2c /d/3202c/prj/app/demo/dvbc/jade_demo_new_geeya/mcf_data_broadcast_3202c//release/lib//liball.a(lib_nvod.o)
                0x00000000801b6ed4                nit_sec_info
                0x00000000801b6eac                nvod_buf
 .sdata         0x00000000801b6ed8       0x20 /d/3202c/prj/app/demo/dvbc/jade_demo_new_geeya/mcf_data_broadcast_3202c//release/lib//liball.a(psi_db.o)
 .sdata         0x00000000801b6ef8        0x4 /d/3202c/prj/app/demo/dvbc/jade_demo_new_geeya/mcf_data_broadcast_3202c//release/lib//liball.a(sie.o)
                0x00000000801b6ef8                sie_module_flag
 .sdata         0x00000000801b6efc        0xc /d/3202c/prj/app/demo/dvbc/jade_demo_new_geeya/mcf_data_broadcast_3202c//release/lib//liball.a(sie_eit.o)
                0x00000000801b6f00                eit_in_parsing_check
 .sdata         0x00000000801b6f08       0x28 /d/3202c/prj/app/demo/dvbc/jade_demo_new_geeya/mcf_data_broadcast_3202c//release/lib//liball.a(sie_monitor_core.o)
                0x00000000801b6f2c                cat_monitor_id
                0x00000000801b6f10                monitor_dmx_id
                0x00000000801b6f08                sm_semaphore
                0x00000000801b6f28                pat_monitor_id
                0x00000000801b6f1c                monitor_id
 .sdata         0x00000000801b6f30       0x10 /d/3202c/prj/app/demo/dvbc/jade_demo_new_geeya/mcf_data_broadcast_3202c//release/lib//liball.a(sie_monitor_dtg.o)
                0x00000000801b6f34                p_sdt_running_info
                0x00000000801b6f38                sdt_monitor_id
 .sdata         0x00000000801b6f40        0x4 /d/3202c/prj/app/demo/dvbc/jade_demo_new_geeya/mcf_data_broadcast_3202c//release/lib//liball.a(si_search.o)
 .sdata         0x00000000801b6f44       0x28 /d/3202c/prj/app/demo/dvbc/jade_demo_new_geeya/mcf_data_broadcast_3202c//release/lib//liball.a(si_tdt.o)
 .sdata         0x00000000801b6f6c        0xc /d/3202c/prj/app/demo/dvbc/jade_demo_new_geeya/mcf_data_broadcast_3202c//release/lib//liball.a(lib_ota.o)
                0x00000000801b6f70                g_ota_flg_id
 .sdata         0x00000000801b6f78       0x18 /d/3202c/prj/app/demo/dvbc/jade_demo_new_geeya/mcf_data_broadcast_3202c//release/lib//liball.a(chunk.o)
 .sdata         0x00000000801b6f90       0x10 /d/3202c/prj/app/demo/dvbc/jade_demo_new_geeya/mcf_data_broadcast_3202c//release/lib//liball.a(chunk_sto.o)
 .sdata         0x00000000801b6fa0       0x20 /d/3202c/prj/app/demo/dvbc/jade_demo_new_geeya/mcf_data_broadcast_3202c//release/lib//liball.a(db_interface.o)
                0x00000000801b6fa4                db_update_tmp_buf
                0x00000000801b6fac                db_search_mode
                0x00000000801b6fb4                db_search_tp_buf
                0x00000000801b6fa8                TV_NUM
                0x00000000801b6fa0                db_access_sema
                0x00000000801b6faa                RADIO_NUM
 .sdata         0x00000000801b6fc0       0x10 /d/3202c/prj/app/demo/dvbc/jade_demo_new_geeya/mcf_data_broadcast_3202c//release/lib//liball.a(db_interface_ext.o)
 .sdata         0x00000000801b6fd0       0x10 /d/3202c/prj/app/demo/dvbc/jade_demo_new_geeya/mcf_data_broadcast_3202c//release/lib//liball.a(tmp_info.o)
 .sdata         0x00000000801b6fe0       0x14 /d/3202c/prj/app/demo/dvbc/jade_demo_new_geeya/mcf_data_broadcast_3202c//release/lib//liball.a(stb_info.o)
 .sdata         0x00000000801b6ff4        0xc /d/3202c/prj/app/demo/dvbc/jade_demo_new_geeya/mcf_data_broadcast_3202c//release/lib//liball.a(stb_info_data.o)
                0x00000000801b6ff4                g_stb_data
                0x00000000801b6ff8                _stb_data_len
 .sdata         0x00000000801b7000       0x20 /d/3202c/prj/app/demo/dvbc/jade_demo_new_geeya/mcf_data_broadcast_3202c//release/lib//liball.a(ge_draw_primitive.o)
                0x00000000801b7018                bypp_const
                0x00000000801b7000                vscr_buff
                0x00000000801b7004                pop_buff
                0x00000000801b7011                vlayer_idx
                0x00000000801b7014                g_gui_tvsys
                0x00000000801b700c                slvpop_buff
                0x00000000801b7008                slvscr_buff
                0x00000000801b7010                vrgn_idx
 .sdata         0x00000000801b7020        0xc /d/3202c/prj/app/demo/dvbc/jade_demo_new_geeya/mcf_data_broadcast_3202c//release/lib//liball.a(gecmd_primitive.o)
                0x00000000801b7020                colorcvt_tbl
 .sdata         0x00000000801b702c       0x4c /d/3202c/prj/app/demo/dvbc/jade_demo_new_geeya/mcf_data_broadcast_3202c//release/lib//liball.a(obj_editfield.o)
 .sdata         0x00000000801b7078        0x8 /d/3202c/prj/app/demo/dvbc/jade_demo_new_geeya/mcf_data_broadcast_3202c//release/lib//liball.a(obj_textfield.o)
 .sdata         0x00000000801b7080        0x4 /d/3202c/prj/app/demo/dvbc/jade_demo_new_geeya/mcf_data_broadcast_3202c//release/lib//liball.a(osd_common.o)
 .sdata         0x00000000801b7084        0x8 /d/3202c/prj/app/demo/dvbc/jade_demo_new_geeya/mcf_data_broadcast_3202c//release/lib//liball.a(osd_common_draw.o)
                0x00000000801b7084                circle_dscr
 .sdata         0x00000000801b708c       0x14 /d/3202c/prj/app/demo/dvbc/jade_demo_new_geeya/mcf_data_broadcast_3202c//release/lib//liball.a(osd_lib.o)
                0x00000000801b7098                evts_to_childmap
                0x00000000801b7094                evts_to_child
 .sdata         0x00000000801b70a0       0x68 /d/3202c/prj/app/demo/dvbc/jade_demo_new_geeya/mcf_data_broadcast_3202c//release/lib//liball.a(nim_s3202.o)
 .sdata         0x00000000801b7108        0xc /d/3202c/prj/app/demo/dvbc/jade_demo_new_geeya/mcf_data_broadcast_3202c//release/lib//liball.a(tun_alpstdae.o)
 .sdata         0x00000000801b7114        0xc /d/3202c/prj/app/demo/dvbc/jade_demo_new_geeya/mcf_data_broadcast_3202c//release/lib//liball.a(tun_dct70701.o)
 .sdata         0x00000000801b7120       0x14 /d/3202c/prj/app/demo/dvbc/jade_demo_new_geeya/mcf_data_broadcast_3202c//release/lib//liball.a(tun_rt820.o)
 .sdata         0x00000000801b7134        0x9 /d/3202c/prj/app/demo/dvbc/jade_demo_new_geeya/mcf_data_broadcast_3202c//release/lib//liball.a(pan_ct1642.o)
 .sdata         0x00000000801b713d        0x2 /d/3202c/prj/app/demo/dvbc/jade_demo_new_geeya/mcf_data_broadcast_3202c//release/lib//liball.a(pan_tp6x0.o)
 *fill*         0x00000000801b713f 0x6f06b000000001
 .sdata         0x00000000801b7140       0x14 /d/3202c/prj/app/demo/dvbc/jade_demo_new_geeya/mcf_data_broadcast_3202c//release/lib//liball.a(smartcard.o)
 .sdata         0x00000000801b7154       0x18 /d/3202c/prj/app/demo/dvbc/jade_demo_new_geeya/mcf_data_broadcast_3202c//release/lib//liball.a(flash_raw_sl_c.o)
                0x00000000801b7154                sflash_reg_addr
                0x00000000801b715c                sflash_devid
                0x00000000801b7158                SFLASH_IDENTIFY_MODE
 .sdata         0x00000000801b716c       0x10 /d/3202c/prj/app/demo/dvbc/jade_demo_new_geeya/mcf_data_broadcast_3202c//release/lib//liball.a(sto_flash.o)
                0x00000000801b716c                m_EnableSoftProtection
                0x00000000801b7170                unpro_addr_low
                0x00000000801b7174                unpro_addr_up
                0x00000000801b7178                remote_flash_read_tmo
 .sdata         0x00000000801b717c        0xc /d/3202c/prj/app/demo/dvbc/jade_demo_new_geeya/mcf_data_broadcast_3202c//release/lib//liball.a(gif_info.o)
 .sdata         0x00000000801b7188       0x20 /d/3202c/prj/app/demo/dvbc/jade_demo_new_geeya/mcf_data_broadcast_3202c//release/lib//liball.a(gif_lzw.o)
 .sdata         0x00000000801b71a8        0x4 /d/3202c/prj/app/demo/dvbc/jade_demo_new_geeya/mcf_data_broadcast_3202c//release/lib//liball.a(imagedec_acc.o)
 .sdata         0x00000000801b71ac       0x54 /d/3202c/prj/app/demo/dvbc/jade_demo_new_geeya/mcf_data_broadcast_3202c//release/lib//liball.a(png_huf_table.o)
 .sdata         0x00000000801b7200        0x8 /d/3202c/prj/app/demo/dvbc/jade_demo_new_geeya/mcf_data_broadcast_3202c//release/lib//liball.a(lib_multiview.o)
 .sdata         0x00000000801b7208        0x1 /d/3202c/prj/app/demo/dvbc/jade_demo_new_geeya/mcf_data_broadcast_3202c//release/lib//liball.a(arabic_convert.o)
 *fill*         0x00000000801b7209 0x6f06b000000003
 .sdata         0x00000000801b720c        0x8 /d/3202c/prj/app/demo/dvbc/jade_demo_new_geeya/mcf_data_broadcast_3202c//release/lib//liball.a(Thai.o)
 .sdata         0x00000000801b7214       0x10 /d/3202c/prj/app/demo/dvbc/jade_demo_new_geeya/mcf_data_broadcast_3202c//release/lib//liball.a(psi_pmt.o)
                0x00000000801b721c                ecm_count
 .sdata         0x00000000801b7224        0x4 /d/3202c/prj/app/demo/dvbc/jade_demo_new_geeya/mcf_data_broadcast_3202c//release/lib//liball.a(si_sdt.o)
 .sdata         0x00000000801b7228       0x20 /d/3202c/prj/app/demo/dvbc/jade_demo_new_geeya/mcf_data_broadcast_3202c//release/lib//liball.a(db_basic_operation.o)
                0x00000000801b722c                g_db_base_addr
                0x00000000801b7230                g_db_length
 .sdata         0x00000000801b7248       0x10 /d/3202c/prj/app/demo/dvbc/jade_demo_new_geeya/mcf_data_broadcast_3202c//release/lib//liball.a(db_data_object.o)
                0x00000000801b7250                db_node_unpacker
                0x00000000801b724c                db_node_packer
 .sdata         0x00000000801b7258        0x2 /d/3202c/prj/app/demo/dvbc/jade_demo_new_geeya/mcf_data_broadcast_3202c//release/lib//liball.a(gelib_effects.o)
 *fill*         0x00000000801b725a 0x6f06b000000002
 .sdata         0x00000000801b725c        0x8 /d/3202c/prj/app/demo/dvbc/jade_demo_new_geeya/mcf_data_broadcast_3202c//release/lib//liball.a(obj_multisel.o)
 .sdata         0x00000000801b7264        0x5 /d/3202c/prj/app/demo/dvbc/jade_demo_new_geeya/mcf_data_broadcast_3202c//release/lib//liball.a(R820C.o)
                0x00000000801b7264                R828_ADDRESS
                0x00000000801b7265                Rafael_Chip
                0x00000000801b7266                R828_IMR_done_flag
 *fill*         0x00000000801b7269 0x6f06b000000003
 .sdata         0x00000000801b726c       0x18 /d/3202c/prj/app/demo/dvbc/jade_demo_new_geeya/mcf_data_broadcast_3202c//release/lib//liball.a(irc_6303.o)
                0x00000000801b7278                key_cnt
 .sdata         0x00000000801b7284        0x1 /d/3202c/prj/app/demo/dvbc/jade_demo_new_geeya/mcf_data_broadcast_3202c//release/lib//liball.a(flash_data.o)
                0x00000000801b7284                flash_cmdaddr_num
 *fill*         0x00000000801b7285 0x6f06b000000001
 .sdata         0x00000000801b7286        0x2 /d/3202c/prj/app/demo/dvbc/jade_demo_new_geeya/mcf_data_broadcast_3202c//release/lib//liball.a(flash_data_s.o)
                0x00000000801b7286                sflash_deviceid_num
 .sdata         0x00000000801b7288       0x40 /d/3202c/prj/app/demo/dvbc/jade_demo_new_geeya/mcf_data_broadcast_3202c//release/lib//liball.a(irc_std.o)
 .sdata         0x00000000801b72c8       0x14 /d/3202c//sdk/libcore.a(power_down_detect.o)
                0x00000000801b72d8                palert_msk_bit
                0x00000000801b72cc                io_status_reg
                0x00000000801b72d0                int_status_reg
                0x00000000801b72d4                pok_msk_bit
                0x00000000801b72c8                support_pdd
 .sdata         0x00000000801b72dc       0x2c /d/3202c//sdk/libcore.a(sgdma_m36.o)
                0x00000000801b7300                SgdmaScBufFullCnt
                0x00000000801b72f0                SgdmaWaitLoopCnt
                0x00000000801b72f8                SgdmaTotalIntCnt
                0x00000000801b72e1                sgdma_lst_num
                0x00000000801b72e0                sgdma_select_all_list
                0x00000000801b72fc                SgdmaListEmptyIntCnt
                0x00000000801b72e2                sgdma_lst_max_idx
                0x00000000801b72e3                sgdma_sc_node_size
                0x00000000801b72dc                sgdma_base_addr
                0x00000000801b72e4                new_sgdma
                0x00000000801b72f4                SgdmaSleepWaitEn
 .sdata         0x00000000801b7308        0x4 /d/3202c//sdk/libcore.a(tsi_m3202.o)
 .sdata         0x00000000801b730c       0x10 /d/3202c//sdk/libcore.a(deca_m33_dolby.o)
 .sdata         0x00000000801b731c        0xc /d/3202c//sdk/libcore.a(deca_m33_tone.o)
 .sdata         0x00000000801b7328       0x10 /d/3202c//sdk/libcore.a(feature_extra_dv.o)
 .sdata         0x00000000801b7338        0x8 /d/3202c//sdk/libcore.a(sw_scale.o)
 .sdata         0x00000000801b7340       0xdc /d/3202c//sdk/libcore.a(vdec_m3327.o)
                0x00000000801b7344                g_vdec_wait_hw
                0x00000000801b735c                g_vdec_sys_chip_id
                0x00000000801b7404                mod_test_first
                0x00000000801b7358                l_dview_hsr_counter
                0x00000000801b738c                g_vdec_timer_active
                0x00000000801b7370                g_user_data_array_rd
                0x00000000801b73e8                last_pic_headidx
                0x00000000801b73a0                next_header_code_routine
                0x00000000801b73d0                g_vdec_force_sync
                0x00000000801b7394                g_vdec_multiv_use_hwpip
                0x00000000801b7368                g_IsHDVideo
                0x00000000801b7360                g_vdec_sys_chip_ver_id
                0x00000000801b73f0                Last_Picture_Structure
                0x00000000801b7350                g_vdec_DisplayIndex
                0x00000000801b734c                g_vdec_FirstPIPInChanGot
                0x00000000801b7354                g_vdec_FirstHeaderGot
                0x00000000801b73a8                g_vdec_drop_to_free_inter
                0x00000000801b736c                g_user_data_array_cnt
                0x00000000801b7408                mod_test_addi
                0x00000000801b7378                g_vdec_wait_vbi_field
                0x00000000801b7384                g_vdec_4_frms_flag
                0x00000000801b7374                g_user_data_array_wr
                0x00000000801b739c                g_vdec_sw_reset_flag
                0x00000000801b7398                g_vdec_reserve_dma_flag
                0x00000000801b7403                give_up_seq_count
                0x00000000801b7348                ve_total_time
                0x00000000801b7390                g_vdec_timer_cnt
                0x00000000801b7380                g_vdec_16m_mode
                0x00000000801b73cc                g_vdec27_pconfig_par
                0x00000000801b7388                g_vdec_hw_error_flag
                0x00000000801b73d8                g_vdec_m33_reg_base_addr
                0x00000000801b7340                g_vdec_hw_idle
                0x00000000801b73e0                Last_B_Frame_Inqueue
                0x00000000801b7364                g_vdec_extra_dview_enable
 .sdata         0x00000000801b741c       0x14 /d/3202c//sdk/libcore.a(tv_enc.o)
                0x00000000801b741e                g_tve_cgms
                0x00000000801b7420                gb_tve_logoswitch
                0x00000000801b741c                g_tve_cc
                0x00000000801b741d                g_tve_wss
                0x00000000801b741f                g_tve_ttx
 .sdata         0x00000000801b7430        0x4 /d/3202c//sdk/libcore.a(vpo_m3327_init_ext.o)
 .sdata         0x00000000801b7434       0x20 /d/3202c//sdk/libcore.a(dmx_m33_ca.o)
 .sdata         0x00000000801b7454       0x1c /d/3202c//sdk/libcore.a(dmx_m33_dbg.o)
                0x00000000801b745c                g_dmx_m33_debug_task_id
                0x00000000801b7460                g_dmx_m33_debug_level
                0x00000000801b7454                dmx_m33_dbg_show
                0x00000000801b7458                g_dmx_m33_debug_task_show_info_interval
 .sdata         0x00000000801b7470       0x80 /d/3202c//sdk/libcore.a(dmx_m33_pes.o)
                0x00000000801b7478                g_dmx_dbg_pes_last_conti
                0x00000000801b7484                g_dmx_dbg_pes_ts_in_cnt
                0x00000000801b7480                g_dmx_dbg_pes_ctrl_en
                0x00000000801b7476                CurAvSynLevel
                0x00000000801b7475                prev_av_sync_level
                0x00000000801b7474                adjust_av_sync
                0x00000000801b7470                pts_highest_thld_dmx
                0x00000000801b747c                g_dmx_dbg_pes_data_pid
 .sdata         0x00000000801b74f0        0x4 /d/3202c//sdk/libcore.a(ge_m33.o)
 .sdata         0x00000000801b74f4        0x8 /d/3202c//sdk/libcore.a(osd_s3601.o)
                0x00000000801b74f8                g_osddrv_flagid
 .sdata         0x00000000801b74fc        0x1 /d/3202c//sdk/libcore.a(snd_m33_reg.o)
                0x00000000801b74fc                SND_VOL
 *fill*         0x00000000801b74fd 0x6f06b000000003
 .sdata         0x00000000801b7500       0x30 /d/3202c//sdk/libcore.a(snd_m33_spectrum.o)
 .sdata         0x00000000801b7530        0x3 /d/3202c//sdk/libcore.a(snd_m33_tone.o)
 *fill*         0x00000000801b7533 0x6f06b000000001
 .sdata         0x00000000801b7534        0x8 /d/3202c//sdk/libcore.a(flag.o)
                0x00000000801b7538                flg_total_num
 .sdata         0x00000000801b753c        0x4 /d/3202c//sdk/libcore.a(hsr.o)
                0x00000000801b753e                g_HSR_Thread
                0x00000000801b753c                g_HSR_Buffer
 .sdata         0x00000000801b7540        0x4 /d/3202c//sdk/libcore.a(Interrupt.o)
 .sdata         0x00000000801b7544        0x4 /d/3202c//sdk/libcore.a(irq.o)
 .sdata         0x00000000801b7548        0x4 /d/3202c//sdk/libcore.a(mbuffer.o)
 .sdata         0x00000000801b754c       0x10 /d/3202c//sdk/libcore.a(mutex.o)
                0x00000000801b7558                mutex_total_num
                0x00000000801b7554                mutex_array_num
                0x00000000801b7550                mutex_flg_id
                0x00000000801b754c                mutex_array
 .sdata         0x00000000801b755c        0x4 /d/3202c//sdk/libcore.a(sched_mq.o)
 .sdata         0x00000000801b7560        0x8 /d/3202c//sdk/libcore.a(semapho.o)
                0x00000000801b7564                sem_total_num
 .sdata         0x00000000801b7568        0x8 /d/3202c//sdk/libcore.a(task.o)
                0x00000000801b7568                g_bDispatch
                0x00000000801b756c                g_CriticalSectionID
 .sdata         0x00000000801b7570       0x10 /d/3202c//sdk/libcore.a(taskc.o)
                0x00000000801b7570                g_Top_Pri
                0x00000000801b757c                suspend_array
                0x00000000801b7578                task_total_num
                0x00000000801b7574                g_tcb_table
 .sdata         0x00000000801b7580        0x2 /d/3202c//sdk/libcore.a(tds.o)
                0x00000000801b7580                g_TaskID_Idle
 *fill*         0x00000000801b7582 0x6f06b000000002
 .sdata         0x00000000801b7584       0x14 /d/3202c//sdk/libcore.a(timerc.o)
 .sdata         0x00000000801b7598       0x48 /d/3202c//sdk/libcore.a(scale.o)
                0x00000000801b7598                pline1
                0x00000000801b759c                pline2
 .sdata         0x00000000801b75e0       0x34 /d/3202c//sdk/libcore.a(deca_m33.o)
                0x00000000801b75f0                req_pcm_buf_begin
                0x00000000801b75f9                need_detect_sprt_chg
                0x00000000801b75ec                pcm_frm_out_of_date
                0x00000000801b75e8                pts_highest_thld
                0x00000000801b7604                av_sync_level
                0x00000000801b75f4                ase_mutex
                0x00000000801b7600                cfg_sprt_chg
                0x00000000801b7605                deca_dvr_pause_2_play_mute
                0x00000000801b75f8                aud_need_resume
                0x00000000801b75e0                deca_task_stack_size
                0x00000000801b75fc                cfg_sprt
                0x00000000801b75e4                deca_sync2_mask
 .sdata         0x00000000801b7614       0x14 /d/3202c//sdk/libcore.a(deca_m33_ase.o)
 .sdata         0x00000000801b7628       0x70 /d/3202c//sdk/libcore.a(vpo_driver.o)
                0x00000000801b7628                g_vdec_in_preview_mode
                0x00000000801b7660                g_vpo_setting_hw_layer
                0x00000000801b765c                g_vpo_interrupt_num
                0x00000000801b768d                g_mp_on
                0x00000000801b7650                VBI_Output
                0x00000000801b7655                g_logo_got
                0x00000000801b768c                g_scale_case
                0x00000000801b7634                g_vpo_sys_chip_id
                0x00000000801b7654                g_change_yc_init_phase
                0x00000000801b762c                g_vpo_direct_zoom_flag
                0x00000000801b7638                g_vpo_m33_sys_chip_version
                0x00000000801b7670                vpo_win_onoff_status_manually
                0x00000000801b7690                vp_scanmode_sync
                0x00000000801b766c                g_vpo_dbg_vblanking_cnt
 .sdata         0x00000000801b7698       0x10 /d/3202c//sdk/libcore.a(dmx_m33.o)
 .sdata         0x00000000801b76a8       0x2c /d/3202c//sdk/libcore.a(dmx_m33_api.o)
                0x00000000801b76bc                LastStc
                0x00000000801b76b8                g_snd_dmx_ref
                0x00000000801b76b4                g_deca_dmx_ref
                0x00000000801b76c0                LastTick
                0x00000000801b76aa                dmx_xfer_v_es_by_dma
                0x00000000801b76c4                LastReliableStreamClk
                0x00000000801b76ac                almost_equal_thld
                0x00000000801b76a8                dvr_supported
                0x00000000801b76a9                pip_supported
                0x00000000801b76ab                dmx_xfer_v_es_by_dma_tmp
                0x00000000801b76b0                dmx_sec_ch_start
 .sdata         0x00000000801b76d4        0x4 /d/3202c//sdk/libcore.a(ge_hal.o)
                0x00000000801b76d4                g_ge_m3202c_enable
 .sdata         0x00000000801b76d8       0x28 /d/3202c//sdk/libcore.a(ge_lld.o)
                0x00000000801b76f0                g_osd_scal_hdiv
                0x00000000801b76d8                osd_sdram_16M_flag_29e
                0x00000000801b76e8                g_ge_region_malloc_optimization
                0x00000000801b76dc                osd_bk_buf_addr_29e
                0x00000000801b76e4                g_ge_st_on_osd_enable
                0x00000000801b76ec                osd_trans_color
                0x00000000801b76e0                g_ge_mutex_id
 .sdata         0x00000000801b7700       0x54 /d/3202c//sdk/libcore.a(snd_m33.o)
                0x00000000801b770c                pcm_0_right_detected
                0x00000000801b7738                special_gpio_mute_cb
                0x00000000801b771f                m33_snd_support_swap_lr_ch
                0x00000000801b7720                m33_snd_dis_clk_while_ch_chg
                0x00000000801b773c                snd_dac_start
                0x00000000801b7726                pcm_buf1_size
                0x00000000801b7728                beep_run
                0x00000000801b770d                dac_reset_done
                0x00000000801b7708                pcm_0_right
                0x00000000801b7721                snd_hw_accelerator_enable
                0x00000000801b770f                dac_need_resume
                0x00000000801b771e                m33_snd_support_spdif_mute
                0x00000000801b771d                m33_snd_contain_embedded_dac
                0x00000000801b7718                pcm_buf_depth
                0x00000000801b7729                beep_cfged
                0x00000000801b7734                post_process_0_cb_0
                0x00000000801b7714                pcm_0_resume_idx
                0x00000000801b772a                g_ext_dec_working
                0x00000000801b7712                pcm_0_reset_idx_ref
                0x00000000801b7704                pcm_0_left_detected
                0x00000000801b7700                pcm_0_left
                0x00000000801b7724                pcm_buf0_size
                0x00000000801b7730                g_snd_sample_number
                0x00000000801b771c                snd_exist_mute_gpio
                0x00000000801b7716                pcm_0_resume_idx_ref
                0x00000000801b7710                pcm_0_reset_idx
                0x00000000801b770e                dac_need_reset
 .sdata         0x00000000801b7754        0x8 /D/ALi_IDE_2.1/compilers/gcc3.0.4/mips-t2-elf/lib/soft-float/el/libc.a(impure.o)
                0x00000000801b7758                _impure_ptr
 *(.sdata.*)
 *(.gnu.linkonce.s*)
                0x00000000801b775c                . =  ALIGN (0x4)
                0x00000000801b775c                _edata = (__SDATA_ROM_ADDR +  SIZEOF (.sdata))
                0x00000000801b775c                __SBSS_RAM_ADDR = (__SDATA_RAM_ADDR +  SIZEOF (.sdata))

.sbss           0x00000000801b775c      0x994 load address 0x00000000801b775c
 *(.sbss)
 *fill*         0x00000000801b775c 0x6f086000000004
 .sbss          0x00000000801b7760        0x8 cdca/win_ca_freepreviewing.o
 .sbss          0x00000000801b7768        0x4 cdca/win_ca_password.o
 .sbss          0x00000000801b776c        0x2 cdca/win_ca_popup_ipp.o
 .sbss          0x00000000801b776e        0x2 cdca/win_cas_com.o
 .sbss          0x00000000801b7770        0x4 cdca/win_osdmsg.o
 .sbss          0x00000000801b7774        0x4 copper_common/com_api.o
 .sbss          0x00000000801b7778        0x4 copper_common/menu_api.o
 *fill*         0x00000000801b777c 0x6f086000000004
 .sbss          0x00000000801b7780       0x10 copper_common/ota_special.o
 .sbss          0x00000000801b7790        0x8 copper_common/stb_data.o
 .sbss          0x00000000801b7798        0x4 geeya_ad/adv_geeya.o
 *fill*         0x00000000801b779c 0x6f086000000004
 .sbss          0x00000000801b77a0        0x8 geeya_ad/GYAD_Core.o
 .sbss          0x00000000801b77a8        0x4 key.o
 .sbss          0x00000000801b77ac        0x4 osd_rsc.o
 .sbss          0x00000000801b77b0        0x8 single_pic_ad/ad_pic_img.o
 .sbss          0x00000000801b77b8        0x8 single_pic_ad/ad_pic_png.o
 .sbss          0x00000000801b77c0       0x14 win_com.o
 .sbss          0x00000000801b77d4        0x8 win_com_list.o
 .sbss          0x00000000801b77dc        0x8 win_com_popup.o
 .sbss          0x00000000801b77e4        0xc win_game_com.o
 .sbss          0x00000000801b77f0        0x4 win_game_othello.o
 .sbss          0x00000000801b77f4        0x1 win_light_channel_list.o
 *fill*         0x00000000801b77f5 0x6f086000000003
 .sbss          0x00000000801b77f8       0x10 win_nvod.o
 .sbss          0x00000000801b7808        0x8 win_prog_input.o
 .sbss          0x00000000801b7810       0x18 win_search.o
 .sbss          0x00000000801b7828        0x2 win_signalstatus.o
 *fill*         0x00000000801b782a 0x6f086000000002
 .sbss          0x00000000801b782c        0x4 /d/3202c/prj/app/demo/dvbc/jade_demo_new_geeya/mcf_data_broadcast_3202c//release/lib//libgycas.a(gycas_api.o)
 .sbss          0x00000000801b7830        0xc /d/3202c/prj/app/demo/dvbc/jade_demo_new_geeya/mcf_data_broadcast_3202c//release/lib//libgycas.a(gycas_mgr.o)
 *fill*         0x00000000801b783c 0x6f086000000004
 .sbss          0x00000000801b7840       0x18 /d/3202c/prj/app/demo/dvbc/jade_demo_new_geeya/mcf_data_broadcast_3202c//release/lib//libgycas.a(gycas_smc.o)
 .sbss          0x00000000801b7858        0x8 /d/3202c/prj/app/demo/dvbc/jade_demo_new_geeya/mcf_data_broadcast_3202c//release/lib//libgycas.a(gycas_smc_drv.o)
 .sbss          0x00000000801b7860       0x10 /d/3202c/prj/app/demo/dvbc/jade_demo_new_geeya/mcf_data_broadcast_3202c//release/lib//libgycas.a(gycas_smc_hal.o)
 .sbss          0x00000000801b7870       0x20 /d/3202c/prj/app/demo/dvbc/jade_demo_new_geeya/mcf_data_broadcast_3202c//release/lib//libgycas.a(gycas_crc.o)
 .sbss          0x00000000801b7890        0x4 /d/3202c/prj/app/demo/dvbc/jade_demo_new_geeya/mcf_data_broadcast_3202c//release/lib//liball.a(i2c_scb.o)
 *fill*         0x00000000801b7894 0x6f086000000004
 .sbss          0x00000000801b7898        0x8 /d/3202c/prj/app/demo/dvbc/jade_demo_new_geeya/mcf_data_broadcast_3202c//release/lib//liball.a(pan.o)
 .sbss          0x00000000801b78a0        0x4 /d/3202c/prj/app/demo/dvbc/jade_demo_new_geeya/mcf_data_broadcast_3202c//release/lib//liball.a(lib_ash.o)
 .sbss          0x00000000801b78a4        0x8 /d/3202c/prj/app/demo/dvbc/jade_demo_new_geeya/mcf_data_broadcast_3202c//release/lib//liball.a(lib_ashcmd.o)
 .sbss          0x00000000801b78ac       0x10 /d/3202c/prj/app/demo/dvbc/jade_demo_new_geeya/mcf_data_broadcast_3202c//release/lib//liball.a(gif_out_ge.o)
 .sbss          0x00000000801b78bc       0x34 /d/3202c/prj/app/demo/dvbc/jade_demo_new_geeya/mcf_data_broadcast_3202c//release/lib//liball.a(imagedec_bmp_decoder.o)
 .sbss          0x00000000801b78f0        0x4 /d/3202c/prj/app/demo/dvbc/jade_demo_new_geeya/mcf_data_broadcast_3202c//release/lib//liball.a(imagedec_main.o)
 .sbss          0x00000000801b78f4        0x2 /d/3202c/prj/app/demo/dvbc/jade_demo_new_geeya/mcf_data_broadcast_3202c//release/lib//liball.a(imagedec_osd.o)
 *fill*         0x00000000801b78f6 0x6f086000000002
 .sbss          0x00000000801b78f8      0x258 /d/3202c/prj/app/demo/dvbc/jade_demo_new_geeya/mcf_data_broadcast_3202c//release/lib//liball.a(imagedec_trans.o)
 .sbss          0x00000000801b7b50       0x38 /d/3202c/prj/app/demo/dvbc/jade_demo_new_geeya/mcf_data_broadcast_3202c//release/lib//liball.a(imagedec_trans_dup.o)
 .sbss          0x00000000801b7b88        0x4 /d/3202c/prj/app/demo/dvbc/jade_demo_new_geeya/mcf_data_broadcast_3202c//release/lib//liball.a(lib_cc.o)
 .sbss          0x00000000801b7b8c        0x8 /d/3202c/prj/app/demo/dvbc/jade_demo_new_geeya/mcf_data_broadcast_3202c//release/lib//liball.a(lib_pub.o)
 .sbss          0x00000000801b7b94       0x10 /d/3202c/prj/app/demo/dvbc/jade_demo_new_geeya/mcf_data_broadcast_3202c//release/lib//liball.a(gyca_dmx.o)
 .sbss          0x00000000801b7ba4        0x4 /d/3202c/prj/app/demo/dvbc/jade_demo_new_geeya/mcf_data_broadcast_3202c//release/lib//liball.a(alloc.o)
 .sbss          0x00000000801b7ba8        0x4 /d/3202c/prj/app/demo/dvbc/jade_demo_new_geeya/mcf_data_broadcast_3202c//release/lib//liball.a(string.o)
 .sbss          0x00000000801b7bac        0x4 /d/3202c/prj/app/demo/dvbc/jade_demo_new_geeya/mcf_data_broadcast_3202c//release/lib//liball.a(eit_parser.o)
 .sbss          0x00000000801b7bb0        0x8 /d/3202c/prj/app/demo/dvbc/jade_demo_new_geeya/mcf_data_broadcast_3202c//release/lib//liball.a(epg_api.o)
 .sbss          0x00000000801b7bb8        0x4 /d/3202c/prj/app/demo/dvbc/jade_demo_new_geeya/mcf_data_broadcast_3202c//release/lib//liball.a(psi_db.o)
 .sbss          0x00000000801b7bbc        0x4 /d/3202c/prj/app/demo/dvbc/jade_demo_new_geeya/mcf_data_broadcast_3202c//release/lib//liball.a(si_search.o)
 .sbss          0x00000000801b7bc0       0x30 /d/3202c/prj/app/demo/dvbc/jade_demo_new_geeya/mcf_data_broadcast_3202c//release/lib//liball.a(si_tdt.o)
 .sbss          0x00000000801b7bf0       0x34 /d/3202c/prj/app/demo/dvbc/jade_demo_new_geeya/mcf_data_broadcast_3202c//release/lib//liball.a(lib_ota.o)
 .sbss          0x00000000801b7c24        0xc /d/3202c/prj/app/demo/dvbc/jade_demo_new_geeya/mcf_data_broadcast_3202c//release/lib//liball.a(chunk.o)
 .sbss          0x00000000801b7c30        0x8 /d/3202c/prj/app/demo/dvbc/jade_demo_new_geeya/mcf_data_broadcast_3202c//release/lib//liball.a(db_interface.o)
 .sbss          0x00000000801b7c38        0x2 /d/3202c/prj/app/demo/dvbc/jade_demo_new_geeya/mcf_data_broadcast_3202c//release/lib//liball.a(db_interface_ext.o)
 .sbss          0x00000000801b7c3a        0x1 /d/3202c/prj/app/demo/dvbc/jade_demo_new_geeya/mcf_data_broadcast_3202c//release/lib//liball.a(obj_editfield.o)
 *fill*         0x00000000801b7c3b 0x6f086000000005
 .sbss          0x00000000801b7c40        0x8 /d/3202c/prj/app/demo/dvbc/jade_demo_new_geeya/mcf_data_broadcast_3202c//release/lib//liball.a(osd_common_draw.o)
 .sbss          0x00000000801b7c48        0x4 /d/3202c/prj/app/demo/dvbc/jade_demo_new_geeya/mcf_data_broadcast_3202c//release/lib//liball.a(osd_lib.o)
 .sbss          0x00000000801b7c4c       0x10 /d/3202c/prj/app/demo/dvbc/jade_demo_new_geeya/mcf_data_broadcast_3202c//release/lib//liball.a(nim_s3202.o)
 .sbss          0x00000000801b7c5c        0x4 /d/3202c/prj/app/demo/dvbc/jade_demo_new_geeya/mcf_data_broadcast_3202c//release/lib//liball.a(tun_alpstdae.o)
 .sbss          0x00000000801b7c60        0x4 /d/3202c/prj/app/demo/dvbc/jade_demo_new_geeya/mcf_data_broadcast_3202c//release/lib//liball.a(tun_dct70701.o)
 .sbss          0x00000000801b7c64        0x3 /d/3202c/prj/app/demo/dvbc/jade_demo_new_geeya/mcf_data_broadcast_3202c//release/lib//liball.a(pan_tp6x0.o)
 *fill*         0x00000000801b7c67 0x6f086000000001
 .sbss          0x00000000801b7c68        0x4 /d/3202c/prj/app/demo/dvbc/jade_demo_new_geeya/mcf_data_broadcast_3202c//release/lib//liball.a(gif_lzw.o)
 .sbss          0x00000000801b7c6c        0x6 /d/3202c/prj/app/demo/dvbc/jade_demo_new_geeya/mcf_data_broadcast_3202c//release/lib//liball.a(lib_multiview.o)
 *fill*         0x00000000801b7c72 0x6f086000000002
 .sbss          0x00000000801b7c74        0xc /d/3202c/prj/app/demo/dvbc/jade_demo_new_geeya/mcf_data_broadcast_3202c//release/lib//liball.a(arabic_convert.o)
 .sbss          0x00000000801b7c80        0x8 /d/3202c/prj/app/demo/dvbc/jade_demo_new_geeya/mcf_data_broadcast_3202c//release/lib//liball.a(db_data_object.o)
 .sbss          0x00000000801b7c88        0x8 /d/3202c/prj/app/demo/dvbc/jade_demo_new_geeya/mcf_data_broadcast_3202c//release/lib//liball.a(R820C.o)
 .sbss          0x00000000801b7c90        0xc /d/3202c/prj/app/demo/dvbc/jade_demo_new_geeya/mcf_data_broadcast_3202c//release/lib//liball.a(irc_6303.o)
 .sbss          0x00000000801b7c9c        0x4 /d/3202c/prj/app/demo/dvbc/jade_demo_new_geeya/mcf_data_broadcast_3202c//release/lib//liball.a(irc_std.o)
 .sbss          0x00000000801b7ca0        0x4 /d/3202c//sdk/libcore.a(sgdma_m36.o)
 .sbss          0x00000000801b7ca4       0x14 /d/3202c//sdk/libcore.a(sw_scale.o)
 .sbss          0x00000000801b7cb8       0x28 /d/3202c//sdk/libcore.a(vdec_m3327.o)
 .sbss          0x00000000801b7ce0        0x8 /d/3202c//sdk/libcore.a(vpo_m3327_init_ext.o)
 .sbss          0x00000000801b7ce8        0x3 /d/3202c//sdk/libcore.a(snd_m33_reg.o)
 *fill*         0x00000000801b7ceb 0x6f086000000005
 .sbss          0x00000000801b7cf0       0x10 /d/3202c//sdk/libcore.a(snd_m33_spectrum.o)
 .sbss          0x00000000801b7d00       0x14 /d/3202c//sdk/libcore.a(irq.o)
 .sbss          0x00000000801b7d14       0x10 /d/3202c//sdk/libcore.a(scale.o)
                0x00000000801b7d20                line_offlen
                0x00000000801b7d14                up_line
                0x00000000801b7d18                bot_line
                0x00000000801b7d1c                img_end
 .sbss          0x00000000801b7d24        0x1 /d/3202c//sdk/libcore.a(snd_m33.o)
 *(.scommon)
 *fill*         0x00000000801b7d25 0x6f086000000003
 .scommon       0x00000000801b7d28        0x4 board_config.o
                                          0x0 (size before relaxing)
                0x00000000801b7d28                GUI_SURF_TYPE
 *fill*         0x00000000801b7d2c 0x6f086000000004
 .scommon       0x00000000801b7d30        0xa cdca/win_ca_operator_info.o
                                          0x0 (size before relaxing)
                0x00000000801b7d30                CAS_operator_ID
                0x00000000801b7d38                current_operator_ID
 *fill*         0x00000000801b7d3a 0x6f086000000002
 .scommon       0x00000000801b7d3c        0x4 cdca/win_osdmsg.o
                                          0x0 (size before relaxing)
                0x00000000801b7d3c                osdmsg_mutex_id
 .scommon       0x00000000801b7d40        0x9 control.o
                                          0x0 (size before relaxing)
                0x00000000801b7d40                control_mbf_id
                0x00000000801b7d44                msg_back_log_head
                0x00000000801b7d48                play_chan_nim_busy
 *fill*         0x00000000801b7d49 0x6f086000000001
 .scommon       0x00000000801b7d4a       0x12 game_box.o
                                          0x0 (size before relaxing)
                0x00000000801b7d4a                m_pathIndex
                0x00000000801b7d4c                m_TheMapsMoveWaySavePoint
                0x00000000801b7d4d                m_y
                0x00000000801b7d4e                m_mapsizey
                0x00000000801b7d4f                m_mapsizex
                0x00000000801b7d50                m_wayfilechanged
                0x00000000801b7d51                m_NumberOfBox
                0x00000000801b7d52                m_mx
                0x00000000801b7d53                m_size
                0x00000000801b7d54                m_TheShowStep
                0x00000000801b7d55                m_noanswerrecoded
                0x00000000801b7d56                m_CanUndo
                0x00000000801b7d57                m_x
                0x00000000801b7d58                m_my
                0x00000000801b7d59                m_computerthinkout
                0x00000000801b7d5a                m_CanMoveToBadPoint
                0x00000000801b7d5b                m_boxmovestepnumber
 .scommon       0x00000000801b7d5c        0x8 key.o
                                          0x0 (size before relaxing)
                0x00000000801b7d5c                lock_status
                0x00000000801b7d5d                led_data_len
                0x00000000801b7d5e                standby_status
                0x00000000801b7d60                signal_detect_flag
 .scommon       0x00000000801b7d64        0x4 osd_rsc.o
                                          0x0 (size before relaxing)
                0x00000000801b7d64                cur_font
 .scommon       0x00000000801b7d68        0x8 root.o
                                          0x0 (size before relaxing)
                0x00000000801b7d68                __errno
                0x00000000801b7d6c                VBIRequest
 .scommon       0x00000000801b7d70        0x2 win_chan_edit.o
                                          0x0 (size before relaxing)
                0x00000000801b7d70                current_prg_number
 .scommon       0x00000000801b7d72        0x1 win_chan_manage.o
                                          0x0 (size before relaxing)
                0x00000000801b7d72                chan_index_flag
 *fill*         0x00000000801b7d73 0x6f086000000001
 .scommon       0x00000000801b7d74        0x6 win_chanedit_action.o
                                          0x0 (size before relaxing)
                0x00000000801b7d74                chan_action_index
                0x00000000801b7d76                back_chan_action_flag
                0x00000000801b7d78                chan_old_action_index
 *fill*         0x00000000801b7d7a 0x6f086000000002
 .scommon       0x00000000801b7d7c        0x5 win_com.o
                                          0x0 (size before relaxing)
                0x00000000801b7d7c                tplist_sat_id
                0x00000000801b7d80                satlist_tuner_idx
 *fill*         0x00000000801b7d81 0x6f086000000003
 .scommon       0x00000000801b7d84       0x18 win_game_com.o
                                          0x0 (size before relaxing)
                0x00000000801b7d84                game_event
                0x00000000801b7d88                game_setup
                0x00000000801b7d8c                game_key_proc
                0x00000000801b7d90                game_pre_open
                0x00000000801b7d94                game_1st_draw
                0x00000000801b7d98                game_start
 .scommon       0x00000000801b7d9c        0x8 win_nvod.o
                                          0x0 (size before relaxing)
                0x00000000801b7d9c                NVOD_MSG_TYPE
                0x00000000801b7da0                NVOD_STATUS
 .scommon       0x00000000801b7da4        0x8 win_prog_name.o
                                          0x0 (size before relaxing)
                0x00000000801b7da4                show_and_playchannel
                0x00000000801b7da8                PROGNAME_TIMER_TIME
 *fill*         0x00000000801b7dac 0x6f086000000004
 .scommon       0x00000000801b7db0       0x10 win_pwd_set.o
                                          0x0 (size before relaxing)
                0x00000000801b7db0                g_PL_Input_Status
                0x00000000801b7db1                g_PL_Input_Bit_Number
                0x00000000801b7db8                win_pl_password_value
 .scommon       0x00000000801b7dc0        0x3 win_timer_set.o
                                          0x0 (size before relaxing)
                0x00000000801b7dc0                timer_set_modify_add_flag
                0x00000000801b7dc1                timer_set_check_starttime_flag
                0x00000000801b7dc2                timer_set_ok_cancel_flag
 *fill*         0x00000000801b7dc3 0x6f086000000001
 .scommon       0x00000000801b7dc4        0x4 win_volumebar.o
                                          0x0 (size before relaxing)
                0x00000000801b7dc4                VOLUME_TIMER_TIME
 .scommon       0x00000000801b7dc8        0x1 win_infomation.o
                                          0x0 (size before relaxing)
                0x00000000801b7dc8                nit_cur_version
 *fill*         0x00000000801b7dc9 0x6f086000000003
 .scommon       0x00000000801b7dcc        0x8 ../../../../../sdk/boot.o
                                          0x0 (size before relaxing)
                0x00000000801b7dcc                errno
                0x00000000801b7dd0                heap_ptr
 .scommon       0x00000000801b7dd4        0x2 /d/3202c/prj/app/demo/dvbc/jade_demo_new_geeya/mcf_data_broadcast_3202c//release/lib//libgycas.a(gycas_mgr.o)
                                          0x0 (size before relaxing)
                0x00000000801b7dd4                currentVmVer
                0x00000000801b7dd5                shouldVmVer
 *fill*         0x00000000801b7dd6 0x6f086000000002
 .scommon       0x00000000801b7dd8        0x8 /d/3202c/prj/app/demo/dvbc/jade_demo_new_geeya/mcf_data_broadcast_3202c//release/lib//libgycas.a(gycas_vm.o)
                                          0x0 (size before relaxing)
                0x00000000801b7dd8                SREG
 .scommon       0x00000000801b7de0        0xa /d/3202c/prj/app/demo/dvbc/jade_demo_new_geeya/mcf_data_broadcast_3202c//release/lib//liball.a(snd.o)
                                          0x0 (size before relaxing)
                0x00000000801b7de0                snd_chip_type_config
                0x00000000801b7de1                snd_mute_num
                0x00000000801b7de4                g_deca_snd_ref
                0x00000000801b7de8                snd_is_ext_dac
                0x00000000801b7de9                snd_mute_polar
 *fill*         0x00000000801b7dea 0x6f086000000002
 .scommon       0x00000000801b7dec       0x10 /d/3202c/prj/app/demo/dvbc/jade_demo_new_geeya/mcf_data_broadcast_3202c//release/lib//liball.a(gif.o)
                                          0x0 (size before relaxing)
                0x00000000801b7dec                g_gif_out_img
                0x00000000801b7df0                g_gif_out_enter
                0x00000000801b7df4                g_gif_out_init
                0x00000000801b7df8                g_gif_out_exit
 .scommon       0x00000000801b7dfc        0x4 /d/3202c/prj/app/demo/dvbc/jade_demo_new_geeya/mcf_data_broadcast_3202c//release/lib//liball.a(gif_main.o)
                                          0x0 (size before relaxing)
                0x00000000801b7dfc                g_gif_main
 .scommon       0x00000000801b7e00       0x48 /d/3202c/prj/app/demo/dvbc/jade_demo_new_geeya/mcf_data_broadcast_3202c//release/lib//liball.a(imagedec.o)
                                          0x0 (size before relaxing)
                0x00000000801b7e00                g_imagedec_vpo_device
                0x00000000801b7e04                g_imagedec_wait_flag
                0x00000000801b7e08                g_imagedec_close_vp_once
                0x00000000801b7e0c                g_imagedec_m33_combine_hw_sw_flag
                0x00000000801b7e10                g_imagedec_m33_enable_hw_vld
                0x00000000801b7e14                g_imagedec_stop_flag
                0x00000000801b7e18                g_imagedec_dis_frm_idx
                0x00000000801b7e1c                g_imagedec_pro_show
                0x00000000801b7e20                g_imagedec_angle
                0x00000000801b7e24                g_imagedec_enable_hw_acce
                0x00000000801b7e28                g_imagedec_need_logo_info
                0x00000000801b7e2c                g_imagedec_info_valid
                0x00000000801b7e30                g_imagedec_in_buf_task_id
                0x00000000801b7e34                g_imagedec_dis_flag
                0x00000000801b7e38                g_imagedec_need_new_pic
                0x00000000801b7e3c                g_imagedec_get_info
                0x00000000801b7e40                g_imagedec_m33_extend_hw_vld
                0x00000000801b7e44                g_imagedec_force_full_screen
 .scommon       0x00000000801b7e48       0x18 /d/3202c/prj/app/demo/dvbc/jade_demo_new_geeya/mcf_data_broadcast_3202c//release/lib//liball.a(imagedec_main.o)
                                          0x0 (size before relaxing)
                0x00000000801b7e48                temp_IDCT_buf2
                0x00000000801b7e4c                temp_IDCT_buf
                0x00000000801b7e50                jpg_buffer_pos
                0x00000000801b7e54                tem_flag
                0x00000000801b7e58                eof_flag
                0x00000000801b7e5c                error_code
 .scommon       0x00000000801b7e60       0x10 /d/3202c/prj/app/demo/dvbc/jade_demo_new_geeya/mcf_data_broadcast_3202c//release/lib//liball.a(imagedec_trans.o)
                                          0x0 (size before relaxing)
                0x00000000801b7e60                IDCT_Scaling_Routine
                0x00000000801b7e64                final_output_buf_Y
                0x00000000801b7e68                g_jpeg_dst_stride
                0x00000000801b7e6c                final_output_buf_C
 .scommon       0x00000000801b7e70        0x4 /d/3202c/prj/app/demo/dvbc/jade_demo_new_geeya/mcf_data_broadcast_3202c//release/lib//liball.a(lib_pub.o)
                                          0x0 (size before relaxing)
                0x00000000801b7e70                libpub_flag_id
 .scommon       0x00000000801b7e74        0x4 /d/3202c/prj/app/demo/dvbc/jade_demo_new_geeya/mcf_data_broadcast_3202c//release/lib//liball.a(gyca_dmx.o)
                                          0x0 (size before relaxing)
                0x00000000801b7e74                EmmOESend
                0x00000000801b7e75                EmmAloSend
                0x00000000801b7e76                EmmInfSend
                0x00000000801b7e77                EmmValSend
 .scommon       0x00000000801b7e78       0x30 /d/3202c/prj/app/demo/dvbc/jade_demo_new_geeya/mcf_data_broadcast_3202c//release/lib//liball.a(alloc.o)
                                          0x0 (size before relaxing)
                0x00000000801b7e78                _bytes_used
                0x00000000801b7e7c                __malloc_hook
                0x00000000801b7e80                _chunks_free
                0x00000000801b7e84                __realloc_hook
                0x00000000801b7e88                _heapindex
                0x00000000801b7e8c                _heaplimit
                0x00000000801b7e90                _heapinfo
                0x00000000801b7e94                _aligned_blocks
                0x00000000801b7e98                _bytes_free
                0x00000000801b7e9c                _heapbase
                0x00000000801b7ea0                __free_hook
                0x00000000801b7ea4                _chunks_used
 .scommon       0x00000000801b7ea8       0x10 /d/3202c/prj/app/demo/dvbc/jade_demo_new_geeya/mcf_data_broadcast_3202c//release/lib//liball.a(lib_ota.o)
                                          0x0 (size before relaxing)
                0x00000000801b7ea8                g_dc_blocksize
                0x00000000801b7eaa                g_dc_module_num
                0x00000000801b7eb0                g_dc_group
 .scommon       0x00000000801b7eb8        0x8 /d/3202c/prj/app/demo/dvbc/jade_demo_new_geeya/mcf_data_broadcast_3202c//release/lib//liball.a(db_interface.o)
                                          0x0 (size before relaxing)
                0x00000000801b7eb8                BO_Sec_Status
                0x00000000801b7ebc                BO_Sec_Type
 .scommon       0x00000000801b7ec0       0x1c /d/3202c/prj/app/demo/dvbc/jade_demo_new_geeya/mcf_data_broadcast_3202c//release/lib//liball.a(ge_draw_primitive.o)
                                          0x0 (size before relaxing)
                0x00000000801b7ec0                g_gui_msize
                0x00000000801b7ec4                g_memrgn_tbl
                0x00000000801b7ec8                g_gelib_m3602_dualoutput
                0x00000000801b7ecc                g_size_max
                0x00000000801b7ed0                g_rct_scaleclip
                0x00000000801b7ed8                gui_dev
 .scommon       0x00000000801b7edc       0x70 /d/3202c/prj/app/demo/dvbc/jade_demo_new_geeya/mcf_data_broadcast_3202c//release/lib//liball.a(ge_primitive_init.o)
                                          0x0 (size before relaxing)
                0x00000000801b7edc                gelib_drawbmp
                0x00000000801b7ee0                gelib_blend_rgn
                0x00000000801b7ee4                gelib_delete_rgn
                0x00000000801b7ee8                gelib_set_pallette
                0x00000000801b7eec                gelib_update2scrn
                0x00000000801b7ef0                gelib_lineto
                0x00000000801b7ef4                gelib_drawline
                0x00000000801b7ef8                gelib_drawfont
                0x00000000801b7efc                gelib_getdstrgn
                0x00000000801b7f00                gui_design_dimension
                0x00000000801b7f04                gelib_set_rgnpos
                0x00000000801b7f08                gelib_colorkey_rgn
                0x00000000801b7f0c                gelib_modify_pallette
                0x00000000801b7f10                gelib_setgalpha
                0x00000000801b7f14                gelib_clearclip
                0x00000000801b7f18                gelib_get_pallette
                0x00000000801b7f1c                gelib_rgn_showonoff
                0x00000000801b7f20                gelib_renderbmp
                0x00000000801b7f24                gelib_retrievescrn
                0x00000000801b7f28                gelib_fillrect
                0x00000000801b7f2c                gelib_scale
                0x00000000801b7f30                gelib_setclip
                0x00000000801b7f34                gelib_fillroundrect
                0x00000000801b7f38                gelib_flush_rgn
                0x00000000801b7f3c                gelib_state
                0x00000000801b7f40                gelib_get_rgnpos
                0x00000000801b7f44                gelib_create_rgn
                0x00000000801b7f48                ge_version
 .scommon       0x00000000801b7f4c        0x8 /d/3202c/prj/app/demo/dvbc/jade_demo_new_geeya/mcf_data_broadcast_3202c//release/lib//liball.a(osd_lib.o)
                                          0x0 (size before relaxing)
                0x00000000801b7f4c                g_ObjectOpenNotify
                0x00000000801b7f50                g_ObjectCloseNotify
 .scommon       0x00000000801b7f54        0x5 /d/3202c/prj/app/demo/dvbc/jade_demo_new_geeya/mcf_data_broadcast_3202c//release/lib//liball.a(osd_plugin.o)
                                          0x0 (size before relaxing)
                0x00000000801b7f54                g_surf_handle
                0x00000000801b7f58                g_rgn_idx
 *fill*         0x00000000801b7f59 0x6f086000000003
 .scommon       0x00000000801b7f5c        0x4 /d/3202c/prj/app/demo/dvbc/jade_demo_new_geeya/mcf_data_broadcast_3202c//release/lib//liball.a(osd_popup.o)
                                          0x0 (size before relaxing)
                0x00000000801b7f5c                gedraw_up2scrn_cb
 .scommon       0x00000000801b7f60       0x10 /d/3202c/prj/app/demo/dvbc/jade_demo_new_geeya/mcf_data_broadcast_3202c//release/lib//liball.a(osd_window.o)
                                          0x0 (size before relaxing)
                0x00000000801b7f60                g_wndrects_idx
                0x00000000801b7f64                g_wnd_monitors
                0x00000000801b7f68                g_osdwnd_onoff
                0x00000000801b7f6c                g_wndrects_cnt
 .scommon       0x00000000801b7f70        0x4 /d/3202c/prj/app/demo/dvbc/jade_demo_new_geeya/mcf_data_broadcast_3202c//release/lib//liball.a(imagedec_exif.o)
                                          0x0 (size before relaxing)
                0x00000000801b7f70                g_imagedec_exif_error_code
 *fill*         0x00000000801b7f74 0x6f086000000004
 .scommon       0x00000000801b7f78       0x10 /d/3202c/prj/app/demo/dvbc/jade_demo_new_geeya/mcf_data_broadcast_3202c//release/lib//liball.a(db_data_object.o)
                                          0x0 (size before relaxing)
                0x00000000801b7f78                Operation_Type
                0x00000000801b7f80                db_cmd_buf
 .scommon       0x00000000801b7f88       0x1a /d/3202c/prj/app/demo/dvbc/jade_demo_new_geeya/mcf_data_broadcast_3202c//release/lib//liball.a(R820C.o)
                                          0x0 (size before relaxing)
                0x00000000801b7f88                R828_CAL_LO_khz
                0x00000000801b7f8c                R828_IMR_XT
                0x00000000801b7f92                R828_I2C
                0x00000000801b7f94                R828_IMR_point_num
                0x00000000801b7f98                R828_IF_khz
                0x00000000801b7f9c                R828_IMR_YT
 *fill*         0x00000000801b7fa2 0x6f086000000006
 .scommon       0x00000000801b7fa8       0x20 /d/3202c//sdk/libcore.a(power_down_detect.o)
                                          0x0 (size before relaxing)
                0x00000000801b7fa8                pdd_chip_id
                0x00000000801b7fac                palert_gpio
                0x00000000801b7fb0                pdd_chip_version
                0x00000000801b7fb4                pok_gpio
                0x00000000801b7fb8                pok_suspend
                0x00000000801b7fc0                pdd_dev_list
 .scommon       0x00000000801b7fc8        0x4 /d/3202c//sdk/libcore.a(sgdma_m36.o)
                                          0x0 (size before relaxing)
                0x00000000801b7fc8                sgdma_chip_id_ref
 .scommon       0x00000000801b7fcc       0x2c /d/3202c//sdk/libcore.a(sw_scale.o)
                                          0x0 (size before relaxing)
                0x00000000801b7fcc                dest_w_c
                0x00000000801b7fd0                dest_w
                0x00000000801b7fd4                dest_h
                0x00000000801b7fd8                sorc_std
                0x00000000801b7fdc                dest_std
                0x00000000801b7fe0                software_scaler_c
                0x00000000801b7fe4                dest_h_c
                0x00000000801b7fe8                tap_v
                0x00000000801b7fec                d_dmb_adv
                0x00000000801b7ff0                software_scaler
                0x00000000801b7ff4                tap_h
 .scommon       0x00000000801b7ff8       0x30 /d/3202c//sdk/libcore.a(vdec_m3327.o)
                                          0x0 (size before relaxing)
                0x00000000801b7ff8                sw_time_sum
                0x00000000801b8000                g_vdec_info
                0x00000000801b8008                hw_time_sum
                0x00000000801b8010                hw_time_slice
                0x00000000801b8018                sw_time_slice
                0x00000000801b8020                sw_time_cnt
 .scommon       0x00000000801b8028        0x7 /d/3202c//sdk/libcore.a(tv_enc.o)
                                          0x0 (size before relaxing)
                0x00000000801b8028                TVEREG0A
                0x00000000801b8029                TVEREG0D
                0x00000000801b802a                TVEREG03
                0x00000000801b802b                TVEREG0C
                0x00000000801b802c                TVEREG0E
                0x00000000801b802d                TVEREG09
                0x00000000801b802e                TVEREG0B
 *fill*         0x00000000801b802f 0x6f086000000001
 .scommon       0x00000000801b8030        0x8 /d/3202c//sdk/libcore.a(vpo_m3327_init_ext.o)
                                          0x0 (size before relaxing)
                0x00000000801b8030                g_vp_info
 .scommon       0x00000000801b8038        0xc /d/3202c//sdk/libcore.a(osd_s3601.o)
                                          0x0 (size before relaxing)
                0x00000000801b8038                ge_dev
                0x00000000801b803c                gp_osd_s3601_private0
                0x00000000801b8040                gp_osd_s3601_private1
 *fill*         0x00000000801b8044 0x6f086000000004
 .scommon       0x00000000801b8048        0x8 /d/3202c//sdk/libcore.a(snd_m33_tone.o)
                                          0x0 (size before relaxing)
                0x00000000801b8048                pcm_ch
 .scommon       0x00000000801b8050        0x4 /d/3202c//sdk/libcore.a(mbuffer.o)
                                          0x0 (size before relaxing)
                0x00000000801b8050                mbf_total_num
 .scommon       0x00000000801b8054        0x4 /d/3202c//sdk/libcore.a(sched_mq.o)
                                          0x0 (size before relaxing)
                0x00000000801b8054                _rdy_msk
 .scommon       0x00000000801b8058        0x8 /d/3202c//sdk/libcore.a(taskc.o)
                                          0x0 (size before relaxing)
                0x00000000801b8058                g_pTskSch
                0x00000000801b805c                g_pTskRun
 .scommon       0x00000000801b8060        0x8 /d/3202c//sdk/libcore.a(tds.o)
                                          0x0 (size before relaxing)
                0x00000000801b8060                heap_start
                0x00000000801b8064                irq_msk
 .scommon       0x00000000801b8068       0x1c /d/3202c//sdk/libcore.a(timerc.o)
                                          0x0 (size before relaxing)
                0x00000000801b8068                g_current_second
                0x00000000801b8070                g_timer_queue
                0x00000000801b8078                g_cur_timer
                0x00000000801b807c                g_cCurSlice
                0x00000000801b8080                g_current_time
 .scommon       0x00000000801b8084       0x18 /d/3202c//sdk/libcore.a(deca_m33.o)
                                          0x0 (size before relaxing)
                0x00000000801b8084                g_spdif_type_deca_ref
                0x00000000801b8088                g_snd_deca_ref
                0x00000000801b808c                deca_bs_buf_size
                0x00000000801b8090                g_deca_stream_type
                0x00000000801b8094                g_dac_prec_deca_ref
                0x00000000801b8098                deca_ctrl_blk_num
 .scommon       0x00000000801b809c        0x2 /d/3202c//sdk/libcore.a(vpo_driver.o)
                                          0x0 (size before relaxing)
                0x00000000801b809c                g_uLinemeetPosi
 *fill*         0x00000000801b809e 0x6f086000000002
 .scommon       0x00000000801b80a0       0x34 /d/3202c//sdk/libcore.a(dmx_m33_api.o)
                                          0x0 (size before relaxing)
                0x00000000801b80a0                ts_extra_video_cb_len
                0x00000000801b80a2                ts_ttx_tmp_cb_len
                0x00000000801b80a4                ts_tmp_united_cb_len
                0x00000000801b80a8                ts_ttx_tmp_buf
                0x00000000801b80ac                ts_united_cb_len
                0x00000000801b80ae                dmx_hw_filt_num
                0x00000000801b80b0                pcr_tick_standard_slope
                0x00000000801b80b4                ts_video_cb_len
                0x00000000801b80b8                DmxAvSyncParam
                0x00000000801b80c0                ts_common_cb_len
                0x00000000801b80c2                ts_pcr_cb_len
                0x00000000801b80c4                cpu_mclk_dmx_ref
                0x00000000801b80c8                dmx1_dma_start_addr
                0x00000000801b80cc                ts_audio_cb_len
                0x00000000801b80ce                ts_ttx_cb_len
                0x00000000801b80d0                dmx0_dma_start_addr
 .scommon       0x00000000801b80d4        0x4 /d/3202c//sdk/libcore.a(ge_hal.o)
                                          0x0 (size before relaxing)
                0x00000000801b80d4                g_ge_sys_chip_module
 .scommon       0x00000000801b80d8        0x4 /d/3202c//sdk/libcore.a(ge_lld.o)
                                          0x0 (size before relaxing)
                0x00000000801b80d8                gp_ge_private
 .scommon       0x00000000801b80dc       0x14 /d/3202c//sdk/libcore.a(snd_m33.o)
                                          0x0 (size before relaxing)
                0x00000000801b80dc                ic_id_snd_ref
                0x00000000801b80e0                ic_is_M3202_snd_ref
                0x00000000801b80e4                ic_ver_snd_ref
                0x00000000801b80e8                g_snd_spdif_type
                0x00000000801b80ec                g_stream_type_snd_ref
                0x00000000801b80f0                __BSS_RAM_ADDR = (__SBSS_RAM_ADDR +  SIZEOF (.sbss))

.bss            0x00000000801b80f0   0x10b35a load address 0x00000000801b80f0
 *(.bss)
 .bss           0x00000000801b80f0      0x800 cdca/win_ca_password.o
 .bss           0x00000000801b88f0       0x68 cdca/win_cas_proc.o
 .bss           0x00000000801b8958      0x1b8 cdca/win_mail_content.o
 .bss           0x00000000801b8b10      0xfd0 cdca/win_osdmsg.o
 .bss           0x00000000801b9ae0     0x2640 copper_common/bat_private.o
 .bss           0x00000000801bc120       0x18 copper_common/com_api.o
 .bss           0x00000000801bc138      0x400 copper_common/ota_special.o
 .bss           0x00000000801bc538      0xd28 copper_common/system_data.o
 .bss           0x00000000801bd260     0x1010 geeya_ad/adv_geeya.o
 .bss           0x00000000801be270      0x500 geeya_ad/GYAD_Core.o
 .bss           0x00000000801be770    0x69400 osd_rsc.o
 .bss           0x0000000080227b70     0x7800 single_pic_ad/ad_pic.o
 .bss           0x000000008022f370     0x1000 single_pic_ad/ad_pic_gif.o
 .bss           0x0000000080230370       0x40 win_book_detail.o
 .bss           0x00000000802303b0       0x10 win_chan_detail.o
 .bss           0x00000000802303c0       0xa0 win_chan_edit.o
 .bss           0x0000000080230460       0x10 win_chan_list.o
 .bss           0x0000000080230470       0xa0 win_chanedit_action.o
 .bss           0x0000000080230510       0xa0 win_child_lock_list.o
 .bss           0x00000000802305b0      0x108 win_com.o
 .bss           0x00000000802306b8      0x800 win_com_popup.o
 .bss           0x0000000080230eb8       0x80 win_game_com.o
 .bss           0x0000000080230f38       0x68 win_game_othello.o
 .bss           0x0000000080230fa0       0xa0 win_mainmenu.o
 .bss           0x0000000080231040      0x138 win_nvod.o
 .bss           0x0000000080231178       0x20 win_nvod_warn.o
 .bss           0x0000000080231198       0x10 win_password.o
 .bss           0x00000000802311a8       0x90 win_prog_name.o
 .bss           0x0000000080231238      0x140 win_search.o
 .bss           0x0000000080231378      0x1c8 /d/3202c/prj/app/demo/dvbc/jade_demo_new_geeya/mcf_data_broadcast_3202c//release/lib//libgycas.a(gycas_api.o)
 .bss           0x0000000080231540       0xd8 /d/3202c/prj/app/demo/dvbc/jade_demo_new_geeya/mcf_data_broadcast_3202c//release/lib//libgycas.a(gycas_ecm.o)
 .bss           0x0000000080231618     0x1488 /d/3202c/prj/app/demo/dvbc/jade_demo_new_geeya/mcf_data_broadcast_3202c//release/lib//libgycas.a(gycas_mgr.o)
 .bss           0x0000000080232aa0      0x200 /d/3202c/prj/app/demo/dvbc/jade_demo_new_geeya/mcf_data_broadcast_3202c//release/lib//libgycas.a(gycas_mmm.o)
 .bss           0x0000000080232ca0      0x8b8 /d/3202c/prj/app/demo/dvbc/jade_demo_new_geeya/mcf_data_broadcast_3202c//release/lib//libgycas.a(gycas_smc.o)
 .bss           0x0000000080233558      0x210 /d/3202c/prj/app/demo/dvbc/jade_demo_new_geeya/mcf_data_broadcast_3202c//release/lib//libgycas.a(gycas_smc_drv.o)
 .bss           0x0000000080233768      0x4a0 /d/3202c/prj/app/demo/dvbc/jade_demo_new_geeya/mcf_data_broadcast_3202c//release/lib//libgycas.a(gycas_smc_hal.o)
 .bss           0x0000000080233c08      0x400 /d/3202c/prj/app/demo/dvbc/jade_demo_new_geeya/mcf_data_broadcast_3202c//release/lib//libgycas.a(gycas_crc.o)
 .bss           0x0000000080234008      0x2e8 /d/3202c/prj/app/demo/dvbc/jade_demo_new_geeya/mcf_data_broadcast_3202c//release/lib//libgycas.a(gycas_emm.o)
 .bss           0x00000000802342f0      0x100 /d/3202c/prj/app/demo/dvbc/jade_demo_new_geeya/mcf_data_broadcast_3202c//release/lib//liball.a(pan.o)
 .bss           0x00000000802343f0       0xa0 /d/3202c/prj/app/demo/dvbc/jade_demo_new_geeya/mcf_data_broadcast_3202c//release/lib//liball.a(lib_ash.o)
 .bss           0x0000000080234490       0x88 /d/3202c/prj/app/demo/dvbc/jade_demo_new_geeya/mcf_data_broadcast_3202c//release/lib//liball.a(gif_sync.o)
 .bss           0x0000000080234518      0x200 /d/3202c/prj/app/demo/dvbc/jade_demo_new_geeya/mcf_data_broadcast_3202c//release/lib//liball.a(imagedec_trans_dup.o)
 .bss           0x0000000080234718      0x2d8 /d/3202c/prj/app/demo/dvbc/jade_demo_new_geeya/mcf_data_broadcast_3202c//release/lib//liball.a(lib_device_manage.o)
 .bss           0x00000000802349f0      0x3c0 /d/3202c/prj/app/demo/dvbc/jade_demo_new_geeya/mcf_data_broadcast_3202c//release/lib//liball.a(lib_frontend.o)
 .bss           0x0000000080234db0       0xf0 /d/3202c/prj/app/demo/dvbc/jade_demo_new_geeya/mcf_data_broadcast_3202c//release/lib//liball.a(lib_pub.o)
 .bss           0x0000000080234ea0     0x2048 /d/3202c/prj/app/demo/dvbc/jade_demo_new_geeya/mcf_data_broadcast_3202c//release/lib//liball.a(cas_gy.o)
 .bss           0x0000000080236ee8      0x410 /d/3202c/prj/app/demo/dvbc/jade_demo_new_geeya/mcf_data_broadcast_3202c//release/lib//liball.a(gy_catask.o)
 .bss           0x00000000802372f8     0x1000 /d/3202c/prj/app/demo/dvbc/jade_demo_new_geeya/mcf_data_broadcast_3202c//release/lib//liball.a(eit_parser.o)
 .bss           0x00000000802382f8     0x4088 /d/3202c/prj/app/demo/dvbc/jade_demo_new_geeya/mcf_data_broadcast_3202c//release/lib//liball.a(epg_api.o)
 .bss           0x000000008023c380       0x28 /d/3202c/prj/app/demo/dvbc/jade_demo_new_geeya/mcf_data_broadcast_3202c//release/lib//liball.a(epg_db.o)
 .bss           0x000000008023c3a8       0x58 /d/3202c/prj/app/demo/dvbc/jade_demo_new_geeya/mcf_data_broadcast_3202c//release/lib//liball.a(lib_epg.o)
 .bss           0x000000008023c400       0x18 /d/3202c/prj/app/demo/dvbc/jade_demo_new_geeya/mcf_data_broadcast_3202c//release/lib//liball.a(x_alloc.o)
 .bss           0x000000008023c418       0x88 /d/3202c/prj/app/demo/dvbc/jade_demo_new_geeya/mcf_data_broadcast_3202c//release/lib//liball.a(sie.o)
 .bss           0x000000008023c4a0     0x3770 /d/3202c/prj/app/demo/dvbc/jade_demo_new_geeya/mcf_data_broadcast_3202c//release/lib//liball.a(sie_monitor_core.o)
 .bss           0x000000008023fc10       0xa0 /d/3202c/prj/app/demo/dvbc/jade_demo_new_geeya/mcf_data_broadcast_3202c//release/lib//liball.a(sie_monitor_dtg.o)
 .bss           0x000000008023fcb0      0x830 /d/3202c/prj/app/demo/dvbc/jade_demo_new_geeya/mcf_data_broadcast_3202c//release/lib//liball.a(si_tdt.o)
 .bss           0x00000000802404e0     0x13b8 /d/3202c/prj/app/demo/dvbc/jade_demo_new_geeya/mcf_data_broadcast_3202c//release/lib//liball.a(lib_ota.o)
 .bss           0x0000000080241898       0x80 /d/3202c/prj/app/demo/dvbc/jade_demo_new_geeya/mcf_data_broadcast_3202c//release/lib//liball.a(chunk.o)
 .bss           0x0000000080241918      0x500 /d/3202c/prj/app/demo/dvbc/jade_demo_new_geeya/mcf_data_broadcast_3202c//release/lib//liball.a(stb_info_data.o)
 .bss           0x0000000080241e18      0x400 /d/3202c/prj/app/demo/dvbc/jade_demo_new_geeya/mcf_data_broadcast_3202c//release/lib//liball.a(ge_draw_primitive.o)
 .bss           0x0000000080242218      0x400 /d/3202c/prj/app/demo/dvbc/jade_demo_new_geeya/mcf_data_broadcast_3202c//release/lib//liball.a(gecmd_primitive.o)
 .bss           0x0000000080242618      0x2f8 /d/3202c/prj/app/demo/dvbc/jade_demo_new_geeya/mcf_data_broadcast_3202c//release/lib//liball.a(osd_lib.o)
 .bss           0x0000000080242910       0x38 /d/3202c/prj/app/demo/dvbc/jade_demo_new_geeya/mcf_data_broadcast_3202c//release/lib//liball.a(nim_s3202.o)
 .bss           0x0000000080242948       0x38 /d/3202c/prj/app/demo/dvbc/jade_demo_new_geeya/mcf_data_broadcast_3202c//release/lib//liball.a(pan_ct1642.o)
 .bss           0x0000000080242980       0x58 /d/3202c/prj/app/demo/dvbc/jade_demo_new_geeya/mcf_data_broadcast_3202c//release/lib//liball.a(pan_tp6x0.o)
 .bss           0x00000000802429d8      0xef0 /d/3202c/prj/app/demo/dvbc/jade_demo_new_geeya/mcf_data_broadcast_3202c//release/lib//liball.a(lib_multiview.o)
 .bss           0x00000000802438c8     0x3400 /d/3202c/prj/app/demo/dvbc/jade_demo_new_geeya/mcf_data_broadcast_3202c//release/lib//liball.a(arabic_convert.o)
 .bss           0x0000000080246cc8       0x48 /d/3202c/prj/app/demo/dvbc/jade_demo_new_geeya/mcf_data_broadcast_3202c//release/lib//liball.a(db_basic_operation.o)
 .bss           0x0000000080246d10     0x2598 /d/3202c/prj/app/demo/dvbc/jade_demo_new_geeya/mcf_data_broadcast_3202c//release/lib//liball.a(db_data_object.o)
 .bss           0x00000000802492a8       0x40 /d/3202c/prj/app/demo/dvbc/jade_demo_new_geeya/mcf_data_broadcast_3202c//release/lib//liball.a(R820C.o)
 .bss           0x00000000802492e8      0x100 /d/3202c/prj/app/demo/dvbc/jade_demo_new_geeya/mcf_data_broadcast_3202c//release/lib//liball.a(irc_6303.o)
 .bss           0x00000000802493e8     0xc350 /d/3202c//sdk/libcore.a(deca_m33_dolby.o)
 .bss           0x0000000080255738      0x3c0 /d/3202c//sdk/libcore.a(deca_m33_tone.o)
 .bss           0x0000000080255af8     0x1480 /d/3202c//sdk/libcore.a(sw_scale.o)
 .bss           0x0000000080256f78       0x38 /d/3202c//sdk/libcore.a(osd_s3601.o)
 .bss           0x0000000080256fb0      0xa00 /d/3202c//sdk/libcore.a(snd_m33_spectrum.o)
 .bss           0x00000000802579b0      0x180 /d/3202c//sdk/libcore.a(Interrupt.o)
 .bss           0x0000000080257b30       0x10 /d/3202c//sdk/libcore.a(tds.o)
 .bss           0x0000000080257b40       0x20 /d/3202c//sdk/libcore.a(deca_m33_ase.o)
 .bss           0x0000000080257b60       0xc0 /d/3202c//sdk/libcore.a(dmx_m33.o)
 .bss           0x0000000080257c20     0x6d60 /d/3202c//sdk/libcore.a(ge_hal.o)
 .bss           0x000000008025e980       0x10 /d/3202c//sdk/libcore.a(ge_lld.o)
 .bss           0x000000008025e990       0x10 /d/3202c//sdk/liblog.a(stdio.o)
 *(COMMON)
 COMMON         0x000000008025e9a0      0x150 board_config.o
                                          0x0 (size before relaxing)
                0x000000008025e9a0                i2c_dev_ext
                0x000000008025e9b0                i2c_dev
                0x000000008025ea00                g_cc_play_tick
 COMMON         0x000000008025eaf0      0x1c4 cdca/win_ca_operator_info.o
                                          0x0 (size before relaxing)
                0x000000008025eaf0                CAS_operator_info
 *fill*         0x000000008025ecb4 0x6f09600000000c
 COMMON         0x000000008025ecc0       0x14 cdca/win_ca_watchlevel.o
                                          0x0 (size before relaxing)
                0x000000008025ecc0                maturity_sub
 *fill*         0x000000008025ecd4 0x6f09600000000c
 COMMON         0x000000008025ece0       0x12 cdca/win_cas_com.o
                                          0x0 (size before relaxing)
                0x000000008025ece0                pin_pwd_password_str
 *fill*         0x000000008025ecf2 0x6f09600000000e
 COMMON         0x000000008025ed00       0x3e cdca/win_fingerprint.o
                                          0x0 (size before relaxing)
                0x000000008025ed00                str_fingerprint
                0x000000008025ed20                str_urgent
 *fill*         0x000000008025ed3e 0x6f096000000002
 COMMON         0x000000008025ed40      0x960 cdca/win_mail.o
                                          0x0 (size before relaxing)
                0x000000008025ed40                email_head
 COMMON         0x000000008025f6a0      0x148 control.o
                                          0x0 (size before relaxing)
                0x000000008025f6a0                recent_channels
 *fill*         0x000000008025f7e8 0x6f096000000008
 COMMON         0x000000008025f7f0       0x88 copper_common/backup_loader.o
                                          0x0 (size before relaxing)
                0x000000008025f7f0                flash_info
                0x000000008025f840                multi_flash_info
 *fill*         0x000000008025f878 0x6f096000000008
 COMMON         0x000000008025f880     0x1640 copper_common/menu_api.o
                                          0x0 (size before relaxing)
                0x000000008025f880                len_display_str
                0x000000008025fae0                display_strs
                0x0000000080260e70                g_menuStack
 COMMON         0x0000000080260ec0      0x500 copper_common/stb_data.o
                                          0x0 (size before relaxing)
                0x0000000080260ec0                system_stb_data
 COMMON         0x00000000802613c0      0xd28 copper_common/system_data.o
                                          0x0 (size before relaxing)
                0x00000000802613c0                system_config
 *fill*         0x00000000802620e8 0x6f096000000008
 COMMON         0x00000000802620f0     0x1290 game_box.o
                                          0x0 (size before relaxing)
                0x00000000802620f0                m_path
                0x00000000802630f0                box_str
                0x0000000080263100                m_map
                0x0000000080263240                m_bnm
 COMMON         0x0000000080263380       0x80 game_othello.o
                                          0x0 (size before relaxing)
                0x0000000080263380                step_array
 COMMON         0x0000000080263400        0xc geeya_ad/adv_geeya.o
                                          0x0 (size before relaxing)
                0x0000000080263400                Reg_fid
 *fill*         0x000000008026340c 0x6f096000000004
 COMMON         0x0000000080263410       0x42 key.o
                                          0x0 (size before relaxing)
                0x0000000080263410                key_address
                0x0000000080263430                key_address_mask
                0x0000000080263448                led_display_data
 *fill*         0x0000000080263452 0x6f09600000000e
 COMMON         0x0000000080263460       0xf0 osd_rsc.o
                                          0x0 (size before relaxing)
                0x0000000080263460                font_array
                0x0000000080263530                font_asc
                0x0000000080263540                font_chn
 COMMON         0x0000000080263550       0x3c root.o
                                          0x0 (size before relaxing)
                0x0000000080263550                g_QAM_Tuner_Cfg
 *fill*         0x000000008026358c 0x6f096000000004
 COMMON         0x0000000080263590       0x80 win_chan_edit.o
                                          0x0 (size before relaxing)
                0x0000000080263590                current_prg_name
                0x00000000802635d0                del_channel_idx
 COMMON         0x0000000080263610      0x600 win_com_list.o
                                          0x0 (size before relaxing)
                0x0000000080263610                title_string
                0x0000000080263650                comlist_sl_array
                0x0000000080263940                comlist_item_str
 COMMON         0x0000000080263c10      0x320 win_com_popup.o
                                          0x0 (size before relaxing)
                0x0000000080263c10                msg_title
                0x0000000080263da0                msg_str
 COMMON         0x0000000080263f30      0x280 win_epg.o
                                          0x0 (size before relaxing)
                0x0000000080263f30                epg_sch_weekday
                0x0000000080263f70                epg_book_bmp2
                0x0000000080263fa0                epg_book_bmp1
                0x0000000080263fd0                epg_grp_left_arrow
                0x0000000080264000                epg_book_bmp0
                0x0000000080264030                epg_prg_scb
                0x0000000080264070                epg_book_bmp4
                0x00000000802640a0                epg_cur_prog_bmp
                0x00000000802640d0                epg_sch_scb
                0x0000000080264110                epg_grp_right_arrow
                0x0000000080264140                epg_grp_name
                0x0000000080264180                epg_book_bmp3
 COMMON         0x00000000802641b0      0x258 win_full_band_scan.o
                                          0x0 (size before relaxing)
                0x00000000802641b0                autoscan_edit_str
 COMMON         0x0000000080264408        0xc win_manual_update.o
                                          0x0 (size before relaxing)
                0x0000000080264408                upgrade_info_param
 *fill*         0x0000000080264414 0x6f09600000000c
 COMMON         0x0000000080264420      0x200 win_nvod.o
                                          0x0 (size before relaxing)
                0x0000000080264420                refEventBuf
 COMMON         0x0000000080264620       0x34 win_nvod_event_bar.o
                                          0x0 (size before relaxing)
                0x0000000080264620                nvod_event_bar_txt
 *fill*         0x0000000080264654 0x6f09600000000c
 COMMON         0x0000000080264660      0x230 win_search.o
                                          0x0 (size before relaxing)
                0x0000000080264660                win_search_param
 COMMON         0x0000000080264890       0x44 win_timer_set.o
                                          0x0 (size before relaxing)
                0x0000000080264890                timer_set
 *fill*         0x00000000802648d4 0x6f09600000000c
 COMMON         0x00000000802648e0     0x4000 ../../../../../sdk/boot.o
                                          0x0 (size before relaxing)
                0x00000000802648e0                IRQStack
 COMMON         0x00000000802688e0      0x7ce /d/3202c/prj/app/demo/dvbc/jade_demo_new_geeya/mcf_data_broadcast_3202c//release/lib//libgycas.a(gycas_smc_hal.o)
                                          0x0 (size before relaxing)
                0x00000000802688e0                GYCardContent
 *fill*         0x00000000802690ae 0x6f096000000002
 COMMON         0x00000000802690b0    0x24530 /d/3202c/prj/app/demo/dvbc/jade_demo_new_geeya/mcf_data_broadcast_3202c//release/lib//libgycas.a(gycas_vm.o)
                                          0x0 (size before relaxing)
                0x00000000802690b0                reg
                0x00000000802690d0                codeMem
                0x000000008026d0d0                IO
                0x000000008026d1d0                insMem
                0x000000008027d1d0                stk_function
                0x000000008027d5e0                dataMem
 COMMON         0x000000008028d5e0       0xf4 /d/3202c/prj/app/demo/dvbc/jade_demo_new_geeya/mcf_data_broadcast_3202c//release/lib//liball.a(gif.o)
                                          0x0 (size before relaxing)
                0x000000008028d5e0                g_gif_ins_res
 *fill*         0x000000008028d6d4 0x6f09600000000c
 COMMON         0x000000008028d6e0      0xdcc /d/3202c/prj/app/demo/dvbc/jade_demo_new_geeya/mcf_data_broadcast_3202c//release/lib//liball.a(imagedec.o)
                                          0x0 (size before relaxing)
                0x000000008028d6e0                g_imagedec_hdl
                0x000000008028e3b0                g_imagedec_osd_ins
                0x000000008028e420                g_imagedec_copy_frm_ins
                0x000000008028e450                g_imagedec_config
 *fill*         0x000000008028e4ac 0x6f096000000004
 COMMON         0x000000008028e4b0       0x60 /d/3202c/prj/app/demo/dvbc/jade_demo_new_geeya/mcf_data_broadcast_3202c//release/lib//liball.a(imagedec_covs.o)
                                          0x0 (size before relaxing)
                0x000000008028e4b0                g_jhconvs_info
 COMMON         0x000000008028e510       0x20 /d/3202c/prj/app/demo/dvbc/jade_demo_new_geeya/mcf_data_broadcast_3202c//release/lib//liball.a(png.o)
                                          0x0 (size before relaxing)
                0x000000008028e510                g_png_instance
 COMMON         0x000000008028e530        0xc /d/3202c/prj/app/demo/dvbc/jade_demo_new_geeya/mcf_data_broadcast_3202c//release/lib//liball.a(lib_pub.o)
                                          0x0 (size before relaxing)
                0x000000008028e530                libpub_config
 *fill*         0x000000008028e53c 0x6f096000000004
 COMMON         0x000000008028e540      0x4ac /d/3202c/prj/app/demo/dvbc/jade_demo_new_geeya/mcf_data_broadcast_3202c//release/lib//liball.a(gy_catask.o)
                                          0x0 (size before relaxing)
                0x000000008028e540                gycas_notice
                0x000000008028e5b0                gyca_priv
                0x000000008028e6f0                cas_thread_info
                0x000000008028e710                gycas_ippvinfo
                0x000000008028e750                cas_pmt_param
                0x000000008028e780                cas_pmt_restrict
                0x000000008028e8a0                cas_cat_restrict
                0x000000008028e9c0                cas_cat_param
 *fill*         0x000000008028e9ec 0x6f096000000004
 COMMON         0x000000008028e9f0      0x30c /d/3202c/prj/app/demo/dvbc/jade_demo_new_geeya/mcf_data_broadcast_3202c//release/lib//liball.a(gyca_dmx.o)
                                          0x0 (size before relaxing)
                0x000000008028e9f0                EMM2_BACK
                0x000000008028eab0                EMM4_BACK
                0x000000008028eb70                EMM5_BACK
                0x000000008028ec30                EMM3_BACK
                0x000000008028ecf0                channel_array
 *fill*         0x000000008028ecfc 0x6f096000000004
 COMMON         0x000000008028ed00       0x60 /d/3202c/prj/app/demo/dvbc/jade_demo_new_geeya/mcf_data_broadcast_3202c//release/lib//liball.a(alloc.o)
                                          0x0 (size before relaxing)
                0x000000008028ed00                _fraghead
 COMMON         0x000000008028ed60      0x400 /d/3202c/prj/app/demo/dvbc/jade_demo_new_geeya/mcf_data_broadcast_3202c//release/lib//liball.a(fastCRC.o)
                                          0x0 (size before relaxing)
                0x000000008028ed60                MG_CRC_Table
 COMMON         0x000000008028f160       0xa0 /d/3202c/prj/app/demo/dvbc/jade_demo_new_geeya/mcf_data_broadcast_3202c//release/lib//liball.a(lib_nvod.o)
                                          0x0 (size before relaxing)
                0x000000008028f160                nvod_pre_pnode
 COMMON         0x000000008028f200     0x7d28 /d/3202c/prj/app/demo/dvbc/jade_demo_new_geeya/mcf_data_broadcast_3202c//release/lib//liball.a(sie_monitor_core.o)
                                          0x0 (size before relaxing)
                0x000000008028f200                simcb_array
                0x000000008028f800                dmx_psi_info
                0x00000000802929c0                monitor_exist
                0x0000000080292a00                mask_array
                0x0000000080296f00                sb_used
 *fill*         0x0000000080296f28 0x6f096000000008
 COMMON         0x0000000080296f30    0x23e34 /d/3202c/prj/app/demo/dvbc/jade_demo_new_geeya/mcf_data_broadcast_3202c//release/lib//liball.a(sie_monitor_dtg.o)
                                          0x0 (size before relaxing)
                0x0000000080296f30                sdt_flag
                0x0000000080296f50                sdt_ext
                0x0000000080296f60                sdt_info
 *fill*         0x00000000802bad64 0x6f09600000000c
 COMMON         0x00000000802bad70      0x270 /d/3202c/prj/app/demo/dvbc/jade_demo_new_geeya/mcf_data_broadcast_3202c//release/lib//liball.a(lib_ota.o)
                                          0x0 (size before relaxing)
                0x00000000802bad70                g_dc_module
 COMMON         0x00000000802bafe0       0xd4 /d/3202c/prj/app/demo/dvbc/jade_demo_new_geeya/mcf_data_broadcast_3202c//release/lib//liball.a(db_interface.o)
                                          0x0 (size before relaxing)
                0x00000000802bafe0                dynamic_program
                0x00000000802bb090                db_search_view
 *fill*         0x00000000802bb0b4 0x6f09600000000c
 COMMON         0x00000000802bb0c0      0x8a0 /d/3202c/prj/app/demo/dvbc/jade_demo_new_geeya/mcf_data_broadcast_3202c//release/lib//liball.a(ge_draw_primitive.o)
                                          0x0 (size before relaxing)
                0x00000000802bb0c0                g_gui_coeff
                0x00000000802bb0d0                g_rgn_tbl
                0x00000000802bb2a0                g_vscr
                0x00000000802bb5a0                g_slvscr
                0x00000000802bb8a0                g_layer_tbl
 COMMON         0x00000000802bb960      0x100 /d/3202c/prj/app/demo/dvbc/jade_demo_new_geeya/mcf_data_broadcast_3202c//release/lib//liball.a(ge_primitive_init.o)
                                          0x0 (size before relaxing)
                0x00000000802bb960                gelib_dbstrs
 COMMON         0x00000000802bba60       0x24 /d/3202c/prj/app/demo/dvbc/jade_demo_new_geeya/mcf_data_broadcast_3202c//release/lib//liball.a(osd_lib.o)
                                          0x0 (size before relaxing)
                0x00000000802bba60                g_gui_rscfunc
 *fill*         0x00000000802bba84 0x6f09600000000c
 COMMON         0x00000000802bba90      0x200 /d/3202c/prj/app/demo/dvbc/jade_demo_new_geeya/mcf_data_broadcast_3202c//release/lib//liball.a(osd_window.o)
                                          0x0 (size before relaxing)
                0x00000000802bba90                g_wnd_rects
 COMMON         0x00000000802bbc90       0x40 /d/3202c/prj/app/demo/dvbc/jade_demo_new_geeya/mcf_data_broadcast_3202c//release/lib//liball.a(psi_pmt.o)
                                          0x0 (size before relaxing)
                0x00000000802bbc90                ecm_pid_array
 COMMON         0x00000000802bbcd0       0x54 /d/3202c/prj/app/demo/dvbc/jade_demo_new_geeya/mcf_data_broadcast_3202c//release/lib//liball.a(db_data_object.o)
                                          0x0 (size before relaxing)
                0x00000000802bbcd0                db_table
                0x00000000802bbd00                db_view
 *fill*         0x00000000802bbd24 0x6f09600000000c
 COMMON         0x00000000802bbd30       0x74 /d/3202c/prj/app/demo/dvbc/jade_demo_new_geeya/mcf_data_broadcast_3202c//release/lib//liball.a(R820C.o)
                                          0x0 (size before relaxing)
                0x00000000802bbd30                R828_Fil_Cal_flag
                0x00000000802bbd50                R828_Arry
                0x00000000802bbd70                R828_I2C_Len
 *fill*         0x00000000802bbda4 0x6f09600000000c
 COMMON         0x00000000802bbdb0       0x28 /d/3202c//sdk/libcore.a(sgdma_m36.o)
                                          0x0 (size before relaxing)
                0x00000000802bbdb0                sgdma_reg_addr
 *fill*         0x00000000802bbdd8 0x6f096000000008
 COMMON         0x00000000802bbde0      0x160 /d/3202c//sdk/libcore.a(sw_scale.o)
                                          0x0 (size before relaxing)
                0x00000000802bbde0                hor2
                0x00000000802bbe90                hor1
 COMMON         0x00000000802bbf40      0x430 /d/3202c//sdk/libcore.a(vdec_m3327.o)
                                          0x0 (size before relaxing)
                0x00000000802bbf40                g_vdec27_ctrl_blk
                0x00000000802bbf60                g_user_data
 COMMON         0x00000000802bc370      0x190 /d/3202c//sdk/libcore.a(tv_enc.o)
                                          0x0 (size before relaxing)
                0x00000000802bc370                g_TveInfo
                0x00000000802bc390                g_TveDacInfo
 COMMON         0x00000000802bc500       0xa0 /d/3202c//sdk/libcore.a(vpo_m3327_init_ext.o)
                                          0x0 (size before relaxing)
                0x00000000802bc500                g_MP_Video_Info
                0x00000000802bc540                g_MP_Panscan
                0x00000000802bc560                g_PIP_Video_Info
 COMMON         0x00000000802bc5a0      0xb6c /d/3202c//sdk/libcore.a(osd_s3601.o)
                                          0x0 (size before relaxing)
                0x00000000802bc5a0                g_surf_para
 *fill*         0x00000000802bd10c 0x6f096000000004
 COMMON         0x00000000802bd110       0x5c /d/3202c//sdk/libcore.a(snd_m33_tone.o)
                                          0x0 (size before relaxing)
                0x00000000802bd110                pcm_frm_header
                0x00000000802bd120                pcm_beep
 *fill*         0x00000000802bd16c 0x6f096000000004
 COMMON         0x00000000802bd170       0x80 /d/3202c//sdk/libcore.a(sched_mq.o)
                                          0x0 (size before relaxing)
                0x00000000802bd170                _rdy_queue
 COMMON         0x00000000802bd1f0      0x5a0 /d/3202c//sdk/libcore.a(scale.o)
                                          0x0 (size before relaxing)
                0x00000000802bd1f0                line_buf_1
                0x00000000802bd4c0                line_buf_2
 COMMON         0x00000000802bd790     0x5834 /d/3202c//sdk/libcore.a(deca_m33.o)
                                          0x0 (size before relaxing)
                0x00000000802bd790                ym_stream
                0x00000000802bd7a0                ym_synth
                0x00000000802c0bb0                ym_frame
 *fill*         0x00000000802c2fc4 0x6f09600000000c
 COMMON         0x00000000802c2fd0       0x1c /d/3202c//sdk/libcore.a(vpo_driver.o)
                                          0x0 (size before relaxing)
                0x00000000802c2fd0                g_vpo_control_blk
 *fill*         0x00000000802c2fec 0x6f096000000004
 COMMON         0x00000000802c2ff0      0x340 /d/3202c//sdk/libcore.a(dmx_m33_api.o)
                                          0x0 (size before relaxing)
                0x00000000802c2ff0                dmx_priv_fp
                0x00000000802c3060                AvSyncInfo
 COMMON         0x00000000802c3330       0x44 /d/3202c//sdk/libcore.a(ge_lld.o)
                                          0x0 (size before relaxing)
                0x00000000802c3330                g_resize_clip_rect
                0x00000000802c3360                g_ge_routines
 *fill*         0x00000000802c3374 0x6f09600000000c
 COMMON         0x00000000802c3380       0xca /d/3202c//sdk/libcore.a(snd_m33.o)
                                          0x0 (size before relaxing)
                0x00000000802c3380                vol_db_tab
                0x00000000802c344a                _end = .

.reginfo        0x0000000000000000       0x18
 *(.reginfo)
 .reginfo       0x0000000000000000       0x18 board_config.o

.mdebug         0x0000000000000000   0x8ff1f0
 *(.mdebug)
 .mdebug        0x0000000000000000    0x2141c board_config.o
 .mdebug        0x000000000002141c    0x1e5f0 cdca/win_ca_freepreviewing.o
 .mdebug        0x000000000003fa0c    0x1ec84 cdca/win_ca_message.o
 .mdebug        0x000000000005e690    0x21cac cdca/win_ca_operator_info.o
 .mdebug        0x000000000008033c    0x1e7d4 cdca/win_ca_operator_message.o
 .mdebug        0x000000000009eb10    0x1fbd8 cdca/win_ca_password.o
 .mdebug        0x00000000000be6e8    0x21ac8 cdca/win_ca_pinpwd.o
 .mdebug        0x00000000000e01b0    0x2262c cdca/win_ca_popup_ipp.o
 .mdebug        0x00000000001027dc     0x3cf8 cdca/win_ca_smc_upg.o
 .mdebug        0x00000000001064d4    0x21734 cdca/win_ca_watchlevel.o
 .mdebug        0x0000000000127c08    0x20bb4 cdca/win_cas_com.o
 .mdebug        0x00000000001487bc    0x2bd6c cdca/win_cas_proc.o
 .mdebug        0x0000000000174528    0x1ea54 cdca/win_fingerprint.o
 .mdebug        0x0000000000192f7c    0x23e1c cdca/win_mail.o
 .mdebug        0x00000000001b6d98    0x215f4 cdca/win_mail_content.o
 .mdebug        0x00000000001d838c    0x1e4bc cdca/win_mail_icon.o
 .mdebug        0x00000000001f6848    0x230b0 cdca/win_osdmsg.o
 .mdebug        0x00000000002198f8    0x21828 cdca/win_smc_info.o
 .mdebug        0x000000000023b120    0x33b44 control.o
 .mdebug        0x000000000026ec64     0x9aa8 copper_common/backup_loader.o
 .mdebug        0x000000000027870c     0xe644 copper_common/bat_private.o
 .mdebug        0x0000000000286d50    0x29d60 copper_common/com_api.o
 .mdebug        0x00000000002b0ab0     0x558c copper_common/com_epg.o
 .mdebug        0x00000000002b603c    0x1a9ec copper_common/menu_api.o
 .mdebug        0x00000000002d0a28    0x1ac8c copper_common/ota_special.o
 .mdebug        0x00000000002eb6b4     0xa130 copper_common/stb_data.o
 .mdebug        0x00000000002f57e4     0x454c copper_common/stb_hwinfo.o
 .mdebug        0x00000000002f9d30    0x2572c copper_common/system_data.o
 .mdebug        0x000000000031f45c    0x28f6c data_bdcast_com.o
 .mdebug        0x00000000003483c8    0x2249c game_box.o
 .mdebug        0x000000000036a864     0x1238 game_box_maps.o
 .mdebug        0x000000000036ba9c     0x3794 game_othello.o
 .mdebug        0x000000000036f230    0x105a4 geeya_ad/adv_geeya.o
 .mdebug        0x000000000037f7d4     0x20b0 geeya_ad/GYAD_Api.o
 .mdebug        0x0000000000381884     0x6768 geeya_ad/GYAD_Core.o
 .mdebug        0x0000000000387fec    0x1ecd8 key.o
 .mdebug        0x00000000003a6cc4    0x1a358 menus_root.o
 .mdebug        0x00000000003c101c    0x23310 osd_rsc.o
 .mdebug        0x00000000003e432c    0x1e7b0 power.o
 .mdebug        0x0000000000402adc    0x27bac root.o
 .mdebug        0x000000000042a688    0x116f8 single_pic_ad/ad_pic.o
 .mdebug        0x000000000043bd80     0xa76c single_pic_ad/ad_pic_gfx.o
 .mdebug        0x00000000004464ec     0xac50 single_pic_ad/ad_pic_gif.o
 .mdebug        0x000000000045113c     0xdafc single_pic_ad/ad_pic_img.o
 .mdebug        0x000000000045ec38     0xe070 single_pic_ad/ad_pic_png.o
 .mdebug        0x000000000046cca8      0x520 ts_search/ts_search.o
 .mdebug        0x000000000046d1c8    0x1eb48 win_advset.o
 .mdebug        0x000000000048bd10    0x1f5d8 win_audio.o
 .mdebug        0x00000000004ab2e8    0x1f6a0 win_audioset.o
 .mdebug        0x00000000004ca988    0x1f0d0 win_book_detail.o
 .mdebug        0x00000000004e9a58    0x207c0 win_ca_bing.o
 .mdebug        0x000000000050a218    0x1ec20 win_ca_set.o
 .mdebug        0x0000000000528e38    0x26000 win_chan_detail.o
 .mdebug        0x000000000054ee38    0x278bc win_chan_edit.o
 .mdebug        0x00000000005766f4    0x27464 win_chan_list.o
 .mdebug        0x000000000059db58    0x1ee98 win_chan_manage.o
 .mdebug        0x00000000005bc9f0    0x1f148 win_chan_management.o
 .mdebug        0x00000000005dbb38    0x1fd50 win_chanedit_action.o
 .mdebug        0x00000000005fb888    0x1f584 win_channel_info.o
 .mdebug        0x000000000061ae0c    0x1ef14 win_child_lock.o
 .mdebug        0x0000000000639d20    0x25fa4 win_child_lock_list.o
 .mdebug        0x000000000065fcc4    0x2b46c win_com.o
 .mdebug        0x000000000068b130    0x22520 win_com_list.o
 .mdebug        0x00000000006ad650    0x22600 win_com_popup.o
 .mdebug        0x00000000006cfc50    0x22234 win_common_item.o
 .mdebug        0x00000000006f1e84    0x1fa70 win_displayset.o
 .mdebug        0x00000000007118f4    0x2a750 win_epg.o
 .mdebug        0x000000000073c044    0x23180 win_epg_detail.o
 .mdebug        0x000000000075f1c4    0x213fc win_factory_set.o
 .mdebug        0x00000000007805c0    0x1f7cc win_factoryset.o
 .mdebug        0x000000000079fd8c    0x2017c win_freqset.o
 .mdebug        0x00000000007bff08    0x22b30 win_full_band_scan.o
 .mdebug        0x00000000007e2a38    0x209f8 win_game_com.o
 .mdebug        0x0000000000803430    0x1fe14 win_game_othello.o
 .mdebug        0x0000000000823244    0x1f0ac win_games.o
 .mdebug        0x00000000008422f0    0x1ef04 win_languageset.o
 .mdebug        0x00000000008611f4    0x240d8 win_light_channel_list.o
 .mdebug        0x00000000008852cc    0x26324 win_mainmenu.o
 .mdebug        0x00000000008ab5f0    0x22c84 win_manual_search.o
 .mdebug        0x00000000008ce274    0x2095c win_manual_update.o
 .mdebug        0x00000000008eebd0    0x1f0dc win_mute.o
 .mdebug        0x000000000090dcac    0x205a4 win_new_signal.o
 .mdebug        0x000000000092e250    0x1fc58 win_new_signal_test.o
 .mdebug        0x000000000094dea8      0x514 win_nimreg.o
 .mdebug        0x000000000094e3bc    0x2ef00 win_nvod.o
 .mdebug        0x000000000097d2bc    0x2271c win_nvod_detail.o
 .mdebug        0x000000000099f9d8    0x22c80 win_nvod_event_bar.o
 .mdebug        0x00000000009c2658    0x23a68 win_nvod_warn.o
 .mdebug        0x00000000009e60c0    0x1f9cc win_password.o
 .mdebug        0x0000000000a05a8c    0x1ec90 win_pause.o
 .mdebug        0x0000000000a2471c    0x20ea4 win_prog_input.o
 .mdebug        0x0000000000a455c0    0x23dfc win_prog_name.o
 .mdebug        0x0000000000a693bc    0x1f09c win_prog_search.o
 .mdebug        0x0000000000a88458    0x1f8a0 win_pwd_set.o
 .mdebug        0x0000000000aa7cf8      0x514 win_reg.o
 .mdebug        0x0000000000aa820c    0x26508 win_reserve_manage.o
 .mdebug        0x0000000000ace714    0x25610 win_search.o
 .mdebug        0x0000000000af3d24    0x1fb50 win_signal.o
 .mdebug        0x0000000000b13874    0x25624 win_signal_test.o
 .mdebug        0x0000000000b38e98    0x22e5c win_signalstatus.o
 .mdebug        0x0000000000b5bcf4    0x207a4 win_stb_info.o
 .mdebug        0x0000000000b7c498    0x2027c win_sys_information.o
 .mdebug        0x0000000000b9c714    0x1f2b0 win_sys_items.o
 .mdebug        0x0000000000bbb9c4    0x1f16c win_system_management.o
 .mdebug        0x0000000000bdab30    0x26a10 win_timer_set.o
 .mdebug        0x0000000000c01540    0x20e94 win_volumebar.o
 .mdebug        0x0000000000c223d4    0x1e880 win_infomation.o
 .mdebug        0x0000000000c40c54     0x7054 ../../../../../sdk/boot.o
 .mdebug        0x0000000000c47ca8     0x6f4c /d/3202c/prj/app/demo/dvbc/jade_demo_new_geeya/mcf_data_broadcast_3202c//release/lib//libgycas.a(gycas_api.o)
 .mdebug        0x0000000000c4ebf4     0x82a0 /d/3202c/prj/app/demo/dvbc/jade_demo_new_geeya/mcf_data_broadcast_3202c//release/lib//libgycas.a(gycas_ecm.o)
 .mdebug        0x0000000000c56e94     0x6894 /d/3202c/prj/app/demo/dvbc/jade_demo_new_geeya/mcf_data_broadcast_3202c//release/lib//libgycas.a(gycas_mgr.o)
 .mdebug        0x0000000000c5d728     0x2ebc /d/3202c/prj/app/demo/dvbc/jade_demo_new_geeya/mcf_data_broadcast_3202c//release/lib//libgycas.a(gycas_mmm.o)
 .mdebug        0x0000000000c605e4     0x8f0c /d/3202c/prj/app/demo/dvbc/jade_demo_new_geeya/mcf_data_broadcast_3202c//release/lib//libgycas.a(gycas_smc.o)
 .mdebug        0x0000000000c694f0     0x7ef4 /d/3202c/prj/app/demo/dvbc/jade_demo_new_geeya/mcf_data_broadcast_3202c//release/lib//libgycas.a(gycas_smc_drv.o)
 .mdebug        0x0000000000c713e4     0xb830 /d/3202c/prj/app/demo/dvbc/jade_demo_new_geeya/mcf_data_broadcast_3202c//release/lib//libgycas.a(gycas_smc_hal.o)
 .mdebug        0x0000000000c7cc14     0x331c /d/3202c/prj/app/demo/dvbc/jade_demo_new_geeya/mcf_data_broadcast_3202c//release/lib//libgycas.a(gycas_utl.o)
 .mdebug        0x0000000000c7ff30     0x804c /d/3202c/prj/app/demo/dvbc/jade_demo_new_geeya/mcf_data_broadcast_3202c//release/lib//libgycas.a(gycas_vm.o)
 .mdebug        0x0000000000c87f7c     0x125c /d/3202c/prj/app/demo/dvbc/jade_demo_new_geeya/mcf_data_broadcast_3202c//release/lib//libgycas.a(gycas_crc.o)
 .mdebug        0x0000000000c891d8     0x2450 /d/3202c/prj/app/demo/dvbc/jade_demo_new_geeya/mcf_data_broadcast_3202c//release/lib//libgycas.a(gycas_des.o)
 .mdebug        0x0000000000c8b628     0x5ea8 /d/3202c/prj/app/demo/dvbc/jade_demo_new_geeya/mcf_data_broadcast_3202c//release/lib//libgycas.a(gycas_emm.o)
 .mdebug        0x0000000000c914d0     0x1994 /d/3202c//sdk/libmlzo.a(slzo.o)
 .mdebug        0x0000000000c92e64     0x4328 /d/3202c/prj/app/demo/dvbc/jade_demo_new_geeya/mcf_data_broadcast_3202c//release/lib//liball.a(i2c_gpio.o)
 .mdebug        0x0000000000c9718c     0x5680 /d/3202c/prj/app/demo/dvbc/jade_demo_new_geeya/mcf_data_broadcast_3202c//release/lib//liball.a(i2c_scb.o)
 .mdebug        0x0000000000c9c80c     0x3054 /d/3202c/prj/app/demo/dvbc/jade_demo_new_geeya/mcf_data_broadcast_3202c//release/lib//liball.a(sci_16550uart.o)
 .mdebug        0x0000000000c9f860     0x2868 /d/3202c/prj/app/demo/dvbc/jade_demo_new_geeya/mcf_data_broadcast_3202c//release/lib//liball.a(hld_dev.o)
 .mdebug        0x0000000000ca20c8     0x77a4 /d/3202c/prj/app/demo/dvbc/jade_demo_new_geeya/mcf_data_broadcast_3202c//release/lib//liball.a(deca.o)
 .mdebug        0x0000000000ca986c     0xe75c /d/3202c/prj/app/demo/dvbc/jade_demo_new_geeya/mcf_data_broadcast_3202c//release/lib//liball.a(decv.o)
 .mdebug        0x0000000000cb7fc8     0x8554 /d/3202c/prj/app/demo/dvbc/jade_demo_new_geeya/mcf_data_broadcast_3202c//release/lib//liball.a(dmx.o)
 .mdebug        0x0000000000cc051c    0x1692c /d/3202c/prj/app/demo/dvbc/jade_demo_new_geeya/mcf_data_broadcast_3202c//release/lib//liball.a(ge.o)
 .mdebug        0x0000000000cd6e48     0x40bc /d/3202c/prj/app/demo/dvbc/jade_demo_new_geeya/mcf_data_broadcast_3202c//release/lib//liball.a(nim.o)
 .mdebug        0x0000000000cdaf04     0x7a24 /d/3202c/prj/app/demo/dvbc/jade_demo_new_geeya/mcf_data_broadcast_3202c//release/lib//liball.a(osddrv.o)
 .mdebug        0x0000000000ce2928     0x33d0 /d/3202c/prj/app/demo/dvbc/jade_demo_new_geeya/mcf_data_broadcast_3202c//release/lib//liball.a(pan.o)
 .mdebug        0x0000000000ce5cf8     0x8bfc /d/3202c/prj/app/demo/dvbc/jade_demo_new_geeya/mcf_data_broadcast_3202c//release/lib//liball.a(snd.o)
 .mdebug        0x0000000000cee8f4     0x2d34 /d/3202c/prj/app/demo/dvbc/jade_demo_new_geeya/mcf_data_broadcast_3202c//release/lib//liball.a(sto.o)
 .mdebug        0x0000000000cf1628     0xc750 /d/3202c/prj/app/demo/dvbc/jade_demo_new_geeya/mcf_data_broadcast_3202c//release/lib//liball.a(vpo.o)
 .mdebug        0x0000000000cfdd78     0x31ac /d/3202c/prj/app/demo/dvbc/jade_demo_new_geeya/mcf_data_broadcast_3202c//release/lib//liball.a(lib_ash.o)
 .mdebug        0x0000000000d00f24     0x76e4 /d/3202c/prj/app/demo/dvbc/jade_demo_new_geeya/mcf_data_broadcast_3202c//release/lib//liball.a(lib_ashcmd.o)
 .mdebug        0x0000000000d08608     0x45d0 /d/3202c/prj/app/demo/dvbc/jade_demo_new_geeya/mcf_data_broadcast_3202c//release/lib//liball.a(Packet.o)
 .mdebug        0x0000000000d0cbd8     0x6680 /d/3202c/prj/app/demo/dvbc/jade_demo_new_geeya/mcf_data_broadcast_3202c//release/lib//liball.a(gif.o)
 .mdebug        0x0000000000d13258     0x77bc /d/3202c/prj/app/demo/dvbc/jade_demo_new_geeya/mcf_data_broadcast_3202c//release/lib//liball.a(gif_main.o)
 .mdebug        0x0000000000d1aa14     0xd914 /d/3202c/prj/app/demo/dvbc/jade_demo_new_geeya/mcf_data_broadcast_3202c//release/lib//liball.a(gif_out_ge.o)
 .mdebug        0x0000000000d28328     0x5fb4 /d/3202c/prj/app/demo/dvbc/jade_demo_new_geeya/mcf_data_broadcast_3202c//release/lib//liball.a(gif_sync.o)
 .mdebug        0x0000000000d2e2dc    0x148c4 /d/3202c/prj/app/demo/dvbc/jade_demo_new_geeya/mcf_data_broadcast_3202c//release/lib//liball.a(imagedec.o)
 .mdebug        0x0000000000d42ba0    0x114ac /d/3202c/prj/app/demo/dvbc/jade_demo_new_geeya/mcf_data_broadcast_3202c//release/lib//liball.a(imagedec_bmp_decoder.o)
 .mdebug        0x0000000000d5404c    0x1a2e8 /d/3202c/prj/app/demo/dvbc/jade_demo_new_geeya/mcf_data_broadcast_3202c//release/lib//liball.a(imagedec_covs.o)
 .mdebug        0x0000000000d6e334    0x1d9f0 /d/3202c/prj/app/demo/dvbc/jade_demo_new_geeya/mcf_data_broadcast_3202c//release/lib//liball.a(imagedec_main.o)
 .mdebug        0x0000000000d8bd24     0x8664 /d/3202c/prj/app/demo/dvbc/jade_demo_new_geeya/mcf_data_broadcast_3202c//release/lib//liball.a(imagedec_osd.o)
 .mdebug        0x0000000000d94388    0x14020 /d/3202c/prj/app/demo/dvbc/jade_demo_new_geeya/mcf_data_broadcast_3202c//release/lib//liball.a(imagedec_show.o)
 .mdebug        0x0000000000da83a8    0x135b4 /d/3202c/prj/app/demo/dvbc/jade_demo_new_geeya/mcf_data_broadcast_3202c//release/lib//liball.a(imagedec_sub.o)
 .mdebug        0x0000000000dbb95c    0x1c6c4 /d/3202c/prj/app/demo/dvbc/jade_demo_new_geeya/mcf_data_broadcast_3202c//release/lib//liball.a(imagedec_trans.o)
 .mdebug        0x0000000000dd8020    0x1316c /d/3202c/prj/app/demo/dvbc/jade_demo_new_geeya/mcf_data_broadcast_3202c//release/lib//liball.a(imagedec_trans_dup.o)
 .mdebug        0x0000000000deb18c     0x57fc /d/3202c/prj/app/demo/dvbc/jade_demo_new_geeya/mcf_data_broadcast_3202c//release/lib//liball.a(png.o)
 .mdebug        0x0000000000df0988     0x633c /d/3202c/prj/app/demo/dvbc/jade_demo_new_geeya/mcf_data_broadcast_3202c//release/lib//liball.a(png_core.o)
 .mdebug        0x0000000000df6cc4     0x5734 /d/3202c/prj/app/demo/dvbc/jade_demo_new_geeya/mcf_data_broadcast_3202c//release/lib//liball.a(png_in.o)
 .mdebug        0x0000000000dfc3f8     0x5e08 /d/3202c/prj/app/demo/dvbc/jade_demo_new_geeya/mcf_data_broadcast_3202c//release/lib//liball.a(png_inflate.o)
 .mdebug        0x0000000000e02200     0x65d8 /d/3202c/prj/app/demo/dvbc/jade_demo_new_geeya/mcf_data_broadcast_3202c//release/lib//liball.a(png_info.o)
 .mdebug        0x0000000000e087d8     0xb19c /d/3202c/prj/app/demo/dvbc/jade_demo_new_geeya/mcf_data_broadcast_3202c//release/lib//liball.a(png_out.o)
 .mdebug        0x0000000000e13974    0x1a2a4 /d/3202c/prj/app/demo/dvbc/jade_demo_new_geeya/mcf_data_broadcast_3202c//release/lib//liball.a(lib_cc.o)
 .mdebug        0x0000000000e2dc18     0x8d48 /d/3202c/prj/app/demo/dvbc/jade_demo_new_geeya/mcf_data_broadcast_3202c//release/lib//liball.a(lib_device_manage.o)
 .mdebug        0x0000000000e36960     0xf21c /d/3202c/prj/app/demo/dvbc/jade_demo_new_geeya/mcf_data_broadcast_3202c//release/lib//liball.a(lib_frontend.o)
 .mdebug        0x0000000000e45b7c    0x113f0 /d/3202c/prj/app/demo/dvbc/jade_demo_new_geeya/mcf_data_broadcast_3202c//release/lib//liball.a(lib_hde.o)
 .mdebug        0x0000000000e56f6c     0xdef8 /d/3202c/prj/app/demo/dvbc/jade_demo_new_geeya/mcf_data_broadcast_3202c//release/lib//liball.a(lib_monitor.o)
 .mdebug        0x0000000000e64e64     0xc104 /d/3202c/prj/app/demo/dvbc/jade_demo_new_geeya/mcf_data_broadcast_3202c//release/lib//liball.a(lib_pub.o)
 .mdebug        0x0000000000e70f68     0xc938 /d/3202c/prj/app/demo/dvbc/jade_demo_new_geeya/mcf_data_broadcast_3202c//release/lib//liball.a(lib_as.o)
 .mdebug        0x0000000000e7d8a0     0x6e80 /d/3202c/prj/app/demo/dvbc/jade_demo_new_geeya/mcf_data_broadcast_3202c//release/lib//liball.a(cas_gy.o)
 .mdebug        0x0000000000e84720     0xecdc /d/3202c/prj/app/demo/dvbc/jade_demo_new_geeya/mcf_data_broadcast_3202c//release/lib//liball.a(gy_catask.o)
 .mdebug        0x0000000000e933fc     0xa494 /d/3202c/prj/app/demo/dvbc/jade_demo_new_geeya/mcf_data_broadcast_3202c//release/lib//liball.a(gyca_dmx.o)
 .mdebug        0x0000000000e9d890     0x4cdc /d/3202c/prj/app/demo/dvbc/jade_demo_new_geeya/mcf_data_broadcast_3202c//release/lib//liball.a(gyca_nvm.o)
 .mdebug        0x0000000000ea256c     0x5794 /d/3202c/prj/app/demo/dvbc/jade_demo_new_geeya/mcf_data_broadcast_3202c//release/lib//liball.a(gyca_os.o)
 .mdebug        0x0000000000ea7d00     0x4e90 /d/3202c/prj/app/demo/dvbc/jade_demo_new_geeya/mcf_data_broadcast_3202c//release/lib//liball.a(gyca_sc.o)
 .mdebug        0x0000000000eacb90     0x3d6c /d/3202c/prj/app/demo/dvbc/jade_demo_new_geeya/mcf_data_broadcast_3202c//release/lib//liball.a(alloc.o)
 .mdebug        0x0000000000eb08fc      0xdd0 /d/3202c/prj/app/demo/dvbc/jade_demo_new_geeya/mcf_data_broadcast_3202c//release/lib//liball.a(fastCRC.o)
 .mdebug        0x0000000000eb16cc     0x5c6c /d/3202c/prj/app/demo/dvbc/jade_demo_new_geeya/mcf_data_broadcast_3202c//release/lib//liball.a(printf.o)
 .mdebug        0x0000000000eb7338     0x5590 /d/3202c/prj/app/demo/dvbc/jade_demo_new_geeya/mcf_data_broadcast_3202c//release/lib//liball.a(string.o)
 .mdebug        0x0000000000ebc8c8     0x1dcc /d/3202c/prj/app/demo/dvbc/jade_demo_new_geeya/mcf_data_broadcast_3202c//release/lib//liball.a(gb_2312.o)
 .mdebug        0x0000000000ebe694     0x4674 /d/3202c/prj/app/demo/dvbc/jade_demo_new_geeya/mcf_data_broadcast_3202c//release/lib//liball.a(lib_char.o)
 .mdebug        0x0000000000ec2d08      0x814 /d/3202c/prj/app/demo/dvbc/jade_demo_new_geeya/mcf_data_broadcast_3202c//release/lib//liball.a(un7zip.o)
 .mdebug        0x0000000000ec351c     0x3a50 /d/3202c/prj/app/demo/dvbc/jade_demo_new_geeya/mcf_data_broadcast_3202c//release/lib//liball.a(eit_parser.o)
 .mdebug        0x0000000000ec6f6c     0x3cbc /d/3202c/prj/app/demo/dvbc/jade_demo_new_geeya/mcf_data_broadcast_3202c//release/lib//liball.a(epg_api.o)
 .mdebug        0x0000000000ecac28     0x4764 /d/3202c/prj/app/demo/dvbc/jade_demo_new_geeya/mcf_data_broadcast_3202c//release/lib//liball.a(epg_db.o)
 .mdebug        0x0000000000ecf38c     0xc59c /d/3202c/prj/app/demo/dvbc/jade_demo_new_geeya/mcf_data_broadcast_3202c//release/lib//liball.a(lib_epg.o)
 .mdebug        0x0000000000edb928     0x31d8 /d/3202c/prj/app/demo/dvbc/jade_demo_new_geeya/mcf_data_broadcast_3202c//release/lib//liball.a(x_alloc.o)
 .mdebug        0x0000000000edeb00    0x16d24 /d/3202c/prj/app/demo/dvbc/jade_demo_new_geeya/mcf_data_broadcast_3202c//release/lib//liball.a(lib_nvod.o)
 .mdebug        0x0000000000ef5824     0x4a1c /d/3202c/prj/app/demo/dvbc/jade_demo_new_geeya/mcf_data_broadcast_3202c//release/lib//liball.a(psi_db.o)
 .mdebug        0x0000000000efa240     0x8a20 /d/3202c/prj/app/demo/dvbc/jade_demo_new_geeya/mcf_data_broadcast_3202c//release/lib//liball.a(si_desc_cab_delivery.o)
 .mdebug        0x0000000000f02c60     0xa0a4 /d/3202c/prj/app/demo/dvbc/jade_demo_new_geeya/mcf_data_broadcast_3202c//release/lib//liball.a(si_desc_service_list.o)
 .mdebug        0x0000000000f0cd04     0xe174 /d/3202c/prj/app/demo/dvbc/jade_demo_new_geeya/mcf_data_broadcast_3202c//release/lib//liball.a(sie.o)
 .mdebug        0x0000000000f1ae78     0x9c44 /d/3202c/prj/app/demo/dvbc/jade_demo_new_geeya/mcf_data_broadcast_3202c//release/lib//liball.a(si_nit.o)
 .mdebug        0x0000000000f24abc     0x9a88 /d/3202c/prj/app/demo/dvbc/jade_demo_new_geeya/mcf_data_broadcast_3202c//release/lib//liball.a(sie_eit.o)
 .mdebug        0x0000000000f2e544    0x12884 /d/3202c/prj/app/demo/dvbc/jade_demo_new_geeya/mcf_data_broadcast_3202c//release/lib//liball.a(sie_monitor_core.o)
 .mdebug        0x0000000000f40dc8     0xd4dc /d/3202c/prj/app/demo/dvbc/jade_demo_new_geeya/mcf_data_broadcast_3202c//release/lib//liball.a(sie_monitor_dtg.o)
 .mdebug        0x0000000000f4e2a4     0xcb00 /d/3202c/prj/app/demo/dvbc/jade_demo_new_geeya/mcf_data_broadcast_3202c//release/lib//liball.a(sie_monitor_query.o)
 .mdebug        0x0000000000f5ada4    0x1214c /d/3202c/prj/app/demo/dvbc/jade_demo_new_geeya/mcf_data_broadcast_3202c//release/lib//liball.a(si_search.o)
 .mdebug        0x0000000000f6cef0     0xdb1c /d/3202c/prj/app/demo/dvbc/jade_demo_new_geeya/mcf_data_broadcast_3202c//release/lib//liball.a(si_tdt.o)
 .mdebug        0x0000000000f7aa0c      0xad0 /d/3202c/prj/app/demo/dvbc/jade_demo_new_geeya/mcf_data_broadcast_3202c//release/lib//liball.a(si_utility.o)
 .mdebug        0x0000000000f7b4dc    0x1006c /d/3202c/prj/app/demo/dvbc/jade_demo_new_geeya/mcf_data_broadcast_3202c//release/lib//liball.a(lib_ota.o)
 .mdebug        0x0000000000f8b548     0x7938 /d/3202c/prj/app/demo/dvbc/jade_demo_new_geeya/mcf_data_broadcast_3202c//release/lib//liball.a(chunk.o)
 .mdebug        0x0000000000f92e80     0x45a0 /d/3202c/prj/app/demo/dvbc/jade_demo_new_geeya/mcf_data_broadcast_3202c//release/lib//liball.a(chunk_sto.o)
 .mdebug        0x0000000000f97420     0xb0f4 /d/3202c/prj/app/demo/dvbc/jade_demo_new_geeya/mcf_data_broadcast_3202c//release/lib//liball.a(db_interface.o)
 .mdebug        0x0000000000fa2514     0x9b70 /d/3202c/prj/app/demo/dvbc/jade_demo_new_geeya/mcf_data_broadcast_3202c//release/lib//liball.a(db_interface_ext.o)
 .mdebug        0x0000000000fac084     0x31a8 /d/3202c/prj/app/demo/dvbc/jade_demo_new_geeya/mcf_data_broadcast_3202c//release/lib//liball.a(tmp_info.o)
 .mdebug        0x0000000000faf22c     0x6318 /d/3202c/prj/app/demo/dvbc/jade_demo_new_geeya/mcf_data_broadcast_3202c//release/lib//liball.a(db_plugin_C.o)
 .mdebug        0x0000000000fb5544     0x4344 /d/3202c/prj/app/demo/dvbc/jade_demo_new_geeya/mcf_data_broadcast_3202c//release/lib//liball.a(stb_info.o)
 .mdebug        0x0000000000fb9888     0x9700 /d/3202c/prj/app/demo/dvbc/jade_demo_new_geeya/mcf_data_broadcast_3202c//release/lib//liball.a(stb_info_data.o)
 .mdebug        0x0000000000fc2f88    0x191a4 /d/3202c/prj/app/demo/dvbc/jade_demo_new_geeya/mcf_data_broadcast_3202c//release/lib//liball.a(ge_draw_primitive.o)
 .mdebug        0x0000000000fdc12c    0x1042c /d/3202c/prj/app/demo/dvbc/jade_demo_new_geeya/mcf_data_broadcast_3202c//release/lib//liball.a(ge_primitive_init.o)
 .mdebug        0x0000000000fec558    0x14e58 /d/3202c/prj/app/demo/dvbc/jade_demo_new_geeya/mcf_data_broadcast_3202c//release/lib//liball.a(gecmd_primitive.o)
 .mdebug        0x00000000010013b0     0xe7c8 /d/3202c/prj/app/demo/dvbc/jade_demo_new_geeya/mcf_data_broadcast_3202c//release/lib//liball.a(obj_container.o)
 .mdebug        0x000000000100fb78    0x14664 /d/3202c/prj/app/demo/dvbc/jade_demo_new_geeya/mcf_data_broadcast_3202c//release/lib//liball.a(obj_editfield.o)
 .mdebug        0x00000000010241dc    0x1005c /d/3202c/prj/app/demo/dvbc/jade_demo_new_geeya/mcf_data_broadcast_3202c//release/lib//liball.a(obj_multitext.o)
 .mdebug        0x0000000001034238    0x113e8 /d/3202c/prj/app/demo/dvbc/jade_demo_new_geeya/mcf_data_broadcast_3202c//release/lib//liball.a(obj_objectlist.o)
 .mdebug        0x0000000001045620     0xe534 /d/3202c/prj/app/demo/dvbc/jade_demo_new_geeya/mcf_data_broadcast_3202c//release/lib//liball.a(obj_textfield.o)
 .mdebug        0x0000000001053b54     0x4434 /d/3202c/prj/app/demo/dvbc/jade_demo_new_geeya/mcf_data_broadcast_3202c//release/lib//liball.a(osd_common.o)
 .mdebug        0x0000000001057f88    0x13630 /d/3202c/prj/app/demo/dvbc/jade_demo_new_geeya/mcf_data_broadcast_3202c//release/lib//liball.a(osd_common_draw.o)
 .mdebug        0x000000000106b5b8    0x14874 /d/3202c/prj/app/demo/dvbc/jade_demo_new_geeya/mcf_data_broadcast_3202c//release/lib//liball.a(osd_lib.o)
 .mdebug        0x000000000107fe2c    0x10fb4 /d/3202c/prj/app/demo/dvbc/jade_demo_new_geeya/mcf_data_broadcast_3202c//release/lib//liball.a(osd_plugin.o)
 .mdebug        0x0000000001090de0     0xf314 /d/3202c/prj/app/demo/dvbc/jade_demo_new_geeya/mcf_data_broadcast_3202c//release/lib//liball.a(osd_popup.o)
 .mdebug        0x00000000010a00f4     0xec4c /d/3202c/prj/app/demo/dvbc/jade_demo_new_geeya/mcf_data_broadcast_3202c//release/lib//liball.a(osd_window.o)
 .mdebug        0x00000000010aed40     0xcab8 /d/3202c/prj/app/demo/dvbc/jade_demo_new_geeya/mcf_data_broadcast_3202c//release/lib//liball.a(nim_s3202.o)
 .mdebug        0x00000000010bb7f8     0x30c8 /d/3202c/prj/app/demo/dvbc/jade_demo_new_geeya/mcf_data_broadcast_3202c//release/lib//liball.a(tun_alpstdae.o)
 .mdebug        0x00000000010be8c0     0x30bc /d/3202c/prj/app/demo/dvbc/jade_demo_new_geeya/mcf_data_broadcast_3202c//release/lib//liball.a(tun_dct70701.o)
 .mdebug        0x00000000010c197c     0x454c /d/3202c/prj/app/demo/dvbc/jade_demo_new_geeya/mcf_data_broadcast_3202c//release/lib//liball.a(tun_rt820.o)
 .mdebug        0x00000000010c5ec8     0x5064 /d/3202c/prj/app/demo/dvbc/jade_demo_new_geeya/mcf_data_broadcast_3202c//release/lib//liball.a(pan_ct1642.o)
 .mdebug        0x00000000010caf2c     0x51b4 /d/3202c/prj/app/demo/dvbc/jade_demo_new_geeya/mcf_data_broadcast_3202c//release/lib//liball.a(pan_tp6x0.o)
 .mdebug        0x00000000010d00e0    0x1159c /d/3202c/prj/app/demo/dvbc/jade_demo_new_geeya/mcf_data_broadcast_3202c//release/lib//liball.a(smartcard.o)
 .mdebug        0x00000000010e167c     0x11b0 /d/3202c/prj/app/demo/dvbc/jade_demo_new_geeya/mcf_data_broadcast_3202c//release/lib//liball.a(smc_t1_buffer.o)
 .mdebug        0x00000000010e282c     0x1bd8 /d/3202c/prj/app/demo/dvbc/jade_demo_new_geeya/mcf_data_broadcast_3202c//release/lib//liball.a(flash_info.o)
 .mdebug        0x00000000010e4404     0x1224 /d/3202c/prj/app/demo/dvbc/jade_demo_new_geeya/mcf_data_broadcast_3202c//release/lib//liball.a(flash_info_s.o)
 .mdebug        0x00000000010e5628     0x584c /d/3202c/prj/app/demo/dvbc/jade_demo_new_geeya/mcf_data_broadcast_3202c//release/lib//liball.a(flash_raw_sl_c.o)
 .mdebug        0x00000000010eae74     0x3124 /d/3202c/prj/app/demo/dvbc/jade_demo_new_geeya/mcf_data_broadcast_3202c//release/lib//liball.a(flash_sl.o)
 .mdebug        0x00000000010edf98     0x5114 /d/3202c/prj/app/demo/dvbc/jade_demo_new_geeya/mcf_data_broadcast_3202c//release/lib//liball.a(sto_flash.o)
 .mdebug        0x00000000010f30ac     0x3b18 /d/3202c/prj/app/demo/dvbc/jade_demo_new_geeya/mcf_data_broadcast_3202c//release/lib//liball.a(smc.o)
 .mdebug        0x00000000010f6bc4     0x6ac8 /d/3202c/prj/app/demo/dvbc/jade_demo_new_geeya/mcf_data_broadcast_3202c//release/lib//liball.a(gif_core.o)
 .mdebug        0x00000000010fd68c     0x669c /d/3202c/prj/app/demo/dvbc/jade_demo_new_geeya/mcf_data_broadcast_3202c//release/lib//liball.a(gif_in.o)
 .mdebug        0x0000000001103d28     0x7c0c /d/3202c/prj/app/demo/dvbc/jade_demo_new_geeya/mcf_data_broadcast_3202c//release/lib//liball.a(gif_info.o)
 .mdebug        0x000000000110b934     0x6ed8 /d/3202c/prj/app/demo/dvbc/jade_demo_new_geeya/mcf_data_broadcast_3202c//release/lib//liball.a(gif_list.o)
 .mdebug        0x000000000111280c     0x71fc /d/3202c/prj/app/demo/dvbc/jade_demo_new_geeya/mcf_data_broadcast_3202c//release/lib//liball.a(gif_lzw.o)
 .mdebug        0x0000000001119a08    0x14800 /d/3202c/prj/app/demo/dvbc/jade_demo_new_geeya/mcf_data_broadcast_3202c//release/lib//liball.a(imagedec_acc.o)
 .mdebug        0x000000000112e208    0x120b4 /d/3202c/prj/app/demo/dvbc/jade_demo_new_geeya/mcf_data_broadcast_3202c//release/lib//liball.a(imagedec_exif.o)
 .mdebug        0x00000000011402bc     0x3a44 /d/3202c/prj/app/demo/dvbc/jade_demo_new_geeya/mcf_data_broadcast_3202c//release/lib//liball.a(imagedec_idct.o)
 .mdebug        0x0000000001143d00     0x5de0 /d/3202c/prj/app/demo/dvbc/jade_demo_new_geeya/mcf_data_broadcast_3202c//release/lib//liball.a(png_filter.o)
 .mdebug        0x0000000001149ae0     0x6440 /d/3202c/prj/app/demo/dvbc/jade_demo_new_geeya/mcf_data_broadcast_3202c//release/lib//liball.a(png_huf_table.o)
 .mdebug        0x000000000114ff20    0x15078 /d/3202c/prj/app/demo/dvbc/jade_demo_new_geeya/mcf_data_broadcast_3202c//release/lib//liball.a(lib_multiview.o)
 .mdebug        0x0000000001164f98     0x8fd4 /d/3202c/prj/app/demo/dvbc/jade_demo_new_geeya/mcf_data_broadcast_3202c//release/lib//liball.a(as_dvbc.o)
 .mdebug        0x000000000116df6c     0x3768 /d/3202c/prj/app/demo/dvbc/jade_demo_new_geeya/mcf_data_broadcast_3202c//release/lib//liball.a(arabic_convert.o)
 .mdebug        0x00000000011716d4      0xd50 /d/3202c/prj/app/demo/dvbc/jade_demo_new_geeya/mcf_data_broadcast_3202c//release/lib//liball.a(char_map.o)
 .mdebug        0x0000000001172424     0x257c /d/3202c/prj/app/demo/dvbc/jade_demo_new_geeya/mcf_data_broadcast_3202c//release/lib//liball.a(iso_5937.o)
 .mdebug        0x00000000011749a0     0x24d4 /d/3202c/prj/app/demo/dvbc/jade_demo_new_geeya/mcf_data_broadcast_3202c//release/lib//liball.a(Thai.o)
 .mdebug        0x0000000001176e74     0x56f4 /d/3202c/prj/app/demo/dvbc/jade_demo_new_geeya/mcf_data_broadcast_3202c//release/lib//liball.a(lib_dbc.o)
 .mdebug        0x000000000117c568     0x20bc /d/3202c/prj/app/demo/dvbc/jade_demo_new_geeya/mcf_data_broadcast_3202c//release/lib//liball.a(desc_loop_parser.o)
 .mdebug        0x000000000117e624     0x8c50 /d/3202c/prj/app/demo/dvbc/jade_demo_new_geeya/mcf_data_broadcast_3202c//release/lib//liball.a(psi_pat.o)
 .mdebug        0x0000000001187274     0xbc74 /d/3202c/prj/app/demo/dvbc/jade_demo_new_geeya/mcf_data_broadcast_3202c//release/lib//liball.a(psi_pmt.o)
 .mdebug        0x0000000001192ee8     0xbd90 /d/3202c/prj/app/demo/dvbc/jade_demo_new_geeya/mcf_data_broadcast_3202c//release/lib//liball.a(si_sdt.o)
 .mdebug        0x000000000119ec78     0x6790 /d/3202c/prj/app/demo/dvbc/jade_demo_new_geeya/mcf_data_broadcast_3202c//release/lib//liball.a(db_basic_operation.o)
 .mdebug        0x00000000011a5408     0x802c /d/3202c/prj/app/demo/dvbc/jade_demo_new_geeya/mcf_data_broadcast_3202c//release/lib//liball.a(db_data_object.o)
 .mdebug        0x00000000011ad434     0x6fac /d/3202c/prj/app/demo/dvbc/jade_demo_new_geeya/mcf_data_broadcast_3202c//release/lib//liball.a(db_node_api.o)
 .mdebug        0x00000000011b43e0     0x4268 /d/3202c/prj/app/demo/dvbc/jade_demo_new_geeya/mcf_data_broadcast_3202c//release/lib//liball.a(db_reclaim_ext.o)
 .mdebug        0x00000000011b8648     0xf5c0 /d/3202c/prj/app/demo/dvbc/jade_demo_new_geeya/mcf_data_broadcast_3202c//release/lib//liball.a(gelib_effects.o)
 .mdebug        0x00000000011c7c08     0xe0ac /d/3202c/prj/app/demo/dvbc/jade_demo_new_geeya/mcf_data_broadcast_3202c//release/lib//liball.a(obj_bitmap.o)
 .mdebug        0x00000000011d5cb4    0x10930 /d/3202c/prj/app/demo/dvbc/jade_demo_new_geeya/mcf_data_broadcast_3202c//release/lib//liball.a(obj_list.o)
 .mdebug        0x00000000011e65e4     0xf804 /d/3202c/prj/app/demo/dvbc/jade_demo_new_geeya/mcf_data_broadcast_3202c//release/lib//liball.a(obj_matrixbox.o)
 .mdebug        0x00000000011f5de8     0xe608 /d/3202c/prj/app/demo/dvbc/jade_demo_new_geeya/mcf_data_broadcast_3202c//release/lib//liball.a(obj_multisel.o)
 .mdebug        0x00000000012043f0     0xf330 /d/3202c/prj/app/demo/dvbc/jade_demo_new_geeya/mcf_data_broadcast_3202c//release/lib//liball.a(obj_progressbar.o)
 .mdebug        0x0000000001213720     0xe72c /d/3202c/prj/app/demo/dvbc/jade_demo_new_geeya/mcf_data_broadcast_3202c//release/lib//liball.a(obj_scrollbar.o)
 .mdebug        0x0000000001221e4c     0x8bd8 /d/3202c/prj/app/demo/dvbc/jade_demo_new_geeya/mcf_data_broadcast_3202c//release/lib//liball.a(R820C.o)
 .mdebug        0x000000000122aa24     0x30e4 /d/3202c/prj/app/demo/dvbc/jade_demo_new_geeya/mcf_data_broadcast_3202c//release/lib//liball.a(irc_6303.o)
 .mdebug        0x000000000122db08      0x6f0 /d/3202c/prj/app/demo/dvbc/jade_demo_new_geeya/mcf_data_broadcast_3202c//release/lib//liball.a(flash_data.o)
 .mdebug        0x000000000122e1f8      0x650 /d/3202c/prj/app/demo/dvbc/jade_demo_new_geeya/mcf_data_broadcast_3202c//release/lib//liball.a(flash_data_s.o)
 .mdebug        0x000000000122e848     0x4254 /d/3202c/prj/app/demo/dvbc/jade_demo_new_geeya/mcf_data_broadcast_3202c//release/lib//liball.a(irc_std.o)
 .mdebug        0x0000000001232a9c      0x718 /d/3202c//sdk/libcore.a(cache.o)
 .mdebug        0x00000000012331b4     0x1e84 /d/3202c//sdk/libcore.a(tds_mips.o)
 .mdebug        0x0000000001235038     0x385c /d/3202c//sdk/libcore.a(power_down_detect.o)
 .mdebug        0x0000000001238894     0x9c2c /d/3202c//sdk/libcore.a(sgdma_m36.o)
 .mdebug        0x00000000012424c0     0x6cdc /d/3202c//sdk/libcore.a(sgdma_m36_reg.o)
 .mdebug        0x000000000124919c     0x1d6c /d/3202c//sdk/libcore.a(tsi_m3202.o)
 .mdebug        0x000000000124af08     0xa940 /d/3202c//sdk/libcore.a(deca_m33_dolby.o)
 .mdebug        0x0000000001255848     0x9d94 /d/3202c//sdk/libcore.a(deca_m33_init_ext.o)
 .mdebug        0x000000000125f5dc     0xa254 /d/3202c//sdk/libcore.a(deca_m33_tone.o)
 .mdebug        0x0000000001269830     0xa314 /d/3202c//sdk/libcore.a(feature_extra_dv.o)
 .mdebug        0x0000000001273b44     0xcd6c /d/3202c//sdk/libcore.a(sw_scale.o)
 .mdebug        0x00000000012808b0    0x392d0 /d/3202c//sdk/libcore.a(vdec_m3327.o)
 .mdebug        0x00000000012b9b80    0x122f4 /d/3202c//sdk/libcore.a(vdec_m3327_init_ext.o)
 .mdebug        0x00000000012cbe74    0x146b8 /d/3202c//sdk/libcore.a(tv_enc.o)
 .mdebug        0x00000000012e052c     0xce78 /d/3202c//sdk/libcore.a(vpo_m3327_init_ext.o)
 .mdebug        0x00000000012ed3a4     0x8abc /d/3202c//sdk/libcore.a(dmx_m33_api_ext.o)
 .mdebug        0x00000000012f5e60     0x980c /d/3202c//sdk/libcore.a(dmx_m33_ca.o)
 .mdebug        0x00000000012ff66c     0xa058 /d/3202c//sdk/libcore.a(dmx_m33_dbg.o)
 .mdebug        0x00000000013096c4     0xd43c /d/3202c//sdk/libcore.a(dmx_m33_dma.o)
 .mdebug        0x0000000001316b00    0x1308c /d/3202c//sdk/libcore.a(dmx_m33_pes.o)
 .mdebug        0x0000000001329b8c     0x86d0 /d/3202c//sdk/libcore.a(dmx_m33_reg.o)
 .mdebug        0x000000000133225c    0x10660 /d/3202c//sdk/libcore.a(dmx_m33_sec.o)
 .mdebug        0x00000000013428bc     0xdd3c /d/3202c//sdk/libcore.a(dmx_m33_stc.o)
 .mdebug        0x00000000013505f8     0xdba0 /d/3202c//sdk/libcore.a(ge_m33.o)
 .mdebug        0x000000000135e198    0x1231c /d/3202c//sdk/libcore.a(osd_s3601.o)
 .mdebug        0x00000000013704b4     0x8c00 /d/3202c//sdk/libcore.a(snd_m33_init_ext.o)
 .mdebug        0x00000000013790b4     0x6714 /d/3202c//sdk/libcore.a(snd_m33_reg.o)
 .mdebug        0x000000000137f7c8     0x9e60 /d/3202c//sdk/libcore.a(snd_m33_spectrum.o)
 .mdebug        0x0000000001389628     0x9aa8 /d/3202c//sdk/libcore.a(snd_m33_tone.o)
 .mdebug        0x00000000013930d0     0x3284 /d/3202c//sdk/libcore.a(flag.o)
 .mdebug        0x0000000001396354     0x2814 /d/3202c//sdk/libcore.a(hsr.o)
 .mdebug        0x0000000001398b68     0x36b8 /d/3202c//sdk/libcore.a(Interrupt.o)
 .mdebug        0x000000000139c220     0x2850 /d/3202c//sdk/libcore.a(irq.o)
 .mdebug        0x000000000139ea70     0x4bbc /d/3202c//sdk/libcore.a(mbuffer.o)
 .mdebug        0x00000000013a362c     0x2584 /d/3202c//sdk/libcore.a(mutex.o)
 .mdebug        0x00000000013a5bb0     0x2618 /d/3202c//sdk/libcore.a(queue.o)
 .mdebug        0x00000000013a81c8     0x3a9c /d/3202c//sdk/libcore.a(sched_mq.o)
 .mdebug        0x00000000013abc64     0x2f80 /d/3202c//sdk/libcore.a(semapho.o)
 .mdebug        0x00000000013aebe4     0x38f0 /d/3202c//sdk/libcore.a(task.o)
 .mdebug        0x00000000013b24d4     0x341c /d/3202c//sdk/libcore.a(taskc.o)
 .mdebug        0x00000000013b58f0     0x3290 /d/3202c//sdk/libcore.a(tds.o)
 .mdebug        0x00000000013b8b80     0x3a24 /d/3202c//sdk/libcore.a(timeout.o)
 .mdebug        0x00000000013bc5a4     0x3604 /d/3202c//sdk/libcore.a(timerc.o)
 .mdebug        0x00000000013bfba8      0x788 /d/3202c//sdk/libcore.a(version.o)
 .mdebug        0x00000000013c0330      0xb1c /d/3202c//sdk/libcore.a(mips_suspend.o)
 .mdebug        0x00000000013c0e4c     0x1384 /d/3202c//sdk/libcore.a(scale.o)
 .mdebug        0x00000000013c21d0     0x138c /d/3202c//sdk/libcore.a(scale_c.o)
 .mdebug        0x00000000013c355c     0x14e8 /d/3202c//sdk/libcore.a(Sched.o)
 .mdebug        0x00000000013c4a44    0x121b4 /d/3202c//sdk/libcore.a(deca_m33.o)
 .mdebug        0x00000000013d6bf8     0xb400 /d/3202c//sdk/libcore.a(deca_m33_ase.o)
 .mdebug        0x00000000013e1ff8    0x29d1c /d/3202c//sdk/libcore.a(vpo_driver.o)
 .mdebug        0x000000000140bd14    0x10a70 /d/3202c//sdk/libcore.a(dmx_m33.o)
 .mdebug        0x000000000141c784    0x11400 /d/3202c//sdk/libcore.a(dmx_m33_api.o)
 .mdebug        0x000000000142db84     0xd540 /d/3202c//sdk/libcore.a(ge_hal.o)
 .mdebug        0x000000000143b0c4    0x131d4 /d/3202c//sdk/libcore.a(ge_lld.o)
 .mdebug        0x000000000144e298     0x161c /d/3202c//sdk/libcore.a(fix_fft.o)
 .mdebug        0x000000000144f8b4    0x127dc /d/3202c//sdk/libcore.a(snd_m33.o)
 .mdebug        0x0000000001462090     0x22f8 /d/3202c//sdk/libcore.a(mempool.o)
 .mdebug        0x0000000001464388     0x1d28 /d/3202c//sdk/liblog.a(stdio.o)
 .mdebug        0x00000000014660b0      0x490 /d/3202c//sdk/libyamadhw.a(frame.o)
 .mdebug        0x0000000001466540      0x368 /d/3202c//sdk/libyamadhw.a(layer12.o)
 .mdebug        0x00000000014668a8      0x2f4 /d/3202c//sdk/libyamadhw.a(stream.o)
 .mdebug        0x0000000001466b9c      0x210 /d/3202c//sdk/libyamadhw.a(synth.o)
 .mdebug        0x0000000001466dac      0x1e0 /d/3202c//sdk/libyamadhw.a(bitptr.o)
 .mdebug        0x0000000001466f8c     0x2350 /d/3202c//sdk/lib7zip.a(LzmaDecode.o)
 .mdebug        0x00000000014692dc     0x133c /D/ALi_IDE_2.1/compilers/gcc3.0.4/mips-t2-elf/lib/soft-float/el/libm.a(s_isinf.o)
 .mdebug        0x000000000146a618     0x133c /D/ALi_IDE_2.1/compilers/gcc3.0.4/mips-t2-elf/lib/soft-float/el/libm.a(s_isnan.o)
 .mdebug        0x000000000146b954     0x338c /D/ALi_IDE_2.1/compilers/gcc3.0.4/lib/gcc-lib/mips-t2-elf/3.0.4/soft-float/el/libgcc.a(_divdi3.o)
 .mdebug        0x000000000146ece0     0x338c /D/ALi_IDE_2.1/compilers/gcc3.0.4/lib/gcc-lib/mips-t2-elf/3.0.4/soft-float/el/libgcc.a(_moddi3.o)
 .mdebug        0x000000000147206c     0x3390 /D/ALi_IDE_2.1/compilers/gcc3.0.4/lib/gcc-lib/mips-t2-elf/3.0.4/soft-float/el/libgcc.a(_udivdi3.o)
 .mdebug        0x00000000014753fc     0x3390 /D/ALi_IDE_2.1/compilers/gcc3.0.4/lib/gcc-lib/mips-t2-elf/3.0.4/soft-float/el/libgcc.a(_umoddi3.o)
 .mdebug        0x000000000147878c     0x32ec /D/ALi_IDE_2.1/compilers/gcc3.0.4/lib/gcc-lib/mips-t2-elf/3.0.4/soft-float/el/libgcc.a(_clz.o)
 .mdebug        0x000000000147ba78     0x3808 /D/ALi_IDE_2.1/compilers/gcc3.0.4/lib/gcc-lib/mips-t2-elf/3.0.4/soft-float/el/libgcc.a(_addsub_sf.o)
 .mdebug        0x000000000147f280     0x3664 /D/ALi_IDE_2.1/compilers/gcc3.0.4/lib/gcc-lib/mips-t2-elf/3.0.4/soft-float/el/libgcc.a(_mul_sf.o)
 .mdebug        0x00000000014828e4     0x3664 /D/ALi_IDE_2.1/compilers/gcc3.0.4/lib/gcc-lib/mips-t2-elf/3.0.4/soft-float/el/libgcc.a(_div_sf.o)
 .mdebug        0x0000000001485f48     0x3650 /D/ALi_IDE_2.1/compilers/gcc3.0.4/lib/gcc-lib/mips-t2-elf/3.0.4/soft-float/el/libgcc.a(_compare_sf.o)
 .mdebug        0x0000000001489598     0x3618 /D/ALi_IDE_2.1/compilers/gcc3.0.4/lib/gcc-lib/mips-t2-elf/3.0.4/soft-float/el/libgcc.a(_si_to_sf.o)
 .mdebug        0x000000000148cbb0     0x3634 /D/ALi_IDE_2.1/compilers/gcc3.0.4/lib/gcc-lib/mips-t2-elf/3.0.4/soft-float/el/libgcc.a(_sf_to_df.o)
 .mdebug        0x00000000014901e4     0x3580 /D/ALi_IDE_2.1/compilers/gcc3.0.4/lib/gcc-lib/mips-t2-elf/3.0.4/soft-float/el/libgcc.a(_thenan_sf.o)
 .mdebug        0x0000000001493764     0x361c /D/ALi_IDE_2.1/compilers/gcc3.0.4/lib/gcc-lib/mips-t2-elf/3.0.4/soft-float/el/libgcc.a(_sf_to_usi.o)
 .mdebug        0x0000000001496d80     0x3808 /D/ALi_IDE_2.1/compilers/gcc3.0.4/lib/gcc-lib/mips-t2-elf/3.0.4/soft-float/el/libgcc.a(_addsub_df.o)
 .mdebug        0x000000000149a588     0x3664 /D/ALi_IDE_2.1/compilers/gcc3.0.4/lib/gcc-lib/mips-t2-elf/3.0.4/soft-float/el/libgcc.a(_mul_df.o)
 .mdebug        0x000000000149dbec     0x3664 /D/ALi_IDE_2.1/compilers/gcc3.0.4/lib/gcc-lib/mips-t2-elf/3.0.4/soft-float/el/libgcc.a(_div_df.o)
 .mdebug        0x00000000014a1250     0x3650 /D/ALi_IDE_2.1/compilers/gcc3.0.4/lib/gcc-lib/mips-t2-elf/3.0.4/soft-float/el/libgcc.a(_compare_df.o)
 .mdebug        0x00000000014a48a0     0x3618 /D/ALi_IDE_2.1/compilers/gcc3.0.4/lib/gcc-lib/mips-t2-elf/3.0.4/soft-float/el/libgcc.a(_si_to_df.o)
 .mdebug        0x00000000014a7eb8     0x361c /D/ALi_IDE_2.1/compilers/gcc3.0.4/lib/gcc-lib/mips-t2-elf/3.0.4/soft-float/el/libgcc.a(_df_to_si.o)
 .mdebug        0x00000000014ab4d4     0x3670 /D/ALi_IDE_2.1/compilers/gcc3.0.4/lib/gcc-lib/mips-t2-elf/3.0.4/soft-float/el/libgcc.a(_make_df.o)
 .mdebug        0x00000000014aeb44     0x3580 /D/ALi_IDE_2.1/compilers/gcc3.0.4/lib/gcc-lib/mips-t2-elf/3.0.4/soft-float/el/libgcc.a(_thenan_df.o)
 .mdebug        0x00000000014b20c4     0x361c /D/ALi_IDE_2.1/compilers/gcc3.0.4/lib/gcc-lib/mips-t2-elf/3.0.4/soft-float/el/libgcc.a(_df_to_usi.o)
 .mdebug        0x00000000014b56e0     0x3608 /D/ALi_IDE_2.1/compilers/gcc3.0.4/lib/gcc-lib/mips-t2-elf/3.0.4/soft-float/el/libgcc.a(_pack_sf.o)
 .mdebug        0x00000000014b8ce8     0x3624 /D/ALi_IDE_2.1/compilers/gcc3.0.4/lib/gcc-lib/mips-t2-elf/3.0.4/soft-float/el/libgcc.a(_unpack_sf.o)
 .mdebug        0x00000000014bc30c     0x3628 /D/ALi_IDE_2.1/compilers/gcc3.0.4/lib/gcc-lib/mips-t2-elf/3.0.4/soft-float/el/libgcc.a(_fpcmp_parts_sf.o)
 .mdebug        0x00000000014bf934     0x3608 /D/ALi_IDE_2.1/compilers/gcc3.0.4/lib/gcc-lib/mips-t2-elf/3.0.4/soft-float/el/libgcc.a(_pack_df.o)
 .mdebug        0x00000000014c2f3c     0x3624 /D/ALi_IDE_2.1/compilers/gcc3.0.4/lib/gcc-lib/mips-t2-elf/3.0.4/soft-float/el/libgcc.a(_unpack_df.o)
 .mdebug        0x00000000014c6560     0x3628 /D/ALi_IDE_2.1/compilers/gcc3.0.4/lib/gcc-lib/mips-t2-elf/3.0.4/soft-float/el/libgcc.a(_fpcmp_parts_df.o)
 .mdebug        0x00000000014c9b88      0x680 /D/ALi_IDE_2.1/compilers/gcc3.0.4/mips-t2-elf/lib/soft-float/el/libc.a(isdigit.o)
 .mdebug        0x00000000014ca208      0x680 /D/ALi_IDE_2.1/compilers/gcc3.0.4/mips-t2-elf/lib/soft-float/el/libc.a(isspace.o)
 .mdebug        0x00000000014ca888     0x1204 /D/ALi_IDE_2.1/compilers/gcc3.0.4/mips-t2-elf/lib/soft-float/el/libc.a(strcat.o)
 .mdebug        0x00000000014cba8c     0x12e8 /D/ALi_IDE_2.1/compilers/gcc3.0.4/mips-t2-elf/lib/soft-float/el/libc.a(strchr.o)
 .mdebug        0x00000000014ccd74     0x16c0 /D/ALi_IDE_2.1/compilers/gcc3.0.4/mips-t2-elf/lib/soft-float/el/libc.a(strtol.o)
 .mdebug        0x00000000014ce434     0x16a0 /D/ALi_IDE_2.1/compilers/gcc3.0.4/mips-t2-elf/lib/soft-float/el/libc.a(strtoul.o)
 .mdebug        0x00000000014cfad4      0x5f0 /D/ALi_IDE_2.1/compilers/gcc3.0.4/mips-t2-elf/lib/soft-float/el/libc.a(ctype_.o)
 .mdebug        0x00000000014d00c4     0x1098 /D/ALi_IDE_2.1/compilers/gcc3.0.4/mips-t2-elf/lib/soft-float/el/libc.a(impure.o)
START GROUP
LOAD /d/3202c/prj/app/demo/dvbc/jade_demo_new_geeya/mcf_data_broadcast_3202c//release/lib//libgycas.a
LOAD /d/3202c/prj/app/demo/dvbc/jade_demo_new_geeya/mcf_data_broadcast_3202c//release/lib//libdvn.a
LOAD /d/3202c/prj/app/demo/dvbc/jade_demo_new_geeya/mcf_data_broadcast_3202c//release/lib//libdvt.a
LOAD /d/3202c//sdk/libmlzo.a
LOAD /d/3202c/prj/app/demo/dvbc/jade_demo_new_geeya/mcf_data_broadcast_3202c//release/lib//liball.a
LOAD /d/3202c//sdk/libcore.a
LOAD /d/3202c/prj/app/demo/dvbc/jade_demo_new_geeya/mcf_data_broadcast_3202c//release/lib//liball.a
LOAD /d/3202c//sdk/liblog.a
LOAD /d/3202c//sdk/libyamadhw.a
LOAD /d/3202c//sdk/lib7zip.a
LOAD /D/ALi_IDE_2.1/compilers/gcc3.0.4/mips-t2-elf/lib/soft-float/el/libm.a
LOAD /D/ALi_IDE_2.1/compilers/gcc3.0.4/lib/gcc-lib/mips-t2-elf/3.0.4/soft-float/el/libgcc.a
LOAD /D/ALi_IDE_2.1/compilers/gcc3.0.4/mips-t2-elf/lib/soft-float/el/libc.a
END GROUP
OUTPUT(jade_ca_broadcast_sdk_3202c.exe elf32-littlemips)
